c79e	0	SEI	A: 0	X: 0	Y: 0	SP: fd
c79f	0	CLD	A: 0	X: 0	Y: 0	SP: fd
c7a0	c7a1	LDA	A: 0	X: 0	Y: 0	SP: fd
c7a2	2000	STA	A: 10	X: 0	Y: 0	SP: fd
c7a5	c7a6	LDX	A: 10	X: 0	Y: 0	SP: fd
c7a7	0	TXS	A: 10	X: ff	Y: 0	SP: fd
c7a8	2002	LDA	A: 10	X: ff	Y: 0	SP: ff
Read from PPU register: 2
c7ab	c7ac	AND	A: 80	X: ff	Y: 0	SP: ff
c7ad	c7a8	BEQ	A: 80	X: ff	Y: 0	SP: ff
c7af	c7b0	LDY	A: 80	X: ff	Y: 0	SP: ff
c7b1	1	STY	A: 80	X: ff	Y: 7	SP: ff
c7b3	c7b4	LDY	A: 80	X: ff	Y: 7	SP: ff
c7b5	0	STY	A: 80	X: ff	Y: 0	SP: ff
c7b7	c7b8	LDA	A: 80	X: ff	Y: 0	SP: ff
c7b9	700	STA	A: 0	X: ff	Y: 0	SP: ff
c7bb	0	DEY	A: 0	X: ff	Y: 0	SP: ff
c7bc	c7b9	BNE	A: 0	X: ff	Y: ff	SP: ff
c7b9	7ff	STA	A: 0	X: ff	Y: ff	SP: ff
c7bb	0	DEY	A: 0	X: ff	Y: ff	SP: ff
c7bc	c7b9	BNE	A: 0	X: ff	Y: fe	SP: ff
c7b9	7fe	STA	A: 0	X: ff	Y: fe	SP: ff
c7bb	0	DEY	A: 0	X: ff	Y: fe	SP: ff
c7bc	c7b9	BNE	A: 0	X: ff	Y: fd	SP: ff
c7b9	7fd	STA	A: 0	X: ff	Y: fd	SP: ff
c7bb	0	DEY	A: 0	X: ff	Y: fd	SP: ff
c7bc	c7b9	BNE	A: 0	X: ff	Y: fc	SP: ff
c7b9	7fc	STA	A: 0	X: ff	Y: fc	SP: ff
c7bb	0	DEY	A: 0	X: ff	Y: fc	SP: ff
c7bc	c7b9	BNE	A: 0	X: ff	Y: fb	SP: ff
c7b9	7fb	STA	A: 0	X: ff	Y: fb	SP: ff
c7bb	0	DEY	A: 0	X: ff	Y: fb	SP: ff
c7bc	c7b9	BNE	A: 0	X: ff	Y: fa	SP: ff
c7b9	7fa	STA	A: 0	X: ff	Y: fa	SP: ff
c7bb	0	DEY	A: 0	X: ff	Y: fa	SP: ff
c7bc	c7b9	BNE	A: 0	X: ff	Y: f9	SP: ff
c7b9	7f9	STA	A: 0	X: ff	Y: f9	SP: ff
c7bb	0	DEY	A: 0	X: ff	Y: f9	SP: ff
c7bc	c7b9	BNE	A: 0	X: ff	Y: f8	SP: ff
c7b9	7f8	STA	A: 0	X: ff	Y: f8	SP: ff
c7bb	0	DEY	A: 0	X: ff	Y: f8	SP: ff
c7bc	c7b9	BNE	A: 0	X: ff	Y: f7	SP: ff
c7b9	7f7	STA	A: 0	X: ff	Y: f7	SP: ff
c7bb	0	DEY	A: 0	X: ff	Y: f7	SP: ff
c7bc	c7b9	BNE	A: 0	X: ff	Y: f6	SP: ff
c7b9	7f6	STA	A: 0	X: ff	Y: f6	SP: ff
c7bb	0	DEY	A: 0	X: ff	Y: f6	SP: ff
c7bc	c7b9	BNE	A: 0	X: ff	Y: f5	SP: ff
c7b9	7f5	STA	A: 0	X: ff	Y: f5	SP: ff
c7bb	0	DEY	A: 0	X: ff	Y: f5	SP: ff
c7bc	c7b9	BNE	A: 0	X: ff	Y: f4	SP: ff
c7b9	7f4	STA	A: 0	X: ff	Y: f4	SP: ff
c7bb	0	DEY	A: 0	X: ff	Y: f4	SP: ff
c7bc	c7b9	BNE	A: 0	X: ff	Y: f3	SP: ff
c7b9	7f3	STA	A: 0	X: ff	Y: f3	SP: ff
c7bb	0	DEY	A: 0	X: ff	Y: f3	SP: ff
c7bc	c7b9	BNE	A: 0	X: ff	Y: f2	SP: ff
c7b9	7f2	STA	A: 0	X: ff	Y: f2	SP: ff
c7bb	0	DEY	A: 0	X: ff	Y: f2	SP: ff
c7bc	c7b9	BNE	A: 0	X: ff	Y: f1	SP: ff
c7b9	7f1	STA	A: 0	X: ff	Y: f1	SP: ff
c7bb	0	DEY	A: 0	X: ff	Y: f1	SP: ff
c7bc	c7b9	BNE	A: 0	X: ff	Y: f0	SP: ff
c7b9	7f0	STA	A: 0	X: ff	Y: f0	SP: ff
c7bb	0	DEY	A: 0	X: ff	Y: f0	SP: ff
c7bc	c7b9	BNE	A: 0	X: ff	Y: ef	SP: ff
c7b9	7ef	STA	A: 0	X: ff	Y: ef	SP: ff
c7bb	0	DEY	A: 0	X: ff	Y: ef	SP: ff
c7bc	c7b9	BNE	A: 0	X: ff	Y: ee	SP: ff
c7b9	7ee	STA	A: 0	X: ff	Y: ee	SP: ff
c7bb	0	DEY	A: 0	X: ff	Y: ee	SP: ff
c7bc	c7b9	BNE	A: 0	X: ff	Y: ed	SP: ff
c7b9	7ed	STA	A: 0	X: ff	Y: ed	SP: ff
c7bb	0	DEY	A: 0	X: ff	Y: ed	SP: ff
c7bc	c7b9	BNE	A: 0	X: ff	Y: ec	SP: ff
c7b9	7ec	STA	A: 0	X: ff	Y: ec	SP: ff
c7bb	0	DEY	A: 0	X: ff	Y: ec	SP: ff
c7bc	c7b9	BNE	A: 0	X: ff	Y: eb	SP: ff
c7b9	7eb	STA	A: 0	X: ff	Y: eb	SP: ff
c7bb	0	DEY	A: 0	X: ff	Y: eb	SP: ff
c7bc	c7b9	BNE	A: 0	X: ff	Y: ea	SP: ff
c7b9	7ea	STA	A: 0	X: ff	Y: ea	SP: ff
c7bb	0	DEY	A: 0	X: ff	Y: ea	SP: ff
c7bc	c7b9	BNE	A: 0	X: ff	Y: e9	SP: ff
c7b9	7e9	STA	A: 0	X: ff	Y: e9	SP: ff
c7bb	0	DEY	A: 0	X: ff	Y: e9	SP: ff
c7bc	c7b9	BNE	A: 0	X: ff	Y: e8	SP: ff
c7b9	7e8	STA	A: 0	X: ff	Y: e8	SP: ff
c7bb	0	DEY	A: 0	X: ff	Y: e8	SP: ff
c7bc	c7b9	BNE	A: 0	X: ff	Y: e7	SP: ff
c7b9	7e7	STA	A: 0	X: ff	Y: e7	SP: ff
c7bb	0	DEY	A: 0	X: ff	Y: e7	SP: ff
c7bc	c7b9	BNE	A: 0	X: ff	Y: e6	SP: ff
c7b9	7e6	STA	A: 0	X: ff	Y: e6	SP: ff
c7bb	0	DEY	A: 0	X: ff	Y: e6	SP: ff
c7bc	c7b9	BNE	A: 0	X: ff	Y: e5	SP: ff
c7b9	7e5	STA	A: 0	X: ff	Y: e5	SP: ff
c7bb	0	DEY	A: 0	X: ff	Y: e5	SP: ff
c7bc	c7b9	BNE	A: 0	X: ff	Y: e4	SP: ff
c7b9	7e4	STA	A: 0	X: ff	Y: e4	SP: ff
c7bb	0	DEY	A: 0	X: ff	Y: e4	SP: ff
c7bc	c7b9	BNE	A: 0	X: ff	Y: e3	SP: ff
c7b9	7e3	STA	A: 0	X: ff	Y: e3	SP: ff
c7bb	0	DEY	A: 0	X: ff	Y: e3	SP: ff
c7bc	c7b9	BNE	A: 0	X: ff	Y: e2	SP: ff
c7b9	7e2	STA	A: 0	X: ff	Y: e2	SP: ff
c7bb	0	DEY	A: 0	X: ff	Y: e2	SP: ff
c7bc	c7b9	BNE	A: 0	X: ff	Y: e1	SP: ff
c7b9	7e1	STA	A: 0	X: ff	Y: e1	SP: ff
c7bb	0	DEY	A: 0	X: ff	Y: e1	SP: ff
c7bc	c7b9	BNE	A: 0	X: ff	Y: e0	SP: ff
c7b9	7e0	STA	A: 0	X: ff	Y: e0	SP: ff
c7bb	0	DEY	A: 0	X: ff	Y: e0	SP: ff
c7bc	c7b9	BNE	A: 0	X: ff	Y: df	SP: ff
c7b9	7df	STA	A: 0	X: ff	Y: df	SP: ff
c7bb	0	DEY	A: 0	X: ff	Y: df	SP: ff
c7bc	c7b9	BNE	A: 0	X: ff	Y: de	SP: ff
c7b9	7de	STA	A: 0	X: ff	Y: de	SP: ff
c7bb	0	DEY	A: 0	X: ff	Y: de	SP: ff
c7bc	c7b9	BNE	A: 0	X: ff	Y: dd	SP: ff
c7b9	7dd	STA	A: 0	X: ff	Y: dd	SP: ff
c7bb	0	DEY	A: 0	X: ff	Y: dd	SP: ff
c7bc	c7b9	BNE	A: 0	X: ff	Y: dc	SP: ff
c7b9	7dc	STA	A: 0	X: ff	Y: dc	SP: ff
c7bb	0	DEY	A: 0	X: ff	Y: dc	SP: ff
c7bc	c7b9	BNE	A: 0	X: ff	Y: db	SP: ff
c7b9	7db	STA	A: 0	X: ff	Y: db	SP: ff
c7bb	0	DEY	A: 0	X: ff	Y: db	SP: ff
c7bc	c7b9	BNE	A: 0	X: ff	Y: da	SP: ff
c7b9	7da	STA	A: 0	X: ff	Y: da	SP: ff
c7bb	0	DEY	A: 0	X: ff	Y: da	SP: ff
c7bc	c7b9	BNE	A: 0	X: ff	Y: d9	SP: ff
c7b9	7d9	STA	A: 0	X: ff	Y: d9	SP: ff
c7bb	0	DEY	A: 0	X: ff	Y: d9	SP: ff
c7bc	c7b9	BNE	A: 0	X: ff	Y: d8	SP: ff
c7b9	7d8	STA	A: 0	X: ff	Y: d8	SP: ff
c7bb	0	DEY	A: 0	X: ff	Y: d8	SP: ff
c7bc	c7b9	BNE	A: 0	X: ff	Y: d7	SP: ff
c7b9	7d7	STA	A: 0	X: ff	Y: d7	SP: ff
c7bb	0	DEY	A: 0	X: ff	Y: d7	SP: ff
c7bc	c7b9	BNE	A: 0	X: ff	Y: d6	SP: ff
c7b9	7d6	STA	A: 0	X: ff	Y: d6	SP: ff
c7bb	0	DEY	A: 0	X: ff	Y: d6	SP: ff
c7bc	c7b9	BNE	A: 0	X: ff	Y: d5	SP: ff
c7b9	7d5	STA	A: 0	X: ff	Y: d5	SP: ff
c7bb	0	DEY	A: 0	X: ff	Y: d5	SP: ff
c7bc	c7b9	BNE	A: 0	X: ff	Y: d4	SP: ff
c7b9	7d4	STA	A: 0	X: ff	Y: d4	SP: ff
c7bb	0	DEY	A: 0	X: ff	Y: d4	SP: ff
c7bc	c7b9	BNE	A: 0	X: ff	Y: d3	SP: ff
c7b9	7d3	STA	A: 0	X: ff	Y: d3	SP: ff
c7bb	0	DEY	A: 0	X: ff	Y: d3	SP: ff
c7bc	c7b9	BNE	A: 0	X: ff	Y: d2	SP: ff
c7b9	7d2	STA	A: 0	X: ff	Y: d2	SP: ff
c7bb	0	DEY	A: 0	X: ff	Y: d2	SP: ff
c7bc	c7b9	BNE	A: 0	X: ff	Y: d1	SP: ff
c7b9	7d1	STA	A: 0	X: ff	Y: d1	SP: ff
c7bb	0	DEY	A: 0	X: ff	Y: d1	SP: ff
c7bc	c7b9	BNE	A: 0	X: ff	Y: d0	SP: ff
c7b9	7d0	STA	A: 0	X: ff	Y: d0	SP: ff
c7bb	0	DEY	A: 0	X: ff	Y: d0	SP: ff
c7bc	c7b9	BNE	A: 0	X: ff	Y: cf	SP: ff
c7b9	7cf	STA	A: 0	X: ff	Y: cf	SP: ff
c7bb	0	DEY	A: 0	X: ff	Y: cf	SP: ff
c7bc	c7b9	BNE	A: 0	X: ff	Y: ce	SP: ff
c7b9	7ce	STA	A: 0	X: ff	Y: ce	SP: ff
c7bb	0	DEY	A: 0	X: ff	Y: ce	SP: ff
c7bc	c7b9	BNE	A: 0	X: ff	Y: cd	SP: ff
c7b9	7cd	STA	A: 0	X: ff	Y: cd	SP: ff
c7bb	0	DEY	A: 0	X: ff	Y: cd	SP: ff
c7bc	c7b9	BNE	A: 0	X: ff	Y: cc	SP: ff
c7b9	7cc	STA	A: 0	X: ff	Y: cc	SP: ff
c7bb	0	DEY	A: 0	X: ff	Y: cc	SP: ff
c7bc	c7b9	BNE	A: 0	X: ff	Y: cb	SP: ff
c7b9	7cb	STA	A: 0	X: ff	Y: cb	SP: ff
c7bb	0	DEY	A: 0	X: ff	Y: cb	SP: ff
c7bc	c7b9	BNE	A: 0	X: ff	Y: ca	SP: ff
c7b9	7ca	STA	A: 0	X: ff	Y: ca	SP: ff
c7bb	0	DEY	A: 0	X: ff	Y: ca	SP: ff
c7bc	c7b9	BNE	A: 0	X: ff	Y: c9	SP: ff
c7b9	7c9	STA	A: 0	X: ff	Y: c9	SP: ff
c7bb	0	DEY	A: 0	X: ff	Y: c9	SP: ff
c7bc	c7b9	BNE	A: 0	X: ff	Y: c8	SP: ff
c7b9	7c8	STA	A: 0	X: ff	Y: c8	SP: ff
c7bb	0	DEY	A: 0	X: ff	Y: c8	SP: ff
c7bc	c7b9	BNE	A: 0	X: ff	Y: c7	SP: ff
c7b9	7c7	STA	A: 0	X: ff	Y: c7	SP: ff
c7bb	0	DEY	A: 0	X: ff	Y: c7	SP: ff
c7bc	c7b9	BNE	A: 0	X: ff	Y: c6	SP: ff
c7b9	7c6	STA	A: 0	X: ff	Y: c6	SP: ff
c7bb	0	DEY	A: 0	X: ff	Y: c6	SP: ff
c7bc	c7b9	BNE	A: 0	X: ff	Y: c5	SP: ff
c7b9	7c5	STA	A: 0	X: ff	Y: c5	SP: ff
c7bb	0	DEY	A: 0	X: ff	Y: c5	SP: ff
c7bc	c7b9	BNE	A: 0	X: ff	Y: c4	SP: ff
c7b9	7c4	STA	A: 0	X: ff	Y: c4	SP: ff
c7bb	0	DEY	A: 0	X: ff	Y: c4	SP: ff
c7bc	c7b9	BNE	A: 0	X: ff	Y: c3	SP: ff
c7b9	7c3	STA	A: 0	X: ff	Y: c3	SP: ff
c7bb	0	DEY	A: 0	X: ff	Y: c3	SP: ff
c7bc	c7b9	BNE	A: 0	X: ff	Y: c2	SP: ff
c7b9	7c2	STA	A: 0	X: ff	Y: c2	SP: ff
c7bb	0	DEY	A: 0	X: ff	Y: c2	SP: ff
c7bc	c7b9	BNE	A: 0	X: ff	Y: c1	SP: ff
c7b9	7c1	STA	A: 0	X: ff	Y: c1	SP: ff
c7bb	0	DEY	A: 0	X: ff	Y: c1	SP: ff
c7bc	c7b9	BNE	A: 0	X: ff	Y: c0	SP: ff
c7b9	7c0	STA	A: 0	X: ff	Y: c0	SP: ff
c7bb	0	DEY	A: 0	X: ff	Y: c0	SP: ff
c7bc	c7b9	BNE	A: 0	X: ff	Y: bf	SP: ff
c7b9	7bf	STA	A: 0	X: ff	Y: bf	SP: ff
c7bb	0	DEY	A: 0	X: ff	Y: bf	SP: ff
c7bc	c7b9	BNE	A: 0	X: ff	Y: be	SP: ff
c7b9	7be	STA	A: 0	X: ff	Y: be	SP: ff
c7bb	0	DEY	A: 0	X: ff	Y: be	SP: ff
c7bc	c7b9	BNE	A: 0	X: ff	Y: bd	SP: ff
c7b9	7bd	STA	A: 0	X: ff	Y: bd	SP: ff
c7bb	0	DEY	A: 0	X: ff	Y: bd	SP: ff
c7bc	c7b9	BNE	A: 0	X: ff	Y: bc	SP: ff
c7b9	7bc	STA	A: 0	X: ff	Y: bc	SP: ff
c7bb	0	DEY	A: 0	X: ff	Y: bc	SP: ff
c7bc	c7b9	BNE	A: 0	X: ff	Y: bb	SP: ff
c7b9	7bb	STA	A: 0	X: ff	Y: bb	SP: ff
c7bb	0	DEY	A: 0	X: ff	Y: bb	SP: ff
c7bc	c7b9	BNE	A: 0	X: ff	Y: ba	SP: ff
c7b9	7ba	STA	A: 0	X: ff	Y: ba	SP: ff
c7bb	0	DEY	A: 0	X: ff	Y: ba	SP: ff
c7bc	c7b9	BNE	A: 0	X: ff	Y: b9	SP: ff
c7b9	7b9	STA	A: 0	X: ff	Y: b9	SP: ff
c7bb	0	DEY	A: 0	X: ff	Y: b9	SP: ff
c7bc	c7b9	BNE	A: 0	X: ff	Y: b8	SP: ff
c7b9	7b8	STA	A: 0	X: ff	Y: b8	SP: ff
c7bb	0	DEY	A: 0	X: ff	Y: b8	SP: ff
c7bc	c7b9	BNE	A: 0	X: ff	Y: b7	SP: ff
c7b9	7b7	STA	A: 0	X: ff	Y: b7	SP: ff
c7bb	0	DEY	A: 0	X: ff	Y: b7	SP: ff
c7bc	c7b9	BNE	A: 0	X: ff	Y: b6	SP: ff
c7b9	7b6	STA	A: 0	X: ff	Y: b6	SP: ff
c7bb	0	DEY	A: 0	X: ff	Y: b6	SP: ff
c7bc	c7b9	BNE	A: 0	X: ff	Y: b5	SP: ff
c7b9	7b5	STA	A: 0	X: ff	Y: b5	SP: ff
c7bb	0	DEY	A: 0	X: ff	Y: b5	SP: ff
c7bc	c7b9	BNE	A: 0	X: ff	Y: b4	SP: ff
c7b9	7b4	STA	A: 0	X: ff	Y: b4	SP: ff
c7bb	0	DEY	A: 0	X: ff	Y: b4	SP: ff
c7bc	c7b9	BNE	A: 0	X: ff	Y: b3	SP: ff
c7b9	7b3	STA	A: 0	X: ff	Y: b3	SP: ff
c7bb	0	DEY	A: 0	X: ff	Y: b3	SP: ff
c7bc	c7b9	BNE	A: 0	X: ff	Y: b2	SP: ff
c7b9	7b2	STA	A: 0	X: ff	Y: b2	SP: ff
c7bb	0	DEY	A: 0	X: ff	Y: b2	SP: ff
c7bc	c7b9	BNE	A: 0	X: ff	Y: b1	SP: ff
c7b9	7b1	STA	A: 0	X: ff	Y: b1	SP: ff
c7bb	0	DEY	A: 0	X: ff	Y: b1	SP: ff
c7bc	c7b9	BNE	A: 0	X: ff	Y: b0	SP: ff
c7b9	7b0	STA	A: 0	X: ff	Y: b0	SP: ff
c7bb	0	DEY	A: 0	X: ff	Y: b0	SP: ff
c7bc	c7b9	BNE	A: 0	X: ff	Y: af	SP: ff
c7b9	7af	STA	A: 0	X: ff	Y: af	SP: ff
c7bb	0	DEY	A: 0	X: ff	Y: af	SP: ff
c7bc	c7b9	BNE	A: 0	X: ff	Y: ae	SP: ff
c7b9	7ae	STA	A: 0	X: ff	Y: ae	SP: ff
c7bb	0	DEY	A: 0	X: ff	Y: ae	SP: ff
c7bc	c7b9	BNE	A: 0	X: ff	Y: ad	SP: ff
c7b9	7ad	STA	A: 0	X: ff	Y: ad	SP: ff
c7bb	0	DEY	A: 0	X: ff	Y: ad	SP: ff
c7bc	c7b9	BNE	A: 0	X: ff	Y: ac	SP: ff
c7b9	7ac	STA	A: 0	X: ff	Y: ac	SP: ff
c7bb	0	DEY	A: 0	X: ff	Y: ac	SP: ff
c7bc	c7b9	BNE	A: 0	X: ff	Y: ab	SP: ff
c7b9	7ab	STA	A: 0	X: ff	Y: ab	SP: ff
c7bb	0	DEY	A: 0	X: ff	Y: ab	SP: ff
c7bc	c7b9	BNE	A: 0	X: ff	Y: aa	SP: ff
c7b9	7aa	STA	A: 0	X: ff	Y: aa	SP: ff
c7bb	0	DEY	A: 0	X: ff	Y: aa	SP: ff
c7bc	c7b9	BNE	A: 0	X: ff	Y: a9	SP: ff
c7b9	7a9	STA	A: 0	X: ff	Y: a9	SP: ff
c7bb	0	DEY	A: 0	X: ff	Y: a9	SP: ff
c7bc	c7b9	BNE	A: 0	X: ff	Y: a8	SP: ff
c7b9	7a8	STA	A: 0	X: ff	Y: a8	SP: ff
c7bb	0	DEY	A: 0	X: ff	Y: a8	SP: ff
c7bc	c7b9	BNE	A: 0	X: ff	Y: a7	SP: ff
c7b9	7a7	STA	A: 0	X: ff	Y: a7	SP: ff
c7bb	0	DEY	A: 0	X: ff	Y: a7	SP: ff
c7bc	c7b9	BNE	A: 0	X: ff	Y: a6	SP: ff
c7b9	7a6	STA	A: 0	X: ff	Y: a6	SP: ff
c7bb	0	DEY	A: 0	X: ff	Y: a6	SP: ff
c7bc	c7b9	BNE	A: 0	X: ff	Y: a5	SP: ff
c7b9	7a5	STA	A: 0	X: ff	Y: a5	SP: ff
c7bb	0	DEY	A: 0	X: ff	Y: a5	SP: ff
c7bc	c7b9	BNE	A: 0	X: ff	Y: a4	SP: ff
c7b9	7a4	STA	A: 0	X: ff	Y: a4	SP: ff
c7bb	0	DEY	A: 0	X: ff	Y: a4	SP: ff
c7bc	c7b9	BNE	A: 0	X: ff	Y: a3	SP: ff
c7b9	7a3	STA	A: 0	X: ff	Y: a3	SP: ff
c7bb	0	DEY	A: 0	X: ff	Y: a3	SP: ff
c7bc	c7b9	BNE	A: 0	X: ff	Y: a2	SP: ff
c7b9	7a2	STA	A: 0	X: ff	Y: a2	SP: ff
c7bb	0	DEY	A: 0	X: ff	Y: a2	SP: ff
c7bc	c7b9	BNE	A: 0	X: ff	Y: a1	SP: ff
c7b9	7a1	STA	A: 0	X: ff	Y: a1	SP: ff
c7bb	0	DEY	A: 0	X: ff	Y: a1	SP: ff
c7bc	c7b9	BNE	A: 0	X: ff	Y: a0	SP: ff
c7b9	7a0	STA	A: 0	X: ff	Y: a0	SP: ff
c7bb	0	DEY	A: 0	X: ff	Y: a0	SP: ff
c7bc	c7b9	BNE	A: 0	X: ff	Y: 9f	SP: ff
c7b9	79f	STA	A: 0	X: ff	Y: 9f	SP: ff
c7bb	0	DEY	A: 0	X: ff	Y: 9f	SP: ff
c7bc	c7b9	BNE	A: 0	X: ff	Y: 9e	SP: ff
c7b9	79e	STA	A: 0	X: ff	Y: 9e	SP: ff
c7bb	0	DEY	A: 0	X: ff	Y: 9e	SP: ff
c7bc	c7b9	BNE	A: 0	X: ff	Y: 9d	SP: ff
c7b9	79d	STA	A: 0	X: ff	Y: 9d	SP: ff
c7bb	0	DEY	A: 0	X: ff	Y: 9d	SP: ff
c7bc	c7b9	BNE	A: 0	X: ff	Y: 9c	SP: ff
c7b9	79c	STA	A: 0	X: ff	Y: 9c	SP: ff
c7bb	0	DEY	A: 0	X: ff	Y: 9c	SP: ff
c7bc	c7b9	BNE	A: 0	X: ff	Y: 9b	SP: ff
c7b9	79b	STA	A: 0	X: ff	Y: 9b	SP: ff
c7bb	0	DEY	A: 0	X: ff	Y: 9b	SP: ff
c7bc	c7b9	BNE	A: 0	X: ff	Y: 9a	SP: ff
c7b9	79a	STA	A: 0	X: ff	Y: 9a	SP: ff
c7bb	0	DEY	A: 0	X: ff	Y: 9a	SP: ff
c7bc	c7b9	BNE	A: 0	X: ff	Y: 99	SP: ff
c7b9	799	STA	A: 0	X: ff	Y: 99	SP: ff
c7bb	0	DEY	A: 0	X: ff	Y: 99	SP: ff
c7bc	c7b9	BNE	A: 0	X: ff	Y: 98	SP: ff
c7b9	798	STA	A: 0	X: ff	Y: 98	SP: ff
c7bb	0	DEY	A: 0	X: ff	Y: 98	SP: ff
c7bc	c7b9	BNE	A: 0	X: ff	Y: 97	SP: ff
c7b9	797	STA	A: 0	X: ff	Y: 97	SP: ff
c7bb	0	DEY	A: 0	X: ff	Y: 97	SP: ff
c7bc	c7b9	BNE	A: 0	X: ff	Y: 96	SP: ff
c7b9	796	STA	A: 0	X: ff	Y: 96	SP: ff
c7bb	0	DEY	A: 0	X: ff	Y: 96	SP: ff
c7bc	c7b9	BNE	A: 0	X: ff	Y: 95	SP: ff
c7b9	795	STA	A: 0	X: ff	Y: 95	SP: ff
c7bb	0	DEY	A: 0	X: ff	Y: 95	SP: ff
c7bc	c7b9	BNE	A: 0	X: ff	Y: 94	SP: ff
c7b9	794	STA	A: 0	X: ff	Y: 94	SP: ff
c7bb	0	DEY	A: 0	X: ff	Y: 94	SP: ff
c7bc	c7b9	BNE	A: 0	X: ff	Y: 93	SP: ff
c7b9	793	STA	A: 0	X: ff	Y: 93	SP: ff
c7bb	0	DEY	A: 0	X: ff	Y: 93	SP: ff
c7bc	c7b9	BNE	A: 0	X: ff	Y: 92	SP: ff
c7b9	792	STA	A: 0	X: ff	Y: 92	SP: ff
c7bb	0	DEY	A: 0	X: ff	Y: 92	SP: ff
c7bc	c7b9	BNE	A: 0	X: ff	Y: 91	SP: ff
c7b9	791	STA	A: 0	X: ff	Y: 91	SP: ff
c7bb	0	DEY	A: 0	X: ff	Y: 91	SP: ff
c7bc	c7b9	BNE	A: 0	X: ff	Y: 90	SP: ff
c7b9	790	STA	A: 0	X: ff	Y: 90	SP: ff
c7bb	0	DEY	A: 0	X: ff	Y: 90	SP: ff
c7bc	c7b9	BNE	A: 0	X: ff	Y: 8f	SP: ff
c7b9	78f	STA	A: 0	X: ff	Y: 8f	SP: ff
c7bb	0	DEY	A: 0	X: ff	Y: 8f	SP: ff
c7bc	c7b9	BNE	A: 0	X: ff	Y: 8e	SP: ff
c7b9	78e	STA	A: 0	X: ff	Y: 8e	SP: ff
c7bb	0	DEY	A: 0	X: ff	Y: 8e	SP: ff
c7bc	c7b9	BNE	A: 0	X: ff	Y: 8d	SP: ff
c7b9	78d	STA	A: 0	X: ff	Y: 8d	SP: ff
c7bb	0	DEY	A: 0	X: ff	Y: 8d	SP: ff
c7bc	c7b9	BNE	A: 0	X: ff	Y: 8c	SP: ff
c7b9	78c	STA	A: 0	X: ff	Y: 8c	SP: ff
c7bb	0	DEY	A: 0	X: ff	Y: 8c	SP: ff
c7bc	c7b9	BNE	A: 0	X: ff	Y: 8b	SP: ff
c7b9	78b	STA	A: 0	X: ff	Y: 8b	SP: ff
c7bb	0	DEY	A: 0	X: ff	Y: 8b	SP: ff
c7bc	c7b9	BNE	A: 0	X: ff	Y: 8a	SP: ff
c7b9	78a	STA	A: 0	X: ff	Y: 8a	SP: ff
c7bb	0	DEY	A: 0	X: ff	Y: 8a	SP: ff
c7bc	c7b9	BNE	A: 0	X: ff	Y: 89	SP: ff
c7b9	789	STA	A: 0	X: ff	Y: 89	SP: ff
c7bb	0	DEY	A: 0	X: ff	Y: 89	SP: ff
c7bc	c7b9	BNE	A: 0	X: ff	Y: 88	SP: ff
c7b9	788	STA	A: 0	X: ff	Y: 88	SP: ff
c7bb	0	DEY	A: 0	X: ff	Y: 88	SP: ff
c7bc	c7b9	BNE	A: 0	X: ff	Y: 87	SP: ff
c7b9	787	STA	A: 0	X: ff	Y: 87	SP: ff
c7bb	0	DEY	A: 0	X: ff	Y: 87	SP: ff
c7bc	c7b9	BNE	A: 0	X: ff	Y: 86	SP: ff
c7b9	786	STA	A: 0	X: ff	Y: 86	SP: ff
c7bb	0	DEY	A: 0	X: ff	Y: 86	SP: ff
c7bc	c7b9	BNE	A: 0	X: ff	Y: 85	SP: ff
c7b9	785	STA	A: 0	X: ff	Y: 85	SP: ff
c7bb	0	DEY	A: 0	X: ff	Y: 85	SP: ff
c7bc	c7b9	BNE	A: 0	X: ff	Y: 84	SP: ff
c7b9	784	STA	A: 0	X: ff	Y: 84	SP: ff
c7bb	0	DEY	A: 0	X: ff	Y: 84	SP: ff
c7bc	c7b9	BNE	A: 0	X: ff	Y: 83	SP: ff
c7b9	783	STA	A: 0	X: ff	Y: 83	SP: ff
c7bb	0	DEY	A: 0	X: ff	Y: 83	SP: ff
c7bc	c7b9	BNE	A: 0	X: ff	Y: 82	SP: ff
c7b9	782	STA	A: 0	X: ff	Y: 82	SP: ff
c7bb	0	DEY	A: 0	X: ff	Y: 82	SP: ff
c7bc	c7b9	BNE	A: 0	X: ff	Y: 81	SP: ff
c7b9	781	STA	A: 0	X: ff	Y: 81	SP: ff
c7bb	0	DEY	A: 0	X: ff	Y: 81	SP: ff
c7bc	c7b9	BNE	A: 0	X: ff	Y: 80	SP: ff
c7b9	780	STA	A: 0	X: ff	Y: 80	SP: ff
c7bb	0	DEY	A: 0	X: ff	Y: 80	SP: ff
c7bc	c7b9	BNE	A: 0	X: ff	Y: 7f	SP: ff
c7b9	77f	STA	A: 0	X: ff	Y: 7f	SP: ff
c7bb	0	DEY	A: 0	X: ff	Y: 7f	SP: ff
c7bc	c7b9	BNE	A: 0	X: ff	Y: 7e	SP: ff
c7b9	77e	STA	A: 0	X: ff	Y: 7e	SP: ff
c7bb	0	DEY	A: 0	X: ff	Y: 7e	SP: ff
c7bc	c7b9	BNE	A: 0	X: ff	Y: 7d	SP: ff
c7b9	77d	STA	A: 0	X: ff	Y: 7d	SP: ff
c7bb	0	DEY	A: 0	X: ff	Y: 7d	SP: ff
c7bc	c7b9	BNE	A: 0	X: ff	Y: 7c	SP: ff
c7b9	77c	STA	A: 0	X: ff	Y: 7c	SP: ff
c7bb	0	DEY	A: 0	X: ff	Y: 7c	SP: ff
c7bc	c7b9	BNE	A: 0	X: ff	Y: 7b	SP: ff
c7b9	77b	STA	A: 0	X: ff	Y: 7b	SP: ff
c7bb	0	DEY	A: 0	X: ff	Y: 7b	SP: ff
c7bc	c7b9	BNE	A: 0	X: ff	Y: 7a	SP: ff
c7b9	77a	STA	A: 0	X: ff	Y: 7a	SP: ff
c7bb	0	DEY	A: 0	X: ff	Y: 7a	SP: ff
c7bc	c7b9	BNE	A: 0	X: ff	Y: 79	SP: ff
c7b9	779	STA	A: 0	X: ff	Y: 79	SP: ff
c7bb	0	DEY	A: 0	X: ff	Y: 79	SP: ff
c7bc	c7b9	BNE	A: 0	X: ff	Y: 78	SP: ff
c7b9	778	STA	A: 0	X: ff	Y: 78	SP: ff
c7bb	0	DEY	A: 0	X: ff	Y: 78	SP: ff
c7bc	c7b9	BNE	A: 0	X: ff	Y: 77	SP: ff
c7b9	777	STA	A: 0	X: ff	Y: 77	SP: ff
c7bb	0	DEY	A: 0	X: ff	Y: 77	SP: ff
c7bc	c7b9	BNE	A: 0	X: ff	Y: 76	SP: ff
c7b9	776	STA	A: 0	X: ff	Y: 76	SP: ff
c7bb	0	DEY	A: 0	X: ff	Y: 76	SP: ff
c7bc	c7b9	BNE	A: 0	X: ff	Y: 75	SP: ff
c7b9	775	STA	A: 0	X: ff	Y: 75	SP: ff
c7bb	0	DEY	A: 0	X: ff	Y: 75	SP: ff
c7bc	c7b9	BNE	A: 0	X: ff	Y: 74	SP: ff
c7b9	774	STA	A: 0	X: ff	Y: 74	SP: ff
c7bb	0	DEY	A: 0	X: ff	Y: 74	SP: ff
c7bc	c7b9	BNE	A: 0	X: ff	Y: 73	SP: ff
c7b9	773	STA	A: 0	X: ff	Y: 73	SP: ff
c7bb	0	DEY	A: 0	X: ff	Y: 73	SP: ff
c7bc	c7b9	BNE	A: 0	X: ff	Y: 72	SP: ff
c7b9	772	STA	A: 0	X: ff	Y: 72	SP: ff
c7bb	0	DEY	A: 0	X: ff	Y: 72	SP: ff
c7bc	c7b9	BNE	A: 0	X: ff	Y: 71	SP: ff
c7b9	771	STA	A: 0	X: ff	Y: 71	SP: ff
c7bb	0	DEY	A: 0	X: ff	Y: 71	SP: ff
c7bc	c7b9	BNE	A: 0	X: ff	Y: 70	SP: ff
c7b9	770	STA	A: 0	X: ff	Y: 70	SP: ff
c7bb	0	DEY	A: 0	X: ff	Y: 70	SP: ff
c7bc	c7b9	BNE	A: 0	X: ff	Y: 6f	SP: ff
c7b9	76f	STA	A: 0	X: ff	Y: 6f	SP: ff
c7bb	0	DEY	A: 0	X: ff	Y: 6f	SP: ff
c7bc	c7b9	BNE	A: 0	X: ff	Y: 6e	SP: ff
c7b9	76e	STA	A: 0	X: ff	Y: 6e	SP: ff
c7bb	0	DEY	A: 0	X: ff	Y: 6e	SP: ff
c7bc	c7b9	BNE	A: 0	X: ff	Y: 6d	SP: ff
c7b9	76d	STA	A: 0	X: ff	Y: 6d	SP: ff
c7bb	0	DEY	A: 0	X: ff	Y: 6d	SP: ff
c7bc	c7b9	BNE	A: 0	X: ff	Y: 6c	SP: ff
c7b9	76c	STA	A: 0	X: ff	Y: 6c	SP: ff
c7bb	0	DEY	A: 0	X: ff	Y: 6c	SP: ff
c7bc	c7b9	BNE	A: 0	X: ff	Y: 6b	SP: ff
c7b9	76b	STA	A: 0	X: ff	Y: 6b	SP: ff
c7bb	0	DEY	A: 0	X: ff	Y: 6b	SP: ff
c7bc	c7b9	BNE	A: 0	X: ff	Y: 6a	SP: ff
c7b9	76a	STA	A: 0	X: ff	Y: 6a	SP: ff
c7bb	0	DEY	A: 0	X: ff	Y: 6a	SP: ff
c7bc	c7b9	BNE	A: 0	X: ff	Y: 69	SP: ff
c7b9	769	STA	A: 0	X: ff	Y: 69	SP: ff
c7bb	0	DEY	A: 0	X: ff	Y: 69	SP: ff
c7bc	c7b9	BNE	A: 0	X: ff	Y: 68	SP: ff
c7b9	768	STA	A: 0	X: ff	Y: 68	SP: ff
c7bb	0	DEY	A: 0	X: ff	Y: 68	SP: ff
c7bc	c7b9	BNE	A: 0	X: ff	Y: 67	SP: ff
c7b9	767	STA	A: 0	X: ff	Y: 67	SP: ff
c7bb	0	DEY	A: 0	X: ff	Y: 67	SP: ff
c7bc	c7b9	BNE	A: 0	X: ff	Y: 66	SP: ff
c7b9	766	STA	A: 0	X: ff	Y: 66	SP: ff
c7bb	0	DEY	A: 0	X: ff	Y: 66	SP: ff
c7bc	c7b9	BNE	A: 0	X: ff	Y: 65	SP: ff
c7b9	765	STA	A: 0	X: ff	Y: 65	SP: ff
c7bb	0	DEY	A: 0	X: ff	Y: 65	SP: ff
c7bc	c7b9	BNE	A: 0	X: ff	Y: 64	SP: ff
c7b9	764	STA	A: 0	X: ff	Y: 64	SP: ff
c7bb	0	DEY	A: 0	X: ff	Y: 64	SP: ff
c7bc	c7b9	BNE	A: 0	X: ff	Y: 63	SP: ff
c7b9	763	STA	A: 0	X: ff	Y: 63	SP: ff
c7bb	0	DEY	A: 0	X: ff	Y: 63	SP: ff
c7bc	c7b9	BNE	A: 0	X: ff	Y: 62	SP: ff
c7b9	762	STA	A: 0	X: ff	Y: 62	SP: ff
c7bb	0	DEY	A: 0	X: ff	Y: 62	SP: ff
c7bc	c7b9	BNE	A: 0	X: ff	Y: 61	SP: ff
c7b9	761	STA	A: 0	X: ff	Y: 61	SP: ff
c7bb	0	DEY	A: 0	X: ff	Y: 61	SP: ff
c7bc	c7b9	BNE	A: 0	X: ff	Y: 60	SP: ff
c7b9	760	STA	A: 0	X: ff	Y: 60	SP: ff
c7bb	0	DEY	A: 0	X: ff	Y: 60	SP: ff
c7bc	c7b9	BNE	A: 0	X: ff	Y: 5f	SP: ff
c7b9	75f	STA	A: 0	X: ff	Y: 5f	SP: ff
c7bb	0	DEY	A: 0	X: ff	Y: 5f	SP: ff
c7bc	c7b9	BNE	A: 0	X: ff	Y: 5e	SP: ff
c7b9	75e	STA	A: 0	X: ff	Y: 5e	SP: ff
c7bb	0	DEY	A: 0	X: ff	Y: 5e	SP: ff
c7bc	c7b9	BNE	A: 0	X: ff	Y: 5d	SP: ff
c7b9	75d	STA	A: 0	X: ff	Y: 5d	SP: ff
c7bb	0	DEY	A: 0	X: ff	Y: 5d	SP: ff
c7bc	c7b9	BNE	A: 0	X: ff	Y: 5c	SP: ff
c7b9	75c	STA	A: 0	X: ff	Y: 5c	SP: ff
c7bb	0	DEY	A: 0	X: ff	Y: 5c	SP: ff
c7bc	c7b9	BNE	A: 0	X: ff	Y: 5b	SP: ff
c7b9	75b	STA	A: 0	X: ff	Y: 5b	SP: ff
c7bb	0	DEY	A: 0	X: ff	Y: 5b	SP: ff
c7bc	c7b9	BNE	A: 0	X: ff	Y: 5a	SP: ff
c7b9	75a	STA	A: 0	X: ff	Y: 5a	SP: ff
c7bb	0	DEY	A: 0	X: ff	Y: 5a	SP: ff
c7bc	c7b9	BNE	A: 0	X: ff	Y: 59	SP: ff
c7b9	759	STA	A: 0	X: ff	Y: 59	SP: ff
c7bb	0	DEY	A: 0	X: ff	Y: 59	SP: ff
c7bc	c7b9	BNE	A: 0	X: ff	Y: 58	SP: ff
c7b9	758	STA	A: 0	X: ff	Y: 58	SP: ff
c7bb	0	DEY	A: 0	X: ff	Y: 58	SP: ff
c7bc	c7b9	BNE	A: 0	X: ff	Y: 57	SP: ff
c7b9	757	STA	A: 0	X: ff	Y: 57	SP: ff
c7bb	0	DEY	A: 0	X: ff	Y: 57	SP: ff
c7bc	c7b9	BNE	A: 0	X: ff	Y: 56	SP: ff
c7b9	756	STA	A: 0	X: ff	Y: 56	SP: ff
c7bb	0	DEY	A: 0	X: ff	Y: 56	SP: ff
c7bc	c7b9	BNE	A: 0	X: ff	Y: 55	SP: ff
c7b9	755	STA	A: 0	X: ff	Y: 55	SP: ff
c7bb	0	DEY	A: 0	X: ff	Y: 55	SP: ff
c7bc	c7b9	BNE	A: 0	X: ff	Y: 54	SP: ff
c7b9	754	STA	A: 0	X: ff	Y: 54	SP: ff
c7bb	0	DEY	A: 0	X: ff	Y: 54	SP: ff
c7bc	c7b9	BNE	A: 0	X: ff	Y: 53	SP: ff
c7b9	753	STA	A: 0	X: ff	Y: 53	SP: ff
c7bb	0	DEY	A: 0	X: ff	Y: 53	SP: ff
c7bc	c7b9	BNE	A: 0	X: ff	Y: 52	SP: ff
c7b9	752	STA	A: 0	X: ff	Y: 52	SP: ff
c7bb	0	DEY	A: 0	X: ff	Y: 52	SP: ff
c7bc	c7b9	BNE	A: 0	X: ff	Y: 51	SP: ff
c7b9	751	STA	A: 0	X: ff	Y: 51	SP: ff
c7bb	0	DEY	A: 0	X: ff	Y: 51	SP: ff
c7bc	c7b9	BNE	A: 0	X: ff	Y: 50	SP: ff
c7b9	750	STA	A: 0	X: ff	Y: 50	SP: ff
c7bb	0	DEY	A: 0	X: ff	Y: 50	SP: ff
c7bc	c7b9	BNE	A: 0	X: ff	Y: 4f	SP: ff
c7b9	74f	STA	A: 0	X: ff	Y: 4f	SP: ff
c7bb	0	DEY	A: 0	X: ff	Y: 4f	SP: ff
c7bc	c7b9	BNE	A: 0	X: ff	Y: 4e	SP: ff
c7b9	74e	STA	A: 0	X: ff	Y: 4e	SP: ff
c7bb	0	DEY	A: 0	X: ff	Y: 4e	SP: ff
c7bc	c7b9	BNE	A: 0	X: ff	Y: 4d	SP: ff
c7b9	74d	STA	A: 0	X: ff	Y: 4d	SP: ff
c7bb	0	DEY	A: 0	X: ff	Y: 4d	SP: ff
c7bc	c7b9	BNE	A: 0	X: ff	Y: 4c	SP: ff
c7b9	74c	STA	A: 0	X: ff	Y: 4c	SP: ff
c7bb	0	DEY	A: 0	X: ff	Y: 4c	SP: ff
c7bc	c7b9	BNE	A: 0	X: ff	Y: 4b	SP: ff
c7b9	74b	STA	A: 0	X: ff	Y: 4b	SP: ff
c7bb	0	DEY	A: 0	X: ff	Y: 4b	SP: ff
c7bc	c7b9	BNE	A: 0	X: ff	Y: 4a	SP: ff
c7b9	74a	STA	A: 0	X: ff	Y: 4a	SP: ff
c7bb	0	DEY	A: 0	X: ff	Y: 4a	SP: ff
c7bc	c7b9	BNE	A: 0	X: ff	Y: 49	SP: ff
c7b9	749	STA	A: 0	X: ff	Y: 49	SP: ff
c7bb	0	DEY	A: 0	X: ff	Y: 49	SP: ff
c7bc	c7b9	BNE	A: 0	X: ff	Y: 48	SP: ff
c7b9	748	STA	A: 0	X: ff	Y: 48	SP: ff
c7bb	0	DEY	A: 0	X: ff	Y: 48	SP: ff
c7bc	c7b9	BNE	A: 0	X: ff	Y: 47	SP: ff
c7b9	747	STA	A: 0	X: ff	Y: 47	SP: ff
c7bb	0	DEY	A: 0	X: ff	Y: 47	SP: ff
c7bc	c7b9	BNE	A: 0	X: ff	Y: 46	SP: ff
c7b9	746	STA	A: 0	X: ff	Y: 46	SP: ff
c7bb	0	DEY	A: 0	X: ff	Y: 46	SP: ff
c7bc	c7b9	BNE	A: 0	X: ff	Y: 45	SP: ff
c7b9	745	STA	A: 0	X: ff	Y: 45	SP: ff
c7bb	0	DEY	A: 0	X: ff	Y: 45	SP: ff
c7bc	c7b9	BNE	A: 0	X: ff	Y: 44	SP: ff
c7b9	744	STA	A: 0	X: ff	Y: 44	SP: ff
c7bb	0	DEY	A: 0	X: ff	Y: 44	SP: ff
c7bc	c7b9	BNE	A: 0	X: ff	Y: 43	SP: ff
c7b9	743	STA	A: 0	X: ff	Y: 43	SP: ff
c7bb	0	DEY	A: 0	X: ff	Y: 43	SP: ff
c7bc	c7b9	BNE	A: 0	X: ff	Y: 42	SP: ff
c7b9	742	STA	A: 0	X: ff	Y: 42	SP: ff
c7bb	0	DEY	A: 0	X: ff	Y: 42	SP: ff
c7bc	c7b9	BNE	A: 0	X: ff	Y: 41	SP: ff
c7b9	741	STA	A: 0	X: ff	Y: 41	SP: ff
c7bb	0	DEY	A: 0	X: ff	Y: 41	SP: ff
c7bc	c7b9	BNE	A: 0	X: ff	Y: 40	SP: ff
c7b9	740	STA	A: 0	X: ff	Y: 40	SP: ff
c7bb	0	DEY	A: 0	X: ff	Y: 40	SP: ff
c7bc	c7b9	BNE	A: 0	X: ff	Y: 3f	SP: ff
c7b9	73f	STA	A: 0	X: ff	Y: 3f	SP: ff
c7bb	0	DEY	A: 0	X: ff	Y: 3f	SP: ff
c7bc	c7b9	BNE	A: 0	X: ff	Y: 3e	SP: ff
c7b9	73e	STA	A: 0	X: ff	Y: 3e	SP: ff
c7bb	0	DEY	A: 0	X: ff	Y: 3e	SP: ff
c7bc	c7b9	BNE	A: 0	X: ff	Y: 3d	SP: ff
c7b9	73d	STA	A: 0	X: ff	Y: 3d	SP: ff
c7bb	0	DEY	A: 0	X: ff	Y: 3d	SP: ff
c7bc	c7b9	BNE	A: 0	X: ff	Y: 3c	SP: ff
c7b9	73c	STA	A: 0	X: ff	Y: 3c	SP: ff
c7bb	0	DEY	A: 0	X: ff	Y: 3c	SP: ff
c7bc	c7b9	BNE	A: 0	X: ff	Y: 3b	SP: ff
c7b9	73b	STA	A: 0	X: ff	Y: 3b	SP: ff
c7bb	0	DEY	A: 0	X: ff	Y: 3b	SP: ff
c7bc	c7b9	BNE	A: 0	X: ff	Y: 3a	SP: ff
c7b9	73a	STA	A: 0	X: ff	Y: 3a	SP: ff
c7bb	0	DEY	A: 0	X: ff	Y: 3a	SP: ff
c7bc	c7b9	BNE	A: 0	X: ff	Y: 39	SP: ff
c7b9	739	STA	A: 0	X: ff	Y: 39	SP: ff
c7bb	0	DEY	A: 0	X: ff	Y: 39	SP: ff
c7bc	c7b9	BNE	A: 0	X: ff	Y: 38	SP: ff
c7b9	738	STA	A: 0	X: ff	Y: 38	SP: ff
c7bb	0	DEY	A: 0	X: ff	Y: 38	SP: ff
c7bc	c7b9	BNE	A: 0	X: ff	Y: 37	SP: ff
c7b9	737	STA	A: 0	X: ff	Y: 37	SP: ff
c7bb	0	DEY	A: 0	X: ff	Y: 37	SP: ff
c7bc	c7b9	BNE	A: 0	X: ff	Y: 36	SP: ff
c7b9	736	STA	A: 0	X: ff	Y: 36	SP: ff
c7bb	0	DEY	A: 0	X: ff	Y: 36	SP: ff
c7bc	c7b9	BNE	A: 0	X: ff	Y: 35	SP: ff
c7b9	735	STA	A: 0	X: ff	Y: 35	SP: ff
c7bb	0	DEY	A: 0	X: ff	Y: 35	SP: ff
c7bc	c7b9	BNE	A: 0	X: ff	Y: 34	SP: ff
c7b9	734	STA	A: 0	X: ff	Y: 34	SP: ff
c7bb	0	DEY	A: 0	X: ff	Y: 34	SP: ff
c7bc	c7b9	BNE	A: 0	X: ff	Y: 33	SP: ff
c7b9	733	STA	A: 0	X: ff	Y: 33	SP: ff
c7bb	0	DEY	A: 0	X: ff	Y: 33	SP: ff
c7bc	c7b9	BNE	A: 0	X: ff	Y: 32	SP: ff
c7b9	732	STA	A: 0	X: ff	Y: 32	SP: ff
c7bb	0	DEY	A: 0	X: ff	Y: 32	SP: ff
c7bc	c7b9	BNE	A: 0	X: ff	Y: 31	SP: ff
c7b9	731	STA	A: 0	X: ff	Y: 31	SP: ff
c7bb	0	DEY	A: 0	X: ff	Y: 31	SP: ff
c7bc	c7b9	BNE	A: 0	X: ff	Y: 30	SP: ff
c7b9	730	STA	A: 0	X: ff	Y: 30	SP: ff
c7bb	0	DEY	A: 0	X: ff	Y: 30	SP: ff
c7bc	c7b9	BNE	A: 0	X: ff	Y: 2f	SP: ff
c7b9	72f	STA	A: 0	X: ff	Y: 2f	SP: ff
c7bb	0	DEY	A: 0	X: ff	Y: 2f	SP: ff
c7bc	c7b9	BNE	A: 0	X: ff	Y: 2e	SP: ff
c7b9	72e	STA	A: 0	X: ff	Y: 2e	SP: ff
c7bb	0	DEY	A: 0	X: ff	Y: 2e	SP: ff
c7bc	c7b9	BNE	A: 0	X: ff	Y: 2d	SP: ff
c7b9	72d	STA	A: 0	X: ff	Y: 2d	SP: ff
c7bb	0	DEY	A: 0	X: ff	Y: 2d	SP: ff
c7bc	c7b9	BNE	A: 0	X: ff	Y: 2c	SP: ff
c7b9	72c	STA	A: 0	X: ff	Y: 2c	SP: ff
c7bb	0	DEY	A: 0	X: ff	Y: 2c	SP: ff
c7bc	c7b9	BNE	A: 0	X: ff	Y: 2b	SP: ff
c7b9	72b	STA	A: 0	X: ff	Y: 2b	SP: ff
c7bb	0	DEY	A: 0	X: ff	Y: 2b	SP: ff
c7bc	c7b9	BNE	A: 0	X: ff	Y: 2a	SP: ff
c7b9	72a	STA	A: 0	X: ff	Y: 2a	SP: ff
c7bb	0	DEY	A: 0	X: ff	Y: 2a	SP: ff
c7bc	c7b9	BNE	A: 0	X: ff	Y: 29	SP: ff
c7b9	729	STA	A: 0	X: ff	Y: 29	SP: ff
c7bb	0	DEY	A: 0	X: ff	Y: 29	SP: ff
c7bc	c7b9	BNE	A: 0	X: ff	Y: 28	SP: ff
c7b9	728	STA	A: 0	X: ff	Y: 28	SP: ff
c7bb	0	DEY	A: 0	X: ff	Y: 28	SP: ff
c7bc	c7b9	BNE	A: 0	X: ff	Y: 27	SP: ff
c7b9	727	STA	A: 0	X: ff	Y: 27	SP: ff
c7bb	0	DEY	A: 0	X: ff	Y: 27	SP: ff
c7bc	c7b9	BNE	A: 0	X: ff	Y: 26	SP: ff
c7b9	726	STA	A: 0	X: ff	Y: 26	SP: ff
c7bb	0	DEY	A: 0	X: ff	Y: 26	SP: ff
c7bc	c7b9	BNE	A: 0	X: ff	Y: 25	SP: ff
c7b9	725	STA	A: 0	X: ff	Y: 25	SP: ff
c7bb	0	DEY	A: 0	X: ff	Y: 25	SP: ff
c7bc	c7b9	BNE	A: 0	X: ff	Y: 24	SP: ff
c7b9	724	STA	A: 0	X: ff	Y: 24	SP: ff
c7bb	0	DEY	A: 0	X: ff	Y: 24	SP: ff
c7bc	c7b9	BNE	A: 0	X: ff	Y: 23	SP: ff
c7b9	723	STA	A: 0	X: ff	Y: 23	SP: ff
c7bb	0	DEY	A: 0	X: ff	Y: 23	SP: ff
c7bc	c7b9	BNE	A: 0	X: ff	Y: 22	SP: ff
c7b9	722	STA	A: 0	X: ff	Y: 22	SP: ff
c7bb	0	DEY	A: 0	X: ff	Y: 22	SP: ff
c7bc	c7b9	BNE	A: 0	X: ff	Y: 21	SP: ff
c7b9	721	STA	A: 0	X: ff	Y: 21	SP: ff
c7bb	0	DEY	A: 0	X: ff	Y: 21	SP: ff
c7bc	c7b9	BNE	A: 0	X: ff	Y: 20	SP: ff
c7b9	720	STA	A: 0	X: ff	Y: 20	SP: ff
c7bb	0	DEY	A: 0	X: ff	Y: 20	SP: ff
c7bc	c7b9	BNE	A: 0	X: ff	Y: 1f	SP: ff
c7b9	71f	STA	A: 0	X: ff	Y: 1f	SP: ff
c7bb	0	DEY	A: 0	X: ff	Y: 1f	SP: ff
c7bc	c7b9	BNE	A: 0	X: ff	Y: 1e	SP: ff
c7b9	71e	STA	A: 0	X: ff	Y: 1e	SP: ff
c7bb	0	DEY	A: 0	X: ff	Y: 1e	SP: ff
c7bc	c7b9	BNE	A: 0	X: ff	Y: 1d	SP: ff
c7b9	71d	STA	A: 0	X: ff	Y: 1d	SP: ff
c7bb	0	DEY	A: 0	X: ff	Y: 1d	SP: ff
c7bc	c7b9	BNE	A: 0	X: ff	Y: 1c	SP: ff
c7b9	71c	STA	A: 0	X: ff	Y: 1c	SP: ff
c7bb	0	DEY	A: 0	X: ff	Y: 1c	SP: ff
c7bc	c7b9	BNE	A: 0	X: ff	Y: 1b	SP: ff
c7b9	71b	STA	A: 0	X: ff	Y: 1b	SP: ff
c7bb	0	DEY	A: 0	X: ff	Y: 1b	SP: ff
c7bc	c7b9	BNE	A: 0	X: ff	Y: 1a	SP: ff
c7b9	71a	STA	A: 0	X: ff	Y: 1a	SP: ff
c7bb	0	DEY	A: 0	X: ff	Y: 1a	SP: ff
c7bc	c7b9	BNE	A: 0	X: ff	Y: 19	SP: ff
c7b9	719	STA	A: 0	X: ff	Y: 19	SP: ff
c7bb	0	DEY	A: 0	X: ff	Y: 19	SP: ff
c7bc	c7b9	BNE	A: 0	X: ff	Y: 18	SP: ff
c7b9	718	STA	A: 0	X: ff	Y: 18	SP: ff
c7bb	0	DEY	A: 0	X: ff	Y: 18	SP: ff
c7bc	c7b9	BNE	A: 0	X: ff	Y: 17	SP: ff
c7b9	717	STA	A: 0	X: ff	Y: 17	SP: ff
c7bb	0	DEY	A: 0	X: ff	Y: 17	SP: ff
c7bc	c7b9	BNE	A: 0	X: ff	Y: 16	SP: ff
c7b9	716	STA	A: 0	X: ff	Y: 16	SP: ff
c7bb	0	DEY	A: 0	X: ff	Y: 16	SP: ff
c7bc	c7b9	BNE	A: 0	X: ff	Y: 15	SP: ff
c7b9	715	STA	A: 0	X: ff	Y: 15	SP: ff
c7bb	0	DEY	A: 0	X: ff	Y: 15	SP: ff
c7bc	c7b9	BNE	A: 0	X: ff	Y: 14	SP: ff
c7b9	714	STA	A: 0	X: ff	Y: 14	SP: ff
c7bb	0	DEY	A: 0	X: ff	Y: 14	SP: ff
c7bc	c7b9	BNE	A: 0	X: ff	Y: 13	SP: ff
c7b9	713	STA	A: 0	X: ff	Y: 13	SP: ff
c7bb	0	DEY	A: 0	X: ff	Y: 13	SP: ff
c7bc	c7b9	BNE	A: 0	X: ff	Y: 12	SP: ff
c7b9	712	STA	A: 0	X: ff	Y: 12	SP: ff
c7bb	0	DEY	A: 0	X: ff	Y: 12	SP: ff
c7bc	c7b9	BNE	A: 0	X: ff	Y: 11	SP: ff
c7b9	711	STA	A: 0	X: ff	Y: 11	SP: ff
c7bb	0	DEY	A: 0	X: ff	Y: 11	SP: ff
c7bc	c7b9	BNE	A: 0	X: ff	Y: 10	SP: ff
c7b9	710	STA	A: 0	X: ff	Y: 10	SP: ff
c7bb	0	DEY	A: 0	X: ff	Y: 10	SP: ff
c7bc	c7b9	BNE	A: 0	X: ff	Y: f	SP: ff
c7b9	70f	STA	A: 0	X: ff	Y: f	SP: ff
c7bb	0	DEY	A: 0	X: ff	Y: f	SP: ff
c7bc	c7b9	BNE	A: 0	X: ff	Y: e	SP: ff
c7b9	70e	STA	A: 0	X: ff	Y: e	SP: ff
c7bb	0	DEY	A: 0	X: ff	Y: e	SP: ff
c7bc	c7b9	BNE	A: 0	X: ff	Y: d	SP: ff
c7b9	70d	STA	A: 0	X: ff	Y: d	SP: ff
c7bb	0	DEY	A: 0	X: ff	Y: d	SP: ff
c7bc	c7b9	BNE	A: 0	X: ff	Y: c	SP: ff
c7b9	70c	STA	A: 0	X: ff	Y: c	SP: ff
c7bb	0	DEY	A: 0	X: ff	Y: c	SP: ff
c7bc	c7b9	BNE	A: 0	X: ff	Y: b	SP: ff
c7b9	70b	STA	A: 0	X: ff	Y: b	SP: ff
c7bb	0	DEY	A: 0	X: ff	Y: b	SP: ff
c7bc	c7b9	BNE	A: 0	X: ff	Y: a	SP: ff
c7b9	70a	STA	A: 0	X: ff	Y: a	SP: ff
c7bb	0	DEY	A: 0	X: ff	Y: a	SP: ff
c7bc	c7b9	BNE	A: 0	X: ff	Y: 9	SP: ff
c7b9	709	STA	A: 0	X: ff	Y: 9	SP: ff
c7bb	0	DEY	A: 0	X: ff	Y: 9	SP: ff
c7bc	c7b9	BNE	A: 0	X: ff	Y: 8	SP: ff
c7b9	708	STA	A: 0	X: ff	Y: 8	SP: ff
c7bb	0	DEY	A: 0	X: ff	Y: 8	SP: ff
c7bc	c7b9	BNE	A: 0	X: ff	Y: 7	SP: ff
c7b9	707	STA	A: 0	X: ff	Y: 7	SP: ff
c7bb	0	DEY	A: 0	X: ff	Y: 7	SP: ff
c7bc	c7b9	BNE	A: 0	X: ff	Y: 6	SP: ff
c7b9	706	STA	A: 0	X: ff	Y: 6	SP: ff
c7bb	0	DEY	A: 0	X: ff	Y: 6	SP: ff
c7bc	c7b9	BNE	A: 0	X: ff	Y: 5	SP: ff
c7b9	705	STA	A: 0	X: ff	Y: 5	SP: ff
c7bb	0	DEY	A: 0	X: ff	Y: 5	SP: ff
c7bc	c7b9	BNE	A: 0	X: ff	Y: 4	SP: ff
c7b9	704	STA	A: 0	X: ff	Y: 4	SP: ff
c7bb	0	DEY	A: 0	X: ff	Y: 4	SP: ff
c7bc	c7b9	BNE	A: 0	X: ff	Y: 3	SP: ff
c7b9	703	STA	A: 0	X: ff	Y: 3	SP: ff
c7bb	0	DEY	A: 0	X: ff	Y: 3	SP: ff
c7bc	c7b9	BNE	A: 0	X: ff	Y: 2	SP: ff
c7b9	702	STA	A: 0	X: ff	Y: 2	SP: ff
c7bb	0	DEY	A: 0	X: ff	Y: 2	SP: ff
c7bc	c7b9	BNE	A: 0	X: ff	Y: 1	SP: ff
c7b9	701	STA	A: 0	X: ff	Y: 1	SP: ff
c7bb	0	DEY	A: 0	X: ff	Y: 1	SP: ff
c7bc	c7b9	BNE	A: 0	X: ff	Y: 0	SP: ff
c7be	1	DEC	A: 0	X: ff	Y: 0	SP: ff
c7c0	c7b9	BPL	A: 0	X: ff	Y: 0	SP: ff
c7b9	600	STA	A: 0	X: ff	Y: 0	SP: ff
c7bb	0	DEY	A: 0	X: ff	Y: 0	SP: ff
c7bc	c7b9	BNE	A: 0	X: ff	Y: ff	SP: ff
c7b9	6ff	STA	A: 0	X: ff	Y: ff	SP: ff
c7bb	0	DEY	A: 0	X: ff	Y: ff	SP: ff
c7bc	c7b9	BNE	A: 0	X: ff	Y: fe	SP: ff
c7b9	6fe	STA	A: 0	X: ff	Y: fe	SP: ff
c7bb	0	DEY	A: 0	X: ff	Y: fe	SP: ff
c7bc	c7b9	BNE	A: 0	X: ff	Y: fd	SP: ff
c7b9	6fd	STA	A: 0	X: ff	Y: fd	SP: ff
c7bb	0	DEY	A: 0	X: ff	Y: fd	SP: ff
c7bc	c7b9	BNE	A: 0	X: ff	Y: fc	SP: ff
c7b9	6fc	STA	A: 0	X: ff	Y: fc	SP: ff
c7bb	0	DEY	A: 0	X: ff	Y: fc	SP: ff
c7bc	c7b9	BNE	A: 0	X: ff	Y: fb	SP: ff
c7b9	6fb	STA	A: 0	X: ff	Y: fb	SP: ff
c7bb	0	DEY	A: 0	X: ff	Y: fb	SP: ff
c7bc	c7b9	BNE	A: 0	X: ff	Y: fa	SP: ff
c7b9	6fa	STA	A: 0	X: ff	Y: fa	SP: ff
c7bb	0	DEY	A: 0	X: ff	Y: fa	SP: ff
c7bc	c7b9	BNE	A: 0	X: ff	Y: f9	SP: ff
c7b9	6f9	STA	A: 0	X: ff	Y: f9	SP: ff
c7bb	0	DEY	A: 0	X: ff	Y: f9	SP: ff
c7bc	c7b9	BNE	A: 0	X: ff	Y: f8	SP: ff
c7b9	6f8	STA	A: 0	X: ff	Y: f8	SP: ff
c7bb	0	DEY	A: 0	X: ff	Y: f8	SP: ff
c7bc	c7b9	BNE	A: 0	X: ff	Y: f7	SP: ff
c7b9	6f7	STA	A: 0	X: ff	Y: f7	SP: ff
c7bb	0	DEY	A: 0	X: ff	Y: f7	SP: ff
c7bc	c7b9	BNE	A: 0	X: ff	Y: f6	SP: ff
c7b9	6f6	STA	A: 0	X: ff	Y: f6	SP: ff
c7bb	0	DEY	A: 0	X: ff	Y: f6	SP: ff
c7bc	c7b9	BNE	A: 0	X: ff	Y: f5	SP: ff
c7b9	6f5	STA	A: 0	X: ff	Y: f5	SP: ff
c7bb	0	DEY	A: 0	X: ff	Y: f5	SP: ff
c7bc	c7b9	BNE	A: 0	X: ff	Y: f4	SP: ff
c7b9	6f4	STA	A: 0	X: ff	Y: f4	SP: ff
c7bb	0	DEY	A: 0	X: ff	Y: f4	SP: ff
c7bc	c7b9	BNE	A: 0	X: ff	Y: f3	SP: ff
c7b9	6f3	STA	A: 0	X: ff	Y: f3	SP: ff
c7bb	0	DEY	A: 0	X: ff	Y: f3	SP: ff
c7bc	c7b9	BNE	A: 0	X: ff	Y: f2	SP: ff
c7b9	6f2	STA	A: 0	X: ff	Y: f2	SP: ff
c7bb	0	DEY	A: 0	X: ff	Y: f2	SP: ff
c7bc	c7b9	BNE	A: 0	X: ff	Y: f1	SP: ff
c7b9	6f1	STA	A: 0	X: ff	Y: f1	SP: ff
c7bb	0	DEY	A: 0	X: ff	Y: f1	SP: ff
c7bc	c7b9	BNE	A: 0	X: ff	Y: f0	SP: ff
c7b9	6f0	STA	A: 0	X: ff	Y: f0	SP: ff
c7bb	0	DEY	A: 0	X: ff	Y: f0	SP: ff
c7bc	c7b9	BNE	A: 0	X: ff	Y: ef	SP: ff
c7b9	6ef	STA	A: 0	X: ff	Y: ef	SP: ff
c7bb	0	DEY	A: 0	X: ff	Y: ef	SP: ff
c7bc	c7b9	BNE	A: 0	X: ff	Y: ee	SP: ff
c7b9	6ee	STA	A: 0	X: ff	Y: ee	SP: ff
c7bb	0	DEY	A: 0	X: ff	Y: ee	SP: ff
c7bc	c7b9	BNE	A: 0	X: ff	Y: ed	SP: ff
c7b9	6ed	STA	A: 0	X: ff	Y: ed	SP: ff
c7bb	0	DEY	A: 0	X: ff	Y: ed	SP: ff
c7bc	c7b9	BNE	A: 0	X: ff	Y: ec	SP: ff
c7b9	6ec	STA	A: 0	X: ff	Y: ec	SP: ff
c7bb	0	DEY	A: 0	X: ff	Y: ec	SP: ff
c7bc	c7b9	BNE	A: 0	X: ff	Y: eb	SP: ff
c7b9	6eb	STA	A: 0	X: ff	Y: eb	SP: ff
c7bb	0	DEY	A: 0	X: ff	Y: eb	SP: ff
c7bc	c7b9	BNE	A: 0	X: ff	Y: ea	SP: ff
c7b9	6ea	STA	A: 0	X: ff	Y: ea	SP: ff
c7bb	0	DEY	A: 0	X: ff	Y: ea	SP: ff
c7bc	c7b9	BNE	A: 0	X: ff	Y: e9	SP: ff
c7b9	6e9	STA	A: 0	X: ff	Y: e9	SP: ff
c7bb	0	DEY	A: 0	X: ff	Y: e9	SP: ff
c7bc	c7b9	BNE	A: 0	X: ff	Y: e8	SP: ff
c7b9	6e8	STA	A: 0	X: ff	Y: e8	SP: ff
c7bb	0	DEY	A: 0	X: ff	Y: e8	SP: ff
c7bc	c7b9	BNE	A: 0	X: ff	Y: e7	SP: ff
c7b9	6e7	STA	A: 0	X: ff	Y: e7	SP: ff
c7bb	0	DEY	A: 0	X: ff	Y: e7	SP: ff
c7bc	c7b9	BNE	A: 0	X: ff	Y: e6	SP: ff
c7b9	6e6	STA	A: 0	X: ff	Y: e6	SP: ff
c7bb	0	DEY	A: 0	X: ff	Y: e6	SP: ff
c7bc	c7b9	BNE	A: 0	X: ff	Y: e5	SP: ff
c7b9	6e5	STA	A: 0	X: ff	Y: e5	SP: ff
c7bb	0	DEY	A: 0	X: ff	Y: e5	SP: ff
c7bc	c7b9	BNE	A: 0	X: ff	Y: e4	SP: ff
c7b9	6e4	STA	A: 0	X: ff	Y: e4	SP: ff
c7bb	0	DEY	A: 0	X: ff	Y: e4	SP: ff
c7bc	c7b9	BNE	A: 0	X: ff	Y: e3	SP: ff
c7b9	6e3	STA	A: 0	X: ff	Y: e3	SP: ff
c7bb	0	DEY	A: 0	X: ff	Y: e3	SP: ff
c7bc	c7b9	BNE	A: 0	X: ff	Y: e2	SP: ff
c7b9	6e2	STA	A: 0	X: ff	Y: e2	SP: ff
c7bb	0	DEY	A: 0	X: ff	Y: e2	SP: ff
c7bc	c7b9	BNE	A: 0	X: ff	Y: e1	SP: ff
c7b9	6e1	STA	A: 0	X: ff	Y: e1	SP: ff
c7bb	0	DEY	A: 0	X: ff	Y: e1	SP: ff
c7bc	c7b9	BNE	A: 0	X: ff	Y: e0	SP: ff
c7b9	6e0	STA	A: 0	X: ff	Y: e0	SP: ff
c7bb	0	DEY	A: 0	X: ff	Y: e0	SP: ff
c7bc	c7b9	BNE	A: 0	X: ff	Y: df	SP: ff
c7b9	6df	STA	A: 0	X: ff	Y: df	SP: ff
c7bb	0	DEY	A: 0	X: ff	Y: df	SP: ff
c7bc	c7b9	BNE	A: 0	X: ff	Y: de	SP: ff
c7b9	6de	STA	A: 0	X: ff	Y: de	SP: ff
c7bb	0	DEY	A: 0	X: ff	Y: de	SP: ff
c7bc	c7b9	BNE	A: 0	X: ff	Y: dd	SP: ff
c7b9	6dd	STA	A: 0	X: ff	Y: dd	SP: ff
c7bb	0	DEY	A: 0	X: ff	Y: dd	SP: ff
c7bc	c7b9	BNE	A: 0	X: ff	Y: dc	SP: ff
c7b9	6dc	STA	A: 0	X: ff	Y: dc	SP: ff
c7bb	0	DEY	A: 0	X: ff	Y: dc	SP: ff
c7bc	c7b9	BNE	A: 0	X: ff	Y: db	SP: ff
c7b9	6db	STA	A: 0	X: ff	Y: db	SP: ff
c7bb	0	DEY	A: 0	X: ff	Y: db	SP: ff
c7bc	c7b9	BNE	A: 0	X: ff	Y: da	SP: ff
c7b9	6da	STA	A: 0	X: ff	Y: da	SP: ff
c7bb	0	DEY	A: 0	X: ff	Y: da	SP: ff
c7bc	c7b9	BNE	A: 0	X: ff	Y: d9	SP: ff
c7b9	6d9	STA	A: 0	X: ff	Y: d9	SP: ff
c7bb	0	DEY	A: 0	X: ff	Y: d9	SP: ff
c7bc	c7b9	BNE	A: 0	X: ff	Y: d8	SP: ff
c7b9	6d8	STA	A: 0	X: ff	Y: d8	SP: ff
c7bb	0	DEY	A: 0	X: ff	Y: d8	SP: ff
c7bc	c7b9	BNE	A: 0	X: ff	Y: d7	SP: ff
c7b9	6d7	STA	A: 0	X: ff	Y: d7	SP: ff
c7bb	0	DEY	A: 0	X: ff	Y: d7	SP: ff
c7bc	c7b9	BNE	A: 0	X: ff	Y: d6	SP: ff
c7b9	6d6	STA	A: 0	X: ff	Y: d6	SP: ff
c7bb	0	DEY	A: 0	X: ff	Y: d6	SP: ff
c7bc	c7b9	BNE	A: 0	X: ff	Y: d5	SP: ff
c7b9	6d5	STA	A: 0	X: ff	Y: d5	SP: ff
c7bb	0	DEY	A: 0	X: ff	Y: d5	SP: ff
c7bc	c7b9	BNE	A: 0	X: ff	Y: d4	SP: ff
c7b9	6d4	STA	A: 0	X: ff	Y: d4	SP: ff
c7bb	0	DEY	A: 0	X: ff	Y: d4	SP: ff
c7bc	c7b9	BNE	A: 0	X: ff	Y: d3	SP: ff
c7b9	6d3	STA	A: 0	X: ff	Y: d3	SP: ff
c7bb	0	DEY	A: 0	X: ff	Y: d3	SP: ff
c7bc	c7b9	BNE	A: 0	X: ff	Y: d2	SP: ff
c7b9	6d2	STA	A: 0	X: ff	Y: d2	SP: ff
c7bb	0	DEY	A: 0	X: ff	Y: d2	SP: ff
c7bc	c7b9	BNE	A: 0	X: ff	Y: d1	SP: ff
c7b9	6d1	STA	A: 0	X: ff	Y: d1	SP: ff
c7bb	0	DEY	A: 0	X: ff	Y: d1	SP: ff
c7bc	c7b9	BNE	A: 0	X: ff	Y: d0	SP: ff
c7b9	6d0	STA	A: 0	X: ff	Y: d0	SP: ff
c7bb	0	DEY	A: 0	X: ff	Y: d0	SP: ff
c7bc	c7b9	BNE	A: 0	X: ff	Y: cf	SP: ff
c7b9	6cf	STA	A: 0	X: ff	Y: cf	SP: ff
c7bb	0	DEY	A: 0	X: ff	Y: cf	SP: ff
c7bc	c7b9	BNE	A: 0	X: ff	Y: ce	SP: ff
c7b9	6ce	STA	A: 0	X: ff	Y: ce	SP: ff
c7bb	0	DEY	A: 0	X: ff	Y: ce	SP: ff
c7bc	c7b9	BNE	A: 0	X: ff	Y: cd	SP: ff
c7b9	6cd	STA	A: 0	X: ff	Y: cd	SP: ff
c7bb	0	DEY	A: 0	X: ff	Y: cd	SP: ff
c7bc	c7b9	BNE	A: 0	X: ff	Y: cc	SP: ff
c7b9	6cc	STA	A: 0	X: ff	Y: cc	SP: ff
c7bb	0	DEY	A: 0	X: ff	Y: cc	SP: ff
c7bc	c7b9	BNE	A: 0	X: ff	Y: cb	SP: ff
c7b9	6cb	STA	A: 0	X: ff	Y: cb	SP: ff
c7bb	0	DEY	A: 0	X: ff	Y: cb	SP: ff
c7bc	c7b9	BNE	A: 0	X: ff	Y: ca	SP: ff
c7b9	6ca	STA	A: 0	X: ff	Y: ca	SP: ff
c7bb	0	DEY	A: 0	X: ff	Y: ca	SP: ff
c7bc	c7b9	BNE	A: 0	X: ff	Y: c9	SP: ff
c7b9	6c9	STA	A: 0	X: ff	Y: c9	SP: ff
c7bb	0	DEY	A: 0	X: ff	Y: c9	SP: ff
c7bc	c7b9	BNE	A: 0	X: ff	Y: c8	SP: ff
c7b9	6c8	STA	A: 0	X: ff	Y: c8	SP: ff
c7bb	0	DEY	A: 0	X: ff	Y: c8	SP: ff
c7bc	c7b9	BNE	A: 0	X: ff	Y: c7	SP: ff
c7b9	6c7	STA	A: 0	X: ff	Y: c7	SP: ff
c7bb	0	DEY	A: 0	X: ff	Y: c7	SP: ff
c7bc	c7b9	BNE	A: 0	X: ff	Y: c6	SP: ff
c7b9	6c6	STA	A: 0	X: ff	Y: c6	SP: ff
c7bb	0	DEY	A: 0	X: ff	Y: c6	SP: ff
c7bc	c7b9	BNE	A: 0	X: ff	Y: c5	SP: ff
c7b9	6c5	STA	A: 0	X: ff	Y: c5	SP: ff
c7bb	0	DEY	A: 0	X: ff	Y: c5	SP: ff
c7bc	c7b9	BNE	A: 0	X: ff	Y: c4	SP: ff
c7b9	6c4	STA	A: 0	X: ff	Y: c4	SP: ff
c7bb	0	DEY	A: 0	X: ff	Y: c4	SP: ff
c7bc	c7b9	BNE	A: 0	X: ff	Y: c3	SP: ff
c7b9	6c3	STA	A: 0	X: ff	Y: c3	SP: ff
c7bb	0	DEY	A: 0	X: ff	Y: c3	SP: ff
c7bc	c7b9	BNE	A: 0	X: ff	Y: c2	SP: ff
c7b9	6c2	STA	A: 0	X: ff	Y: c2	SP: ff
c7bb	0	DEY	A: 0	X: ff	Y: c2	SP: ff
c7bc	c7b9	BNE	A: 0	X: ff	Y: c1	SP: ff
c7b9	6c1	STA	A: 0	X: ff	Y: c1	SP: ff
c7bb	0	DEY	A: 0	X: ff	Y: c1	SP: ff
c7bc	c7b9	BNE	A: 0	X: ff	Y: c0	SP: ff
c7b9	6c0	STA	A: 0	X: ff	Y: c0	SP: ff
c7bb	0	DEY	A: 0	X: ff	Y: c0	SP: ff
c7bc	c7b9	BNE	A: 0	X: ff	Y: bf	SP: ff
c7b9	6bf	STA	A: 0	X: ff	Y: bf	SP: ff
c7bb	0	DEY	A: 0	X: ff	Y: bf	SP: ff
c7bc	c7b9	BNE	A: 0	X: ff	Y: be	SP: ff
c7b9	6be	STA	A: 0	X: ff	Y: be	SP: ff
c7bb	0	DEY	A: 0	X: ff	Y: be	SP: ff
c7bc	c7b9	BNE	A: 0	X: ff	Y: bd	SP: ff
c7b9	6bd	STA	A: 0	X: ff	Y: bd	SP: ff
c7bb	0	DEY	A: 0	X: ff	Y: bd	SP: ff
c7bc	c7b9	BNE	A: 0	X: ff	Y: bc	SP: ff
c7b9	6bc	STA	A: 0	X: ff	Y: bc	SP: ff
c7bb	0	DEY	A: 0	X: ff	Y: bc	SP: ff
c7bc	c7b9	BNE	A: 0	X: ff	Y: bb	SP: ff
c7b9	6bb	STA	A: 0	X: ff	Y: bb	SP: ff
c7bb	0	DEY	A: 0	X: ff	Y: bb	SP: ff
c7bc	c7b9	BNE	A: 0	X: ff	Y: ba	SP: ff
c7b9	6ba	STA	A: 0	X: ff	Y: ba	SP: ff
c7bb	0	DEY	A: 0	X: ff	Y: ba	SP: ff
c7bc	c7b9	BNE	A: 0	X: ff	Y: b9	SP: ff
c7b9	6b9	STA	A: 0	X: ff	Y: b9	SP: ff
c7bb	0	DEY	A: 0	X: ff	Y: b9	SP: ff
c7bc	c7b9	BNE	A: 0	X: ff	Y: b8	SP: ff
c7b9	6b8	STA	A: 0	X: ff	Y: b8	SP: ff
c7bb	0	DEY	A: 0	X: ff	Y: b8	SP: ff
c7bc	c7b9	BNE	A: 0	X: ff	Y: b7	SP: ff
c7b9	6b7	STA	A: 0	X: ff	Y: b7	SP: ff
c7bb	0	DEY	A: 0	X: ff	Y: b7	SP: ff
c7bc	c7b9	BNE	A: 0	X: ff	Y: b6	SP: ff
c7b9	6b6	STA	A: 0	X: ff	Y: b6	SP: ff
c7bb	0	DEY	A: 0	X: ff	Y: b6	SP: ff
c7bc	c7b9	BNE	A: 0	X: ff	Y: b5	SP: ff
c7b9	6b5	STA	A: 0	X: ff	Y: b5	SP: ff
c7bb	0	DEY	A: 0	X: ff	Y: b5	SP: ff
c7bc	c7b9	BNE	A: 0	X: ff	Y: b4	SP: ff
c7b9	6b4	STA	A: 0	X: ff	Y: b4	SP: ff
c7bb	0	DEY	A: 0	X: ff	Y: b4	SP: ff
c7bc	c7b9	BNE	A: 0	X: ff	Y: b3	SP: ff
c7b9	6b3	STA	A: 0	X: ff	Y: b3	SP: ff
c7bb	0	DEY	A: 0	X: ff	Y: b3	SP: ff
c7bc	c7b9	BNE	A: 0	X: ff	Y: b2	SP: ff
c7b9	6b2	STA	A: 0	X: ff	Y: b2	SP: ff
c7bb	0	DEY	A: 0	X: ff	Y: b2	SP: ff
c7bc	c7b9	BNE	A: 0	X: ff	Y: b1	SP: ff
c7b9	6b1	STA	A: 0	X: ff	Y: b1	SP: ff
c7bb	0	DEY	A: 0	X: ff	Y: b1	SP: ff
c7bc	c7b9	BNE	A: 0	X: ff	Y: b0	SP: ff
c7b9	6b0	STA	A: 0	X: ff	Y: b0	SP: ff
c7bb	0	DEY	A: 0	X: ff	Y: b0	SP: ff
c7bc	c7b9	BNE	A: 0	X: ff	Y: af	SP: ff
c7b9	6af	STA	A: 0	X: ff	Y: af	SP: ff
c7bb	0	DEY	A: 0	X: ff	Y: af	SP: ff
c7bc	c7b9	BNE	A: 0	X: ff	Y: ae	SP: ff
c7b9	6ae	STA	A: 0	X: ff	Y: ae	SP: ff
c7bb	0	DEY	A: 0	X: ff	Y: ae	SP: ff
c7bc	c7b9	BNE	A: 0	X: ff	Y: ad	SP: ff
c7b9	6ad	STA	A: 0	X: ff	Y: ad	SP: ff
c7bb	0	DEY	A: 0	X: ff	Y: ad	SP: ff
c7bc	c7b9	BNE	A: 0	X: ff	Y: ac	SP: ff
c7b9	6ac	STA	A: 0	X: ff	Y: ac	SP: ff
c7bb	0	DEY	A: 0	X: ff	Y: ac	SP: ff
c7bc	c7b9	BNE	A: 0	X: ff	Y: ab	SP: ff
c7b9	6ab	STA	A: 0	X: ff	Y: ab	SP: ff
c7bb	0	DEY	A: 0	X: ff	Y: ab	SP: ff
c7bc	c7b9	BNE	A: 0	X: ff	Y: aa	SP: ff
c7b9	6aa	STA	A: 0	X: ff	Y: aa	SP: ff
c7bb	0	DEY	A: 0	X: ff	Y: aa	SP: ff
c7bc	c7b9	BNE	A: 0	X: ff	Y: a9	SP: ff
c7b9	6a9	STA	A: 0	X: ff	Y: a9	SP: ff
c7bb	0	DEY	A: 0	X: ff	Y: a9	SP: ff
c7bc	c7b9	BNE	A: 0	X: ff	Y: a8	SP: ff
c7b9	6a8	STA	A: 0	X: ff	Y: a8	SP: ff
c7bb	0	DEY	A: 0	X: ff	Y: a8	SP: ff
c7bc	c7b9	BNE	A: 0	X: ff	Y: a7	SP: ff
c7b9	6a7	STA	A: 0	X: ff	Y: a7	SP: ff
c7bb	0	DEY	A: 0	X: ff	Y: a7	SP: ff
c7bc	c7b9	BNE	A: 0	X: ff	Y: a6	SP: ff
c7b9	6a6	STA	A: 0	X: ff	Y: a6	SP: ff
c7bb	0	DEY	A: 0	X: ff	Y: a6	SP: ff
c7bc	c7b9	BNE	A: 0	X: ff	Y: a5	SP: ff
c7b9	6a5	STA	A: 0	X: ff	Y: a5	SP: ff
c7bb	0	DEY	A: 0	X: ff	Y: a5	SP: ff
c7bc	c7b9	BNE	A: 0	X: ff	Y: a4	SP: ff
c7b9	6a4	STA	A: 0	X: ff	Y: a4	SP: ff
c7bb	0	DEY	A: 0	X: ff	Y: a4	SP: ff
c7bc	c7b9	BNE	A: 0	X: ff	Y: a3	SP: ff
c7b9	6a3	STA	A: 0	X: ff	Y: a3	SP: ff
c7bb	0	DEY	A: 0	X: ff	Y: a3	SP: ff
c7bc	c7b9	BNE	A: 0	X: ff	Y: a2	SP: ff
c7b9	6a2	STA	A: 0	X: ff	Y: a2	SP: ff
c7bb	0	DEY	A: 0	X: ff	Y: a2	SP: ff
c7bc	c7b9	BNE	A: 0	X: ff	Y: a1	SP: ff
c7b9	6a1	STA	A: 0	X: ff	Y: a1	SP: ff
c7bb	0	DEY	A: 0	X: ff	Y: a1	SP: ff
c7bc	c7b9	BNE	A: 0	X: ff	Y: a0	SP: ff
c7b9	6a0	STA	A: 0	X: ff	Y: a0	SP: ff
c7bb	0	DEY	A: 0	X: ff	Y: a0	SP: ff
c7bc	c7b9	BNE	A: 0	X: ff	Y: 9f	SP: ff
c7b9	69f	STA	A: 0	X: ff	Y: 9f	SP: ff
c7bb	0	DEY	A: 0	X: ff	Y: 9f	SP: ff
c7bc	c7b9	BNE	A: 0	X: ff	Y: 9e	SP: ff
c7b9	69e	STA	A: 0	X: ff	Y: 9e	SP: ff
c7bb	0	DEY	A: 0	X: ff	Y: 9e	SP: ff
c7bc	c7b9	BNE	A: 0	X: ff	Y: 9d	SP: ff
c7b9	69d	STA	A: 0	X: ff	Y: 9d	SP: ff
c7bb	0	DEY	A: 0	X: ff	Y: 9d	SP: ff
c7bc	c7b9	BNE	A: 0	X: ff	Y: 9c	SP: ff
c7b9	69c	STA	A: 0	X: ff	Y: 9c	SP: ff
c7bb	0	DEY	A: 0	X: ff	Y: 9c	SP: ff
c7bc	c7b9	BNE	A: 0	X: ff	Y: 9b	SP: ff
c7b9	69b	STA	A: 0	X: ff	Y: 9b	SP: ff
c7bb	0	DEY	A: 0	X: ff	Y: 9b	SP: ff
c7bc	c7b9	BNE	A: 0	X: ff	Y: 9a	SP: ff
c7b9	69a	STA	A: 0	X: ff	Y: 9a	SP: ff
c7bb	0	DEY	A: 0	X: ff	Y: 9a	SP: ff
c7bc	c7b9	BNE	A: 0	X: ff	Y: 99	SP: ff
c7b9	699	STA	A: 0	X: ff	Y: 99	SP: ff
c7bb	0	DEY	A: 0	X: ff	Y: 99	SP: ff
c7bc	c7b9	BNE	A: 0	X: ff	Y: 98	SP: ff
c7b9	698	STA	A: 0	X: ff	Y: 98	SP: ff
c7bb	0	DEY	A: 0	X: ff	Y: 98	SP: ff
c7bc	c7b9	BNE	A: 0	X: ff	Y: 97	SP: ff
c7b9	697	STA	A: 0	X: ff	Y: 97	SP: ff
c7bb	0	DEY	A: 0	X: ff	Y: 97	SP: ff
c7bc	c7b9	BNE	A: 0	X: ff	Y: 96	SP: ff
c7b9	696	STA	A: 0	X: ff	Y: 96	SP: ff
c7bb	0	DEY	A: 0	X: ff	Y: 96	SP: ff
c7bc	c7b9	BNE	A: 0	X: ff	Y: 95	SP: ff
c7b9	695	STA	A: 0	X: ff	Y: 95	SP: ff
c7bb	0	DEY	A: 0	X: ff	Y: 95	SP: ff
c7bc	c7b9	BNE	A: 0	X: ff	Y: 94	SP: ff
c7b9	694	STA	A: 0	X: ff	Y: 94	SP: ff
c7bb	0	DEY	A: 0	X: ff	Y: 94	SP: ff
c7bc	c7b9	BNE	A: 0	X: ff	Y: 93	SP: ff
c7b9	693	STA	A: 0	X: ff	Y: 93	SP: ff
c7bb	0	DEY	A: 0	X: ff	Y: 93	SP: ff
c7bc	c7b9	BNE	A: 0	X: ff	Y: 92	SP: ff
c7b9	692	STA	A: 0	X: ff	Y: 92	SP: ff
c7bb	0	DEY	A: 0	X: ff	Y: 92	SP: ff
c7bc	c7b9	BNE	A: 0	X: ff	Y: 91	SP: ff
c7b9	691	STA	A: 0	X: ff	Y: 91	SP: ff
c7bb	0	DEY	A: 0	X: ff	Y: 91	SP: ff
c7bc	c7b9	BNE	A: 0	X: ff	Y: 90	SP: ff
c7b9	690	STA	A: 0	X: ff	Y: 90	SP: ff
c7bb	0	DEY	A: 0	X: ff	Y: 90	SP: ff
c7bc	c7b9	BNE	A: 0	X: ff	Y: 8f	SP: ff
c7b9	68f	STA	A: 0	X: ff	Y: 8f	SP: ff
c7bb	0	DEY	A: 0	X: ff	Y: 8f	SP: ff
c7bc	c7b9	BNE	A: 0	X: ff	Y: 8e	SP: ff
c7b9	68e	STA	A: 0	X: ff	Y: 8e	SP: ff
c7bb	0	DEY	A: 0	X: ff	Y: 8e	SP: ff
c7bc	c7b9	BNE	A: 0	X: ff	Y: 8d	SP: ff
c7b9	68d	STA	A: 0	X: ff	Y: 8d	SP: ff
c7bb	0	DEY	A: 0	X: ff	Y: 8d	SP: ff
c7bc	c7b9	BNE	A: 0	X: ff	Y: 8c	SP: ff
c7b9	68c	STA	A: 0	X: ff	Y: 8c	SP: ff
c7bb	0	DEY	A: 0	X: ff	Y: 8c	SP: ff
c7bc	c7b9	BNE	A: 0	X: ff	Y: 8b	SP: ff
c7b9	68b	STA	A: 0	X: ff	Y: 8b	SP: ff
c7bb	0	DEY	A: 0	X: ff	Y: 8b	SP: ff
c7bc	c7b9	BNE	A: 0	X: ff	Y: 8a	SP: ff
c7b9	68a	STA	A: 0	X: ff	Y: 8a	SP: ff
c7bb	0	DEY	A: 0	X: ff	Y: 8a	SP: ff
c7bc	c7b9	BNE	A: 0	X: ff	Y: 89	SP: ff
c7b9	689	STA	A: 0	X: ff	Y: 89	SP: ff
c7bb	0	DEY	A: 0	X: ff	Y: 89	SP: ff
c7bc	c7b9	BNE	A: 0	X: ff	Y: 88	SP: ff
c7b9	688	STA	A: 0	X: ff	Y: 88	SP: ff
c7bb	0	DEY	A: 0	X: ff	Y: 88	SP: ff
c7bc	c7b9	BNE	A: 0	X: ff	Y: 87	SP: ff
c7b9	687	STA	A: 0	X: ff	Y: 87	SP: ff
c7bb	0	DEY	A: 0	X: ff	Y: 87	SP: ff
c7bc	c7b9	BNE	A: 0	X: ff	Y: 86	SP: ff
c7b9	686	STA	A: 0	X: ff	Y: 86	SP: ff
c7bb	0	DEY	A: 0	X: ff	Y: 86	SP: ff
c7bc	c7b9	BNE	A: 0	X: ff	Y: 85	SP: ff
c7b9	685	STA	A: 0	X: ff	Y: 85	SP: ff
c7bb	0	DEY	A: 0	X: ff	Y: 85	SP: ff
c7bc	c7b9	BNE	A: 0	X: ff	Y: 84	SP: ff
c7b9	684	STA	A: 0	X: ff	Y: 84	SP: ff
c7bb	0	DEY	A: 0	X: ff	Y: 84	SP: ff
c7bc	c7b9	BNE	A: 0	X: ff	Y: 83	SP: ff
c7b9	683	STA	A: 0	X: ff	Y: 83	SP: ff
c7bb	0	DEY	A: 0	X: ff	Y: 83	SP: ff
c7bc	c7b9	BNE	A: 0	X: ff	Y: 82	SP: ff
c7b9	682	STA	A: 0	X: ff	Y: 82	SP: ff
c7bb	0	DEY	A: 0	X: ff	Y: 82	SP: ff
c7bc	c7b9	BNE	A: 0	X: ff	Y: 81	SP: ff
c7b9	681	STA	A: 0	X: ff	Y: 81	SP: ff
c7bb	0	DEY	A: 0	X: ff	Y: 81	SP: ff
c7bc	c7b9	BNE	A: 0	X: ff	Y: 80	SP: ff
c7b9	680	STA	A: 0	X: ff	Y: 80	SP: ff
c7bb	0	DEY	A: 0	X: ff	Y: 80	SP: ff
c7bc	c7b9	BNE	A: 0	X: ff	Y: 7f	SP: ff
c7b9	67f	STA	A: 0	X: ff	Y: 7f	SP: ff
c7bb	0	DEY	A: 0	X: ff	Y: 7f	SP: ff
c7bc	c7b9	BNE	A: 0	X: ff	Y: 7e	SP: ff
c7b9	67e	STA	A: 0	X: ff	Y: 7e	SP: ff
c7bb	0	DEY	A: 0	X: ff	Y: 7e	SP: ff
c7bc	c7b9	BNE	A: 0	X: ff	Y: 7d	SP: ff
c7b9	67d	STA	A: 0	X: ff	Y: 7d	SP: ff
c7bb	0	DEY	A: 0	X: ff	Y: 7d	SP: ff
c7bc	c7b9	BNE	A: 0	X: ff	Y: 7c	SP: ff
c7b9	67c	STA	A: 0	X: ff	Y: 7c	SP: ff
c7bb	0	DEY	A: 0	X: ff	Y: 7c	SP: ff
c7bc	c7b9	BNE	A: 0	X: ff	Y: 7b	SP: ff
c7b9	67b	STA	A: 0	X: ff	Y: 7b	SP: ff
c7bb	0	DEY	A: 0	X: ff	Y: 7b	SP: ff
c7bc	c7b9	BNE	A: 0	X: ff	Y: 7a	SP: ff
c7b9	67a	STA	A: 0	X: ff	Y: 7a	SP: ff
c7bb	0	DEY	A: 0	X: ff	Y: 7a	SP: ff
c7bc	c7b9	BNE	A: 0	X: ff	Y: 79	SP: ff
c7b9	679	STA	A: 0	X: ff	Y: 79	SP: ff
c7bb	0	DEY	A: 0	X: ff	Y: 79	SP: ff
c7bc	c7b9	BNE	A: 0	X: ff	Y: 78	SP: ff
c7b9	678	STA	A: 0	X: ff	Y: 78	SP: ff
c7bb	0	DEY	A: 0	X: ff	Y: 78	SP: ff
c7bc	c7b9	BNE	A: 0	X: ff	Y: 77	SP: ff
c7b9	677	STA	A: 0	X: ff	Y: 77	SP: ff
c7bb	0	DEY	A: 0	X: ff	Y: 77	SP: ff
c7bc	c7b9	BNE	A: 0	X: ff	Y: 76	SP: ff
c7b9	676	STA	A: 0	X: ff	Y: 76	SP: ff
c7bb	0	DEY	A: 0	X: ff	Y: 76	SP: ff
c7bc	c7b9	BNE	A: 0	X: ff	Y: 75	SP: ff
c7b9	675	STA	A: 0	X: ff	Y: 75	SP: ff
c7bb	0	DEY	A: 0	X: ff	Y: 75	SP: ff
c7bc	c7b9	BNE	A: 0	X: ff	Y: 74	SP: ff
c7b9	674	STA	A: 0	X: ff	Y: 74	SP: ff
c7bb	0	DEY	A: 0	X: ff	Y: 74	SP: ff
c7bc	c7b9	BNE	A: 0	X: ff	Y: 73	SP: ff
c7b9	673	STA	A: 0	X: ff	Y: 73	SP: ff
c7bb	0	DEY	A: 0	X: ff	Y: 73	SP: ff
c7bc	c7b9	BNE	A: 0	X: ff	Y: 72	SP: ff
c7b9	672	STA	A: 0	X: ff	Y: 72	SP: ff
c7bb	0	DEY	A: 0	X: ff	Y: 72	SP: ff
c7bc	c7b9	BNE	A: 0	X: ff	Y: 71	SP: ff
c7b9	671	STA	A: 0	X: ff	Y: 71	SP: ff
c7bb	0	DEY	A: 0	X: ff	Y: 71	SP: ff
c7bc	c7b9	BNE	A: 0	X: ff	Y: 70	SP: ff
c7b9	670	STA	A: 0	X: ff	Y: 70	SP: ff
c7bb	0	DEY	A: 0	X: ff	Y: 70	SP: ff
c7bc	c7b9	BNE	A: 0	X: ff	Y: 6f	SP: ff
c7b9	66f	STA	A: 0	X: ff	Y: 6f	SP: ff
c7bb	0	DEY	A: 0	X: ff	Y: 6f	SP: ff
c7bc	c7b9	BNE	A: 0	X: ff	Y: 6e	SP: ff
c7b9	66e	STA	A: 0	X: ff	Y: 6e	SP: ff
c7bb	0	DEY	A: 0	X: ff	Y: 6e	SP: ff
c7bc	c7b9	BNE	A: 0	X: ff	Y: 6d	SP: ff
c7b9	66d	STA	A: 0	X: ff	Y: 6d	SP: ff
c7bb	0	DEY	A: 0	X: ff	Y: 6d	SP: ff
c7bc	c7b9	BNE	A: 0	X: ff	Y: 6c	SP: ff
c7b9	66c	STA	A: 0	X: ff	Y: 6c	SP: ff
c7bb	0	DEY	A: 0	X: ff	Y: 6c	SP: ff
c7bc	c7b9	BNE	A: 0	X: ff	Y: 6b	SP: ff
c7b9	66b	STA	A: 0	X: ff	Y: 6b	SP: ff
c7bb	0	DEY	A: 0	X: ff	Y: 6b	SP: ff
c7bc	c7b9	BNE	A: 0	X: ff	Y: 6a	SP: ff
c7b9	66a	STA	A: 0	X: ff	Y: 6a	SP: ff
c7bb	0	DEY	A: 0	X: ff	Y: 6a	SP: ff
c7bc	c7b9	BNE	A: 0	X: ff	Y: 69	SP: ff
c7b9	669	STA	A: 0	X: ff	Y: 69	SP: ff
c7bb	0	DEY	A: 0	X: ff	Y: 69	SP: ff
c7bc	c7b9	BNE	A: 0	X: ff	Y: 68	SP: ff
c7b9	668	STA	A: 0	X: ff	Y: 68	SP: ff
c7bb	0	DEY	A: 0	X: ff	Y: 68	SP: ff
c7bc	c7b9	BNE	A: 0	X: ff	Y: 67	SP: ff
c7b9	667	STA	A: 0	X: ff	Y: 67	SP: ff
c7bb	0	DEY	A: 0	X: ff	Y: 67	SP: ff
c7bc	c7b9	BNE	A: 0	X: ff	Y: 66	SP: ff
c7b9	666	STA	A: 0	X: ff	Y: 66	SP: ff
c7bb	0	DEY	A: 0	X: ff	Y: 66	SP: ff
c7bc	c7b9	BNE	A: 0	X: ff	Y: 65	SP: ff
c7b9	665	STA	A: 0	X: ff	Y: 65	SP: ff
c7bb	0	DEY	A: 0	X: ff	Y: 65	SP: ff
c7bc	c7b9	BNE	A: 0	X: ff	Y: 64	SP: ff
c7b9	664	STA	A: 0	X: ff	Y: 64	SP: ff
c7bb	0	DEY	A: 0	X: ff	Y: 64	SP: ff
c7bc	c7b9	BNE	A: 0	X: ff	Y: 63	SP: ff
c7b9	663	STA	A: 0	X: ff	Y: 63	SP: ff
c7bb	0	DEY	A: 0	X: ff	Y: 63	SP: ff
c7bc	c7b9	BNE	A: 0	X: ff	Y: 62	SP: ff
c7b9	662	STA	A: 0	X: ff	Y: 62	SP: ff
c7bb	0	DEY	A: 0	X: ff	Y: 62	SP: ff
c7bc	c7b9	BNE	A: 0	X: ff	Y: 61	SP: ff
c7b9	661	STA	A: 0	X: ff	Y: 61	SP: ff
c7bb	0	DEY	A: 0	X: ff	Y: 61	SP: ff
c7bc	c7b9	BNE	A: 0	X: ff	Y: 60	SP: ff
c7b9	660	STA	A: 0	X: ff	Y: 60	SP: ff
c7bb	0	DEY	A: 0	X: ff	Y: 60	SP: ff
c7bc	c7b9	BNE	A: 0	X: ff	Y: 5f	SP: ff
c7b9	65f	STA	A: 0	X: ff	Y: 5f	SP: ff
c7bb	0	DEY	A: 0	X: ff	Y: 5f	SP: ff
c7bc	c7b9	BNE	A: 0	X: ff	Y: 5e	SP: ff
c7b9	65e	STA	A: 0	X: ff	Y: 5e	SP: ff
c7bb	0	DEY	A: 0	X: ff	Y: 5e	SP: ff
c7bc	c7b9	BNE	A: 0	X: ff	Y: 5d	SP: ff
c7b9	65d	STA	A: 0	X: ff	Y: 5d	SP: ff
c7bb	0	DEY	A: 0	X: ff	Y: 5d	SP: ff
c7bc	c7b9	BNE	A: 0	X: ff	Y: 5c	SP: ff
c7b9	65c	STA	A: 0	X: ff	Y: 5c	SP: ff
c7bb	0	DEY	A: 0	X: ff	Y: 5c	SP: ff
c7bc	c7b9	BNE	A: 0	X: ff	Y: 5b	SP: ff
c7b9	65b	STA	A: 0	X: ff	Y: 5b	SP: ff
c7bb	0	DEY	A: 0	X: ff	Y: 5b	SP: ff
c7bc	c7b9	BNE	A: 0	X: ff	Y: 5a	SP: ff
c7b9	65a	STA	A: 0	X: ff	Y: 5a	SP: ff
c7bb	0	DEY	A: 0	X: ff	Y: 5a	SP: ff
c7bc	c7b9	BNE	A: 0	X: ff	Y: 59	SP: ff
c7b9	659	STA	A: 0	X: ff	Y: 59	SP: ff
c7bb	0	DEY	A: 0	X: ff	Y: 59	SP: ff
c7bc	c7b9	BNE	A: 0	X: ff	Y: 58	SP: ff
c7b9	658	STA	A: 0	X: ff	Y: 58	SP: ff
c7bb	0	DEY	A: 0	X: ff	Y: 58	SP: ff
c7bc	c7b9	BNE	A: 0	X: ff	Y: 57	SP: ff
c7b9	657	STA	A: 0	X: ff	Y: 57	SP: ff
c7bb	0	DEY	A: 0	X: ff	Y: 57	SP: ff
c7bc	c7b9	BNE	A: 0	X: ff	Y: 56	SP: ff
c7b9	656	STA	A: 0	X: ff	Y: 56	SP: ff
c7bb	0	DEY	A: 0	X: ff	Y: 56	SP: ff
c7bc	c7b9	BNE	A: 0	X: ff	Y: 55	SP: ff
c7b9	655	STA	A: 0	X: ff	Y: 55	SP: ff
c7bb	0	DEY	A: 0	X: ff	Y: 55	SP: ff
c7bc	c7b9	BNE	A: 0	X: ff	Y: 54	SP: ff
c7b9	654	STA	A: 0	X: ff	Y: 54	SP: ff
c7bb	0	DEY	A: 0	X: ff	Y: 54	SP: ff
c7bc	c7b9	BNE	A: 0	X: ff	Y: 53	SP: ff
c7b9	653	STA	A: 0	X: ff	Y: 53	SP: ff
c7bb	0	DEY	A: 0	X: ff	Y: 53	SP: ff
c7bc	c7b9	BNE	A: 0	X: ff	Y: 52	SP: ff
c7b9	652	STA	A: 0	X: ff	Y: 52	SP: ff
c7bb	0	DEY	A: 0	X: ff	Y: 52	SP: ff
c7bc	c7b9	BNE	A: 0	X: ff	Y: 51	SP: ff
c7b9	651	STA	A: 0	X: ff	Y: 51	SP: ff
c7bb	0	DEY	A: 0	X: ff	Y: 51	SP: ff
c7bc	c7b9	BNE	A: 0	X: ff	Y: 50	SP: ff
c7b9	650	STA	A: 0	X: ff	Y: 50	SP: ff
c7bb	0	DEY	A: 0	X: ff	Y: 50	SP: ff
c7bc	c7b9	BNE	A: 0	X: ff	Y: 4f	SP: ff
c7b9	64f	STA	A: 0	X: ff	Y: 4f	SP: ff
c7bb	0	DEY	A: 0	X: ff	Y: 4f	SP: ff
c7bc	c7b9	BNE	A: 0	X: ff	Y: 4e	SP: ff
c7b9	64e	STA	A: 0	X: ff	Y: 4e	SP: ff
c7bb	0	DEY	A: 0	X: ff	Y: 4e	SP: ff
c7bc	c7b9	BNE	A: 0	X: ff	Y: 4d	SP: ff
c7b9	64d	STA	A: 0	X: ff	Y: 4d	SP: ff
c7bb	0	DEY	A: 0	X: ff	Y: 4d	SP: ff
c7bc	c7b9	BNE	A: 0	X: ff	Y: 4c	SP: ff
c7b9	64c	STA	A: 0	X: ff	Y: 4c	SP: ff
c7bb	0	DEY	A: 0	X: ff	Y: 4c	SP: ff
c7bc	c7b9	BNE	A: 0	X: ff	Y: 4b	SP: ff
c7b9	64b	STA	A: 0	X: ff	Y: 4b	SP: ff
c7bb	0	DEY	A: 0	X: ff	Y: 4b	SP: ff
c7bc	c7b9	BNE	A: 0	X: ff	Y: 4a	SP: ff
c7b9	64a	STA	A: 0	X: ff	Y: 4a	SP: ff
c7bb	0	DEY	A: 0	X: ff	Y: 4a	SP: ff
c7bc	c7b9	BNE	A: 0	X: ff	Y: 49	SP: ff
c7b9	649	STA	A: 0	X: ff	Y: 49	SP: ff
c7bb	0	DEY	A: 0	X: ff	Y: 49	SP: ff
c7bc	c7b9	BNE	A: 0	X: ff	Y: 48	SP: ff
c7b9	648	STA	A: 0	X: ff	Y: 48	SP: ff
c7bb	0	DEY	A: 0	X: ff	Y: 48	SP: ff
c7bc	c7b9	BNE	A: 0	X: ff	Y: 47	SP: ff
c7b9	647	STA	A: 0	X: ff	Y: 47	SP: ff
c7bb	0	DEY	A: 0	X: ff	Y: 47	SP: ff
c7bc	c7b9	BNE	A: 0	X: ff	Y: 46	SP: ff
c7b9	646	STA	A: 0	X: ff	Y: 46	SP: ff
c7bb	0	DEY	A: 0	X: ff	Y: 46	SP: ff
c7bc	c7b9	BNE	A: 0	X: ff	Y: 45	SP: ff
c7b9	645	STA	A: 0	X: ff	Y: 45	SP: ff
c7bb	0	DEY	A: 0	X: ff	Y: 45	SP: ff
c7bc	c7b9	BNE	A: 0	X: ff	Y: 44	SP: ff
c7b9	644	STA	A: 0	X: ff	Y: 44	SP: ff
c7bb	0	DEY	A: 0	X: ff	Y: 44	SP: ff
c7bc	c7b9	BNE	A: 0	X: ff	Y: 43	SP: ff
c7b9	643	STA	A: 0	X: ff	Y: 43	SP: ff
c7bb	0	DEY	A: 0	X: ff	Y: 43	SP: ff
c7bc	c7b9	BNE	A: 0	X: ff	Y: 42	SP: ff
c7b9	642	STA	A: 0	X: ff	Y: 42	SP: ff
c7bb	0	DEY	A: 0	X: ff	Y: 42	SP: ff
c7bc	c7b9	BNE	A: 0	X: ff	Y: 41	SP: ff
c7b9	641	STA	A: 0	X: ff	Y: 41	SP: ff
c7bb	0	DEY	A: 0	X: ff	Y: 41	SP: ff
c7bc	c7b9	BNE	A: 0	X: ff	Y: 40	SP: ff
c7b9	640	STA	A: 0	X: ff	Y: 40	SP: ff
c7bb	0	DEY	A: 0	X: ff	Y: 40	SP: ff
c7bc	c7b9	BNE	A: 0	X: ff	Y: 3f	SP: ff
c7b9	63f	STA	A: 0	X: ff	Y: 3f	SP: ff
c7bb	0	DEY	A: 0	X: ff	Y: 3f	SP: ff
c7bc	c7b9	BNE	A: 0	X: ff	Y: 3e	SP: ff
c7b9	63e	STA	A: 0	X: ff	Y: 3e	SP: ff
c7bb	0	DEY	A: 0	X: ff	Y: 3e	SP: ff
c7bc	c7b9	BNE	A: 0	X: ff	Y: 3d	SP: ff
c7b9	63d	STA	A: 0	X: ff	Y: 3d	SP: ff
c7bb	0	DEY	A: 0	X: ff	Y: 3d	SP: ff
c7bc	c7b9	BNE	A: 0	X: ff	Y: 3c	SP: ff
c7b9	63c	STA	A: 0	X: ff	Y: 3c	SP: ff
c7bb	0	DEY	A: 0	X: ff	Y: 3c	SP: ff
c7bc	c7b9	BNE	A: 0	X: ff	Y: 3b	SP: ff
c7b9	63b	STA	A: 0	X: ff	Y: 3b	SP: ff
c7bb	0	DEY	A: 0	X: ff	Y: 3b	SP: ff
c7bc	c7b9	BNE	A: 0	X: ff	Y: 3a	SP: ff
c7b9	63a	STA	A: 0	X: ff	Y: 3a	SP: ff
c7bb	0	DEY	A: 0	X: ff	Y: 3a	SP: ff
c7bc	c7b9	BNE	A: 0	X: ff	Y: 39	SP: ff
c7b9	639	STA	A: 0	X: ff	Y: 39	SP: ff
c7bb	0	DEY	A: 0	X: ff	Y: 39	SP: ff
c7bc	c7b9	BNE	A: 0	X: ff	Y: 38	SP: ff
c7b9	638	STA	A: 0	X: ff	Y: 38	SP: ff
c7bb	0	DEY	A: 0	X: ff	Y: 38	SP: ff
c7bc	c7b9	BNE	A: 0	X: ff	Y: 37	SP: ff
c7b9	637	STA	A: 0	X: ff	Y: 37	SP: ff
c7bb	0	DEY	A: 0	X: ff	Y: 37	SP: ff
c7bc	c7b9	BNE	A: 0	X: ff	Y: 36	SP: ff
c7b9	636	STA	A: 0	X: ff	Y: 36	SP: ff
c7bb	0	DEY	A: 0	X: ff	Y: 36	SP: ff
c7bc	c7b9	BNE	A: 0	X: ff	Y: 35	SP: ff
c7b9	635	STA	A: 0	X: ff	Y: 35	SP: ff
c7bb	0	DEY	A: 0	X: ff	Y: 35	SP: ff
c7bc	c7b9	BNE	A: 0	X: ff	Y: 34	SP: ff
c7b9	634	STA	A: 0	X: ff	Y: 34	SP: ff
c7bb	0	DEY	A: 0	X: ff	Y: 34	SP: ff
c7bc	c7b9	BNE	A: 0	X: ff	Y: 33	SP: ff
c7b9	633	STA	A: 0	X: ff	Y: 33	SP: ff
c7bb	0	DEY	A: 0	X: ff	Y: 33	SP: ff
c7bc	c7b9	BNE	A: 0	X: ff	Y: 32	SP: ff
c7b9	632	STA	A: 0	X: ff	Y: 32	SP: ff
c7bb	0	DEY	A: 0	X: ff	Y: 32	SP: ff
c7bc	c7b9	BNE	A: 0	X: ff	Y: 31	SP: ff
c7b9	631	STA	A: 0	X: ff	Y: 31	SP: ff
c7bb	0	DEY	A: 0	X: ff	Y: 31	SP: ff
c7bc	c7b9	BNE	A: 0	X: ff	Y: 30	SP: ff
c7b9	630	STA	A: 0	X: ff	Y: 30	SP: ff
c7bb	0	DEY	A: 0	X: ff	Y: 30	SP: ff
c7bc	c7b9	BNE	A: 0	X: ff	Y: 2f	SP: ff
c7b9	62f	STA	A: 0	X: ff	Y: 2f	SP: ff
c7bb	0	DEY	A: 0	X: ff	Y: 2f	SP: ff
c7bc	c7b9	BNE	A: 0	X: ff	Y: 2e	SP: ff
c7b9	62e	STA	A: 0	X: ff	Y: 2e	SP: ff
c7bb	0	DEY	A: 0	X: ff	Y: 2e	SP: ff
c7bc	c7b9	BNE	A: 0	X: ff	Y: 2d	SP: ff
c7b9	62d	STA	A: 0	X: ff	Y: 2d	SP: ff
c7bb	0	DEY	A: 0	X: ff	Y: 2d	SP: ff
c7bc	c7b9	BNE	A: 0	X: ff	Y: 2c	SP: ff
c7b9	62c	STA	A: 0	X: ff	Y: 2c	SP: ff
c7bb	0	DEY	A: 0	X: ff	Y: 2c	SP: ff
c7bc	c7b9	BNE	A: 0	X: ff	Y: 2b	SP: ff
c7b9	62b	STA	A: 0	X: ff	Y: 2b	SP: ff
c7bb	0	DEY	A: 0	X: ff	Y: 2b	SP: ff
c7bc	c7b9	BNE	A: 0	X: ff	Y: 2a	SP: ff
c7b9	62a	STA	A: 0	X: ff	Y: 2a	SP: ff
c7bb	0	DEY	A: 0	X: ff	Y: 2a	SP: ff
c7bc	c7b9	BNE	A: 0	X: ff	Y: 29	SP: ff
c7b9	629	STA	A: 0	X: ff	Y: 29	SP: ff
c7bb	0	DEY	A: 0	X: ff	Y: 29	SP: ff
c7bc	c7b9	BNE	A: 0	X: ff	Y: 28	SP: ff
c7b9	628	STA	A: 0	X: ff	Y: 28	SP: ff
c7bb	0	DEY	A: 0	X: ff	Y: 28	SP: ff
c7bc	c7b9	BNE	A: 0	X: ff	Y: 27	SP: ff
c7b9	627	STA	A: 0	X: ff	Y: 27	SP: ff
c7bb	0	DEY	A: 0	X: ff	Y: 27	SP: ff
c7bc	c7b9	BNE	A: 0	X: ff	Y: 26	SP: ff
c7b9	626	STA	A: 0	X: ff	Y: 26	SP: ff
c7bb	0	DEY	A: 0	X: ff	Y: 26	SP: ff
c7bc	c7b9	BNE	A: 0	X: ff	Y: 25	SP: ff
c7b9	625	STA	A: 0	X: ff	Y: 25	SP: ff
c7bb	0	DEY	A: 0	X: ff	Y: 25	SP: ff
c7bc	c7b9	BNE	A: 0	X: ff	Y: 24	SP: ff
c7b9	624	STA	A: 0	X: ff	Y: 24	SP: ff
c7bb	0	DEY	A: 0	X: ff	Y: 24	SP: ff
c7bc	c7b9	BNE	A: 0	X: ff	Y: 23	SP: ff
c7b9	623	STA	A: 0	X: ff	Y: 23	SP: ff
c7bb	0	DEY	A: 0	X: ff	Y: 23	SP: ff
c7bc	c7b9	BNE	A: 0	X: ff	Y: 22	SP: ff
c7b9	622	STA	A: 0	X: ff	Y: 22	SP: ff
c7bb	0	DEY	A: 0	X: ff	Y: 22	SP: ff
c7bc	c7b9	BNE	A: 0	X: ff	Y: 21	SP: ff
c7b9	621	STA	A: 0	X: ff	Y: 21	SP: ff
c7bb	0	DEY	A: 0	X: ff	Y: 21	SP: ff
c7bc	c7b9	BNE	A: 0	X: ff	Y: 20	SP: ff
c7b9	620	STA	A: 0	X: ff	Y: 20	SP: ff
c7bb	0	DEY	A: 0	X: ff	Y: 20	SP: ff
c7bc	c7b9	BNE	A: 0	X: ff	Y: 1f	SP: ff
c7b9	61f	STA	A: 0	X: ff	Y: 1f	SP: ff
c7bb	0	DEY	A: 0	X: ff	Y: 1f	SP: ff
c7bc	c7b9	BNE	A: 0	X: ff	Y: 1e	SP: ff
c7b9	61e	STA	A: 0	X: ff	Y: 1e	SP: ff
c7bb	0	DEY	A: 0	X: ff	Y: 1e	SP: ff
c7bc	c7b9	BNE	A: 0	X: ff	Y: 1d	SP: ff
c7b9	61d	STA	A: 0	X: ff	Y: 1d	SP: ff
c7bb	0	DEY	A: 0	X: ff	Y: 1d	SP: ff
c7bc	c7b9	BNE	A: 0	X: ff	Y: 1c	SP: ff
c7b9	61c	STA	A: 0	X: ff	Y: 1c	SP: ff
c7bb	0	DEY	A: 0	X: ff	Y: 1c	SP: ff
c7bc	c7b9	BNE	A: 0	X: ff	Y: 1b	SP: ff
c7b9	61b	STA	A: 0	X: ff	Y: 1b	SP: ff
c7bb	0	DEY	A: 0	X: ff	Y: 1b	SP: ff
c7bc	c7b9	BNE	A: 0	X: ff	Y: 1a	SP: ff
c7b9	61a	STA	A: 0	X: ff	Y: 1a	SP: ff
c7bb	0	DEY	A: 0	X: ff	Y: 1a	SP: ff
c7bc	c7b9	BNE	A: 0	X: ff	Y: 19	SP: ff
c7b9	619	STA	A: 0	X: ff	Y: 19	SP: ff
c7bb	0	DEY	A: 0	X: ff	Y: 19	SP: ff
c7bc	c7b9	BNE	A: 0	X: ff	Y: 18	SP: ff
c7b9	618	STA	A: 0	X: ff	Y: 18	SP: ff
c7bb	0	DEY	A: 0	X: ff	Y: 18	SP: ff
c7bc	c7b9	BNE	A: 0	X: ff	Y: 17	SP: ff
c7b9	617	STA	A: 0	X: ff	Y: 17	SP: ff
c7bb	0	DEY	A: 0	X: ff	Y: 17	SP: ff
c7bc	c7b9	BNE	A: 0	X: ff	Y: 16	SP: ff
c7b9	616	STA	A: 0	X: ff	Y: 16	SP: ff
c7bb	0	DEY	A: 0	X: ff	Y: 16	SP: ff
c7bc	c7b9	BNE	A: 0	X: ff	Y: 15	SP: ff
c7b9	615	STA	A: 0	X: ff	Y: 15	SP: ff
c7bb	0	DEY	A: 0	X: ff	Y: 15	SP: ff
c7bc	c7b9	BNE	A: 0	X: ff	Y: 14	SP: ff
c7b9	614	STA	A: 0	X: ff	Y: 14	SP: ff
c7bb	0	DEY	A: 0	X: ff	Y: 14	SP: ff
c7bc	c7b9	BNE	A: 0	X: ff	Y: 13	SP: ff
c7b9	613	STA	A: 0	X: ff	Y: 13	SP: ff
c7bb	0	DEY	A: 0	X: ff	Y: 13	SP: ff
c7bc	c7b9	BNE	A: 0	X: ff	Y: 12	SP: ff
c7b9	612	STA	A: 0	X: ff	Y: 12	SP: ff
c7bb	0	DEY	A: 0	X: ff	Y: 12	SP: ff
c7bc	c7b9	BNE	A: 0	X: ff	Y: 11	SP: ff
c7b9	611	STA	A: 0	X: ff	Y: 11	SP: ff
c7bb	0	DEY	A: 0	X: ff	Y: 11	SP: ff
c7bc	c7b9	BNE	A: 0	X: ff	Y: 10	SP: ff
c7b9	610	STA	A: 0	X: ff	Y: 10	SP: ff
c7bb	0	DEY	A: 0	X: ff	Y: 10	SP: ff
c7bc	c7b9	BNE	A: 0	X: ff	Y: f	SP: ff
c7b9	60f	STA	A: 0	X: ff	Y: f	SP: ff
c7bb	0	DEY	A: 0	X: ff	Y: f	SP: ff
c7bc	c7b9	BNE	A: 0	X: ff	Y: e	SP: ff
c7b9	60e	STA	A: 0	X: ff	Y: e	SP: ff
c7bb	0	DEY	A: 0	X: ff	Y: e	SP: ff
c7bc	c7b9	BNE	A: 0	X: ff	Y: d	SP: ff
c7b9	60d	STA	A: 0	X: ff	Y: d	SP: ff
c7bb	0	DEY	A: 0	X: ff	Y: d	SP: ff
c7bc	c7b9	BNE	A: 0	X: ff	Y: c	SP: ff
c7b9	60c	STA	A: 0	X: ff	Y: c	SP: ff
c7bb	0	DEY	A: 0	X: ff	Y: c	SP: ff
c7bc	c7b9	BNE	A: 0	X: ff	Y: b	SP: ff
c7b9	60b	STA	A: 0	X: ff	Y: b	SP: ff
c7bb	0	DEY	A: 0	X: ff	Y: b	SP: ff
c7bc	c7b9	BNE	A: 0	X: ff	Y: a	SP: ff
c7b9	60a	STA	A: 0	X: ff	Y: a	SP: ff
c7bb	0	DEY	A: 0	X: ff	Y: a	SP: ff
c7bc	c7b9	BNE	A: 0	X: ff	Y: 9	SP: ff
c7b9	609	STA	A: 0	X: ff	Y: 9	SP: ff
c7bb	0	DEY	A: 0	X: ff	Y: 9	SP: ff
c7bc	c7b9	BNE	A: 0	X: ff	Y: 8	SP: ff
c7b9	608	STA	A: 0	X: ff	Y: 8	SP: ff
c7bb	0	DEY	A: 0	X: ff	Y: 8	SP: ff
c7bc	c7b9	BNE	A: 0	X: ff	Y: 7	SP: ff
c7b9	607	STA	A: 0	X: ff	Y: 7	SP: ff
c7bb	0	DEY	A: 0	X: ff	Y: 7	SP: ff
c7bc	c7b9	BNE	A: 0	X: ff	Y: 6	SP: ff
c7b9	606	STA	A: 0	X: ff	Y: 6	SP: ff
c7bb	0	DEY	A: 0	X: ff	Y: 6	SP: ff
c7bc	c7b9	BNE	A: 0	X: ff	Y: 5	SP: ff
c7b9	605	STA	A: 0	X: ff	Y: 5	SP: ff
c7bb	0	DEY	A: 0	X: ff	Y: 5	SP: ff
c7bc	c7b9	BNE	A: 0	X: ff	Y: 4	SP: ff
c7b9	604	STA	A: 0	X: ff	Y: 4	SP: ff
c7bb	0	DEY	A: 0	X: ff	Y: 4	SP: ff
c7bc	c7b9	BNE	A: 0	X: ff	Y: 3	SP: ff
c7b9	603	STA	A: 0	X: ff	Y: 3	SP: ff
c7bb	0	DEY	A: 0	X: ff	Y: 3	SP: ff
c7bc	c7b9	BNE	A: 0	X: ff	Y: 2	SP: ff
c7b9	602	STA	A: 0	X: ff	Y: 2	SP: ff
c7bb	0	DEY	A: 0	X: ff	Y: 2	SP: ff
c7bc	c7b9	BNE	A: 0	X: ff	Y: 1	SP: ff
c7b9	601	STA	A: 0	X: ff	Y: 1	SP: ff
c7bb	0	DEY	A: 0	X: ff	Y: 1	SP: ff
c7bc	c7b9	BNE	A: 0	X: ff	Y: 0	SP: ff
c7be	1	DEC	A: 0	X: ff	Y: 0	SP: ff
c7c0	c7b9	BPL	A: 0	X: ff	Y: 0	SP: ff
c7b9	500	STA	A: 0	X: ff	Y: 0	SP: ff
c7bb	0	DEY	A: 0	X: ff	Y: 0	SP: ff
c7bc	c7b9	BNE	A: 0	X: ff	Y: ff	SP: ff
c7b9	5ff	STA	A: 0	X: ff	Y: ff	SP: ff
c7bb	0	DEY	A: 0	X: ff	Y: ff	SP: ff
c7bc	c7b9	BNE	A: 0	X: ff	Y: fe	SP: ff
c7b9	5fe	STA	A: 0	X: ff	Y: fe	SP: ff
c7bb	0	DEY	A: 0	X: ff	Y: fe	SP: ff
c7bc	c7b9	BNE	A: 0	X: ff	Y: fd	SP: ff
c7b9	5fd	STA	A: 0	X: ff	Y: fd	SP: ff
c7bb	0	DEY	A: 0	X: ff	Y: fd	SP: ff
c7bc	c7b9	BNE	A: 0	X: ff	Y: fc	SP: ff
c7b9	5fc	STA	A: 0	X: ff	Y: fc	SP: ff
c7bb	0	DEY	A: 0	X: ff	Y: fc	SP: ff
c7bc	c7b9	BNE	A: 0	X: ff	Y: fb	SP: ff
c7b9	5fb	STA	A: 0	X: ff	Y: fb	SP: ff
c7bb	0	DEY	A: 0	X: ff	Y: fb	SP: ff
c7bc	c7b9	BNE	A: 0	X: ff	Y: fa	SP: ff
c7b9	5fa	STA	A: 0	X: ff	Y: fa	SP: ff
c7bb	0	DEY	A: 0	X: ff	Y: fa	SP: ff
c7bc	c7b9	BNE	A: 0	X: ff	Y: f9	SP: ff
c7b9	5f9	STA	A: 0	X: ff	Y: f9	SP: ff
c7bb	0	DEY	A: 0	X: ff	Y: f9	SP: ff
c7bc	c7b9	BNE	A: 0	X: ff	Y: f8	SP: ff
c7b9	5f8	STA	A: 0	X: ff	Y: f8	SP: ff
c7bb	0	DEY	A: 0	X: ff	Y: f8	SP: ff
c7bc	c7b9	BNE	A: 0	X: ff	Y: f7	SP: ff
c7b9	5f7	STA	A: 0	X: ff	Y: f7	SP: ff
c7bb	0	DEY	A: 0	X: ff	Y: f7	SP: ff
c7bc	c7b9	BNE	A: 0	X: ff	Y: f6	SP: ff
c7b9	5f6	STA	A: 0	X: ff	Y: f6	SP: ff
c7bb	0	DEY	A: 0	X: ff	Y: f6	SP: ff
c7bc	c7b9	BNE	A: 0	X: ff	Y: f5	SP: ff
c7b9	5f5	STA	A: 0	X: ff	Y: f5	SP: ff
c7bb	0	DEY	A: 0	X: ff	Y: f5	SP: ff
c7bc	c7b9	BNE	A: 0	X: ff	Y: f4	SP: ff
c7b9	5f4	STA	A: 0	X: ff	Y: f4	SP: ff
c7bb	0	DEY	A: 0	X: ff	Y: f4	SP: ff
c7bc	c7b9	BNE	A: 0	X: ff	Y: f3	SP: ff
c7b9	5f3	STA	A: 0	X: ff	Y: f3	SP: ff
c7bb	0	DEY	A: 0	X: ff	Y: f3	SP: ff
c7bc	c7b9	BNE	A: 0	X: ff	Y: f2	SP: ff
c7b9	5f2	STA	A: 0	X: ff	Y: f2	SP: ff
c7bb	0	DEY	A: 0	X: ff	Y: f2	SP: ff
c7bc	c7b9	BNE	A: 0	X: ff	Y: f1	SP: ff
c7b9	5f1	STA	A: 0	X: ff	Y: f1	SP: ff
c7bb	0	DEY	A: 0	X: ff	Y: f1	SP: ff
c7bc	c7b9	BNE	A: 0	X: ff	Y: f0	SP: ff
c7b9	5f0	STA	A: 0	X: ff	Y: f0	SP: ff
c7bb	0	DEY	A: 0	X: ff	Y: f0	SP: ff
c7bc	c7b9	BNE	A: 0	X: ff	Y: ef	SP: ff
c7b9	5ef	STA	A: 0	X: ff	Y: ef	SP: ff
c7bb	0	DEY	A: 0	X: ff	Y: ef	SP: ff
c7bc	c7b9	BNE	A: 0	X: ff	Y: ee	SP: ff
c7b9	5ee	STA	A: 0	X: ff	Y: ee	SP: ff
c7bb	0	DEY	A: 0	X: ff	Y: ee	SP: ff
c7bc	c7b9	BNE	A: 0	X: ff	Y: ed	SP: ff
c7b9	5ed	STA	A: 0	X: ff	Y: ed	SP: ff
c7bb	0	DEY	A: 0	X: ff	Y: ed	SP: ff
c7bc	c7b9	BNE	A: 0	X: ff	Y: ec	SP: ff
c7b9	5ec	STA	A: 0	X: ff	Y: ec	SP: ff
c7bb	0	DEY	A: 0	X: ff	Y: ec	SP: ff
c7bc	c7b9	BNE	A: 0	X: ff	Y: eb	SP: ff
c7b9	5eb	STA	A: 0	X: ff	Y: eb	SP: ff
c7bb	0	DEY	A: 0	X: ff	Y: eb	SP: ff
c7bc	c7b9	BNE	A: 0	X: ff	Y: ea	SP: ff
c7b9	5ea	STA	A: 0	X: ff	Y: ea	SP: ff
c7bb	0	DEY	A: 0	X: ff	Y: ea	SP: ff
c7bc	c7b9	BNE	A: 0	X: ff	Y: e9	SP: ff
c7b9	5e9	STA	A: 0	X: ff	Y: e9	SP: ff
c7bb	0	DEY	A: 0	X: ff	Y: e9	SP: ff
c7bc	c7b9	BNE	A: 0	X: ff	Y: e8	SP: ff
c7b9	5e8	STA	A: 0	X: ff	Y: e8	SP: ff
c7bb	0	DEY	A: 0	X: ff	Y: e8	SP: ff
c7bc	c7b9	BNE	A: 0	X: ff	Y: e7	SP: ff
c7b9	5e7	STA	A: 0	X: ff	Y: e7	SP: ff
c7bb	0	DEY	A: 0	X: ff	Y: e7	SP: ff
c7bc	c7b9	BNE	A: 0	X: ff	Y: e6	SP: ff
c7b9	5e6	STA	A: 0	X: ff	Y: e6	SP: ff
c7bb	0	DEY	A: 0	X: ff	Y: e6	SP: ff
c7bc	c7b9	BNE	A: 0	X: ff	Y: e5	SP: ff
c7b9	5e5	STA	A: 0	X: ff	Y: e5	SP: ff
c7bb	0	DEY	A: 0	X: ff	Y: e5	SP: ff
c7bc	c7b9	BNE	A: 0	X: ff	Y: e4	SP: ff
c7b9	5e4	STA	A: 0	X: ff	Y: e4	SP: ff
c7bb	0	DEY	A: 0	X: ff	Y: e4	SP: ff
c7bc	c7b9	BNE	A: 0	X: ff	Y: e3	SP: ff
c7b9	5e3	STA	A: 0	X: ff	Y: e3	SP: ff
c7bb	0	DEY	A: 0	X: ff	Y: e3	SP: ff
c7bc	c7b9	BNE	A: 0	X: ff	Y: e2	SP: ff
c7b9	5e2	STA	A: 0	X: ff	Y: e2	SP: ff
c7bb	0	DEY	A: 0	X: ff	Y: e2	SP: ff
c7bc	c7b9	BNE	A: 0	X: ff	Y: e1	SP: ff
c7b9	5e1	STA	A: 0	X: ff	Y: e1	SP: ff
c7bb	0	DEY	A: 0	X: ff	Y: e1	SP: ff
c7bc	c7b9	BNE	A: 0	X: ff	Y: e0	SP: ff
c7b9	5e0	STA	A: 0	X: ff	Y: e0	SP: ff
c7bb	0	DEY	A: 0	X: ff	Y: e0	SP: ff
c7bc	c7b9	BNE	A: 0	X: ff	Y: df	SP: ff
c7b9	5df	STA	A: 0	X: ff	Y: df	SP: ff
c7bb	0	DEY	A: 0	X: ff	Y: df	SP: ff
c7bc	c7b9	BNE	A: 0	X: ff	Y: de	SP: ff
c7b9	5de	STA	A: 0	X: ff	Y: de	SP: ff
c7bb	0	DEY	A: 0	X: ff	Y: de	SP: ff
c7bc	c7b9	BNE	A: 0	X: ff	Y: dd	SP: ff
c7b9	5dd	STA	A: 0	X: ff	Y: dd	SP: ff
c7bb	0	DEY	A: 0	X: ff	Y: dd	SP: ff
c7bc	c7b9	BNE	A: 0	X: ff	Y: dc	SP: ff
c7b9	5dc	STA	A: 0	X: ff	Y: dc	SP: ff
c7bb	0	DEY	A: 0	X: ff	Y: dc	SP: ff
c7bc	c7b9	BNE	A: 0	X: ff	Y: db	SP: ff
c7b9	5db	STA	A: 0	X: ff	Y: db	SP: ff
c7bb	0	DEY	A: 0	X: ff	Y: db	SP: ff
c7bc	c7b9	BNE	A: 0	X: ff	Y: da	SP: ff
c7b9	5da	STA	A: 0	X: ff	Y: da	SP: ff
c7bb	0	DEY	A: 0	X: ff	Y: da	SP: ff
c7bc	c7b9	BNE	A: 0	X: ff	Y: d9	SP: ff
c7b9	5d9	STA	A: 0	X: ff	Y: d9	SP: ff
c7bb	0	DEY	A: 0	X: ff	Y: d9	SP: ff
c7bc	c7b9	BNE	A: 0	X: ff	Y: d8	SP: ff
c7b9	5d8	STA	A: 0	X: ff	Y: d8	SP: ff
c7bb	0	DEY	A: 0	X: ff	Y: d8	SP: ff
c7bc	c7b9	BNE	A: 0	X: ff	Y: d7	SP: ff
c7b9	5d7	STA	A: 0	X: ff	Y: d7	SP: ff
c7bb	0	DEY	A: 0	X: ff	Y: d7	SP: ff
c7bc	c7b9	BNE	A: 0	X: ff	Y: d6	SP: ff
c7b9	5d6	STA	A: 0	X: ff	Y: d6	SP: ff
c7bb	0	DEY	A: 0	X: ff	Y: d6	SP: ff
c7bc	c7b9	BNE	A: 0	X: ff	Y: d5	SP: ff
c7b9	5d5	STA	A: 0	X: ff	Y: d5	SP: ff
c7bb	0	DEY	A: 0	X: ff	Y: d5	SP: ff
c7bc	c7b9	BNE	A: 0	X: ff	Y: d4	SP: ff
c7b9	5d4	STA	A: 0	X: ff	Y: d4	SP: ff
c7bb	0	DEY	A: 0	X: ff	Y: d4	SP: ff
c7bc	c7b9	BNE	A: 0	X: ff	Y: d3	SP: ff
c7b9	5d3	STA	A: 0	X: ff	Y: d3	SP: ff
c7bb	0	DEY	A: 0	X: ff	Y: d3	SP: ff
c7bc	c7b9	BNE	A: 0	X: ff	Y: d2	SP: ff
c7b9	5d2	STA	A: 0	X: ff	Y: d2	SP: ff
c7bb	0	DEY	A: 0	X: ff	Y: d2	SP: ff
c7bc	c7b9	BNE	A: 0	X: ff	Y: d1	SP: ff
c7b9	5d1	STA	A: 0	X: ff	Y: d1	SP: ff
c7bb	0	DEY	A: 0	X: ff	Y: d1	SP: ff
c7bc	c7b9	BNE	A: 0	X: ff	Y: d0	SP: ff
c7b9	5d0	STA	A: 0	X: ff	Y: d0	SP: ff
c7bb	0	DEY	A: 0	X: ff	Y: d0	SP: ff
c7bc	c7b9	BNE	A: 0	X: ff	Y: cf	SP: ff
c7b9	5cf	STA	A: 0	X: ff	Y: cf	SP: ff
c7bb	0	DEY	A: 0	X: ff	Y: cf	SP: ff
c7bc	c7b9	BNE	A: 0	X: ff	Y: ce	SP: ff
c7b9	5ce	STA	A: 0	X: ff	Y: ce	SP: ff
c7bb	0	DEY	A: 0	X: ff	Y: ce	SP: ff
c7bc	c7b9	BNE	A: 0	X: ff	Y: cd	SP: ff
c7b9	5cd	STA	A: 0	X: ff	Y: cd	SP: ff
c7bb	0	DEY	A: 0	X: ff	Y: cd	SP: ff
c7bc	c7b9	BNE	A: 0	X: ff	Y: cc	SP: ff
c7b9	5cc	STA	A: 0	X: ff	Y: cc	SP: ff
c7bb	0	DEY	A: 0	X: ff	Y: cc	SP: ff
c7bc	c7b9	BNE	A: 0	X: ff	Y: cb	SP: ff
c7b9	5cb	STA	A: 0	X: ff	Y: cb	SP: ff
c7bb	0	DEY	A: 0	X: ff	Y: cb	SP: ff
c7bc	c7b9	BNE	A: 0	X: ff	Y: ca	SP: ff
c7b9	5ca	STA	A: 0	X: ff	Y: ca	SP: ff
c7bb	0	DEY	A: 0	X: ff	Y: ca	SP: ff
c7bc	c7b9	BNE	A: 0	X: ff	Y: c9	SP: ff
c7b9	5c9	STA	A: 0	X: ff	Y: c9	SP: ff
c7bb	0	DEY	A: 0	X: ff	Y: c9	SP: ff
c7bc	c7b9	BNE	A: 0	X: ff	Y: c8	SP: ff
c7b9	5c8	STA	A: 0	X: ff	Y: c8	SP: ff
c7bb	0	DEY	A: 0	X: ff	Y: c8	SP: ff
c7bc	c7b9	BNE	A: 0	X: ff	Y: c7	SP: ff
c7b9	5c7	STA	A: 0	X: ff	Y: c7	SP: ff
c7bb	0	DEY	A: 0	X: ff	Y: c7	SP: ff
c7bc	c7b9	BNE	A: 0	X: ff	Y: c6	SP: ff
c7b9	5c6	STA	A: 0	X: ff	Y: c6	SP: ff
c7bb	0	DEY	A: 0	X: ff	Y: c6	SP: ff
c7bc	c7b9	BNE	A: 0	X: ff	Y: c5	SP: ff
c7b9	5c5	STA	A: 0	X: ff	Y: c5	SP: ff
c7bb	0	DEY	A: 0	X: ff	Y: c5	SP: ff
c7bc	c7b9	BNE	A: 0	X: ff	Y: c4	SP: ff
c7b9	5c4	STA	A: 0	X: ff	Y: c4	SP: ff
c7bb	0	DEY	A: 0	X: ff	Y: c4	SP: ff
c7bc	c7b9	BNE	A: 0	X: ff	Y: c3	SP: ff
c7b9	5c3	STA	A: 0	X: ff	Y: c3	SP: ff
c7bb	0	DEY	A: 0	X: ff	Y: c3	SP: ff
c7bc	c7b9	BNE	A: 0	X: ff	Y: c2	SP: ff
c7b9	5c2	STA	A: 0	X: ff	Y: c2	SP: ff
c7bb	0	DEY	A: 0	X: ff	Y: c2	SP: ff
c7bc	c7b9	BNE	A: 0	X: ff	Y: c1	SP: ff
c7b9	5c1	STA	A: 0	X: ff	Y: c1	SP: ff
c7bb	0	DEY	A: 0	X: ff	Y: c1	SP: ff
c7bc	c7b9	BNE	A: 0	X: ff	Y: c0	SP: ff
c7b9	5c0	STA	A: 0	X: ff	Y: c0	SP: ff
c7bb	0	DEY	A: 0	X: ff	Y: c0	SP: ff
c7bc	c7b9	BNE	A: 0	X: ff	Y: bf	SP: ff
c7b9	5bf	STA	A: 0	X: ff	Y: bf	SP: ff
c7bb	0	DEY	A: 0	X: ff	Y: bf	SP: ff
c7bc	c7b9	BNE	A: 0	X: ff	Y: be	SP: ff
c7b9	5be	STA	A: 0	X: ff	Y: be	SP: ff
c7bb	0	DEY	A: 0	X: ff	Y: be	SP: ff
c7bc	c7b9	BNE	A: 0	X: ff	Y: bd	SP: ff
c7b9	5bd	STA	A: 0	X: ff	Y: bd	SP: ff
c7bb	0	DEY	A: 0	X: ff	Y: bd	SP: ff
c7bc	c7b9	BNE	A: 0	X: ff	Y: bc	SP: ff
c7b9	5bc	STA	A: 0	X: ff	Y: bc	SP: ff
c7bb	0	DEY	A: 0	X: ff	Y: bc	SP: ff
c7bc	c7b9	BNE	A: 0	X: ff	Y: bb	SP: ff
c7b9	5bb	STA	A: 0	X: ff	Y: bb	SP: ff
c7bb	0	DEY	A: 0	X: ff	Y: bb	SP: ff
c7bc	c7b9	BNE	A: 0	X: ff	Y: ba	SP: ff
c7b9	5ba	STA	A: 0	X: ff	Y: ba	SP: ff
c7bb	0	DEY	A: 0	X: ff	Y: ba	SP: ff
c7bc	c7b9	BNE	A: 0	X: ff	Y: b9	SP: ff
c7b9	5b9	STA	A: 0	X: ff	Y: b9	SP: ff
c7bb	0	DEY	A: 0	X: ff	Y: b9	SP: ff
c7bc	c7b9	BNE	A: 0	X: ff	Y: b8	SP: ff
c7b9	5b8	STA	A: 0	X: ff	Y: b8	SP: ff
c7bb	0	DEY	A: 0	X: ff	Y: b8	SP: ff
c7bc	c7b9	BNE	A: 0	X: ff	Y: b7	SP: ff
c7b9	5b7	STA	A: 0	X: ff	Y: b7	SP: ff
c7bb	0	DEY	A: 0	X: ff	Y: b7	SP: ff
c7bc	c7b9	BNE	A: 0	X: ff	Y: b6	SP: ff
c7b9	5b6	STA	A: 0	X: ff	Y: b6	SP: ff
c7bb	0	DEY	A: 0	X: ff	Y: b6	SP: ff
c7bc	c7b9	BNE	A: 0	X: ff	Y: b5	SP: ff
c7b9	5b5	STA	A: 0	X: ff	Y: b5	SP: ff
c7bb	0	DEY	A: 0	X: ff	Y: b5	SP: ff
c7bc	c7b9	BNE	A: 0	X: ff	Y: b4	SP: ff
c7b9	5b4	STA	A: 0	X: ff	Y: b4	SP: ff
c7bb	0	DEY	A: 0	X: ff	Y: b4	SP: ff
c7bc	c7b9	BNE	A: 0	X: ff	Y: b3	SP: ff
c7b9	5b3	STA	A: 0	X: ff	Y: b3	SP: ff
c7bb	0	DEY	A: 0	X: ff	Y: b3	SP: ff
c7bc	c7b9	BNE	A: 0	X: ff	Y: b2	SP: ff
c7b9	5b2	STA	A: 0	X: ff	Y: b2	SP: ff
c7bb	0	DEY	A: 0	X: ff	Y: b2	SP: ff
c7bc	c7b9	BNE	A: 0	X: ff	Y: b1	SP: ff
c7b9	5b1	STA	A: 0	X: ff	Y: b1	SP: ff
c7bb	0	DEY	A: 0	X: ff	Y: b1	SP: ff
c7bc	c7b9	BNE	A: 0	X: ff	Y: b0	SP: ff
c7b9	5b0	STA	A: 0	X: ff	Y: b0	SP: ff
c7bb	0	DEY	A: 0	X: ff	Y: b0	SP: ff
c7bc	c7b9	BNE	A: 0	X: ff	Y: af	SP: ff
c7b9	5af	STA	A: 0	X: ff	Y: af	SP: ff
c7bb	0	DEY	A: 0	X: ff	Y: af	SP: ff
c7bc	c7b9	BNE	A: 0	X: ff	Y: ae	SP: ff
c7b9	5ae	STA	A: 0	X: ff	Y: ae	SP: ff
c7bb	0	DEY	A: 0	X: ff	Y: ae	SP: ff
c7bc	c7b9	BNE	A: 0	X: ff	Y: ad	SP: ff
c7b9	5ad	STA	A: 0	X: ff	Y: ad	SP: ff
c7bb	0	DEY	A: 0	X: ff	Y: ad	SP: ff
c7bc	c7b9	BNE	A: 0	X: ff	Y: ac	SP: ff
c7b9	5ac	STA	A: 0	X: ff	Y: ac	SP: ff
c7bb	0	DEY	A: 0	X: ff	Y: ac	SP: ff
c7bc	c7b9	BNE	A: 0	X: ff	Y: ab	SP: ff
c7b9	5ab	STA	A: 0	X: ff	Y: ab	SP: ff
c7bb	0	DEY	A: 0	X: ff	Y: ab	SP: ff
c7bc	c7b9	BNE	A: 0	X: ff	Y: aa	SP: ff
c7b9	5aa	STA	A: 0	X: ff	Y: aa	SP: ff
c7bb	0	DEY	A: 0	X: ff	Y: aa	SP: ff
c7bc	c7b9	BNE	A: 0	X: ff	Y: a9	SP: ff
c7b9	5a9	STA	A: 0	X: ff	Y: a9	SP: ff
c7bb	0	DEY	A: 0	X: ff	Y: a9	SP: ff
c7bc	c7b9	BNE	A: 0	X: ff	Y: a8	SP: ff
c7b9	5a8	STA	A: 0	X: ff	Y: a8	SP: ff
c7bb	0	DEY	A: 0	X: ff	Y: a8	SP: ff
c7bc	c7b9	BNE	A: 0	X: ff	Y: a7	SP: ff
c7b9	5a7	STA	A: 0	X: ff	Y: a7	SP: ff
c7bb	0	DEY	A: 0	X: ff	Y: a7	SP: ff
c7bc	c7b9	BNE	A: 0	X: ff	Y: a6	SP: ff
c7b9	5a6	STA	A: 0	X: ff	Y: a6	SP: ff
c7bb	0	DEY	A: 0	X: ff	Y: a6	SP: ff
c7bc	c7b9	BNE	A: 0	X: ff	Y: a5	SP: ff
c7b9	5a5	STA	A: 0	X: ff	Y: a5	SP: ff
c7bb	0	DEY	A: 0	X: ff	Y: a5	SP: ff
c7bc	c7b9	BNE	A: 0	X: ff	Y: a4	SP: ff
c7b9	5a4	STA	A: 0	X: ff	Y: a4	SP: ff
c7bb	0	DEY	A: 0	X: ff	Y: a4	SP: ff
c7bc	c7b9	BNE	A: 0	X: ff	Y: a3	SP: ff
c7b9	5a3	STA	A: 0	X: ff	Y: a3	SP: ff
c7bb	0	DEY	A: 0	X: ff	Y: a3	SP: ff
c7bc	c7b9	BNE	A: 0	X: ff	Y: a2	SP: ff
c7b9	5a2	STA	A: 0	X: ff	Y: a2	SP: ff
c7bb	0	DEY	A: 0	X: ff	Y: a2	SP: ff
c7bc	c7b9	BNE	A: 0	X: ff	Y: a1	SP: ff
c7b9	5a1	STA	A: 0	X: ff	Y: a1	SP: ff
c7bb	0	DEY	A: 0	X: ff	Y: a1	SP: ff
c7bc	c7b9	BNE	A: 0	X: ff	Y: a0	SP: ff
c7b9	5a0	STA	A: 0	X: ff	Y: a0	SP: ff
c7bb	0	DEY	A: 0	X: ff	Y: a0	SP: ff
c7bc	c7b9	BNE	A: 0	X: ff	Y: 9f	SP: ff
c7b9	59f	STA	A: 0	X: ff	Y: 9f	SP: ff
c7bb	0	DEY	A: 0	X: ff	Y: 9f	SP: ff
c7bc	c7b9	BNE	A: 0	X: ff	Y: 9e	SP: ff
c7b9	59e	STA	A: 0	X: ff	Y: 9e	SP: ff
c7bb	0	DEY	A: 0	X: ff	Y: 9e	SP: ff
c7bc	c7b9	BNE	A: 0	X: ff	Y: 9d	SP: ff
c7b9	59d	STA	A: 0	X: ff	Y: 9d	SP: ff
c7bb	0	DEY	A: 0	X: ff	Y: 9d	SP: ff
c7bc	c7b9	BNE	A: 0	X: ff	Y: 9c	SP: ff
c7b9	59c	STA	A: 0	X: ff	Y: 9c	SP: ff
c7bb	0	DEY	A: 0	X: ff	Y: 9c	SP: ff
c7bc	c7b9	BNE	A: 0	X: ff	Y: 9b	SP: ff
c7b9	59b	STA	A: 0	X: ff	Y: 9b	SP: ff
c7bb	0	DEY	A: 0	X: ff	Y: 9b	SP: ff
c7bc	c7b9	BNE	A: 0	X: ff	Y: 9a	SP: ff
c7b9	59a	STA	A: 0	X: ff	Y: 9a	SP: ff
c7bb	0	DEY	A: 0	X: ff	Y: 9a	SP: ff
c7bc	c7b9	BNE	A: 0	X: ff	Y: 99	SP: ff
c7b9	599	STA	A: 0	X: ff	Y: 99	SP: ff
c7bb	0	DEY	A: 0	X: ff	Y: 99	SP: ff
c7bc	c7b9	BNE	A: 0	X: ff	Y: 98	SP: ff
c7b9	598	STA	A: 0	X: ff	Y: 98	SP: ff
c7bb	0	DEY	A: 0	X: ff	Y: 98	SP: ff
c7bc	c7b9	BNE	A: 0	X: ff	Y: 97	SP: ff
c7b9	597	STA	A: 0	X: ff	Y: 97	SP: ff
c7bb	0	DEY	A: 0	X: ff	Y: 97	SP: ff
c7bc	c7b9	BNE	A: 0	X: ff	Y: 96	SP: ff
c7b9	596	STA	A: 0	X: ff	Y: 96	SP: ff
c7bb	0	DEY	A: 0	X: ff	Y: 96	SP: ff
c7bc	c7b9	BNE	A: 0	X: ff	Y: 95	SP: ff
c7b9	595	STA	A: 0	X: ff	Y: 95	SP: ff
c7bb	0	DEY	A: 0	X: ff	Y: 95	SP: ff
c7bc	c7b9	BNE	A: 0	X: ff	Y: 94	SP: ff
c7b9	594	STA	A: 0	X: ff	Y: 94	SP: ff
c7bb	0	DEY	A: 0	X: ff	Y: 94	SP: ff
c7bc	c7b9	BNE	A: 0	X: ff	Y: 93	SP: ff
c7b9	593	STA	A: 0	X: ff	Y: 93	SP: ff
c7bb	0	DEY	A: 0	X: ff	Y: 93	SP: ff
c7bc	c7b9	BNE	A: 0	X: ff	Y: 92	SP: ff
c7b9	592	STA	A: 0	X: ff	Y: 92	SP: ff
c7bb	0	DEY	A: 0	X: ff	Y: 92	SP: ff
c7bc	c7b9	BNE	A: 0	X: ff	Y: 91	SP: ff
c7b9	591	STA	A: 0	X: ff	Y: 91	SP: ff
c7bb	0	DEY	A: 0	X: ff	Y: 91	SP: ff
c7bc	c7b9	BNE	A: 0	X: ff	Y: 90	SP: ff
c7b9	590	STA	A: 0	X: ff	Y: 90	SP: ff
c7bb	0	DEY	A: 0	X: ff	Y: 90	SP: ff
c7bc	c7b9	BNE	A: 0	X: ff	Y: 8f	SP: ff
c7b9	58f	STA	A: 0	X: ff	Y: 8f	SP: ff
c7bb	0	DEY	A: 0	X: ff	Y: 8f	SP: ff
c7bc	c7b9	BNE	A: 0	X: ff	Y: 8e	SP: ff
c7b9	58e	STA	A: 0	X: ff	Y: 8e	SP: ff
c7bb	0	DEY	A: 0	X: ff	Y: 8e	SP: ff
c7bc	c7b9	BNE	A: 0	X: ff	Y: 8d	SP: ff
c7b9	58d	STA	A: 0	X: ff	Y: 8d	SP: ff
c7bb	0	DEY	A: 0	X: ff	Y: 8d	SP: ff
c7bc	c7b9	BNE	A: 0	X: ff	Y: 8c	SP: ff
c7b9	58c	STA	A: 0	X: ff	Y: 8c	SP: ff
c7bb	0	DEY	A: 0	X: ff	Y: 8c	SP: ff
c7bc	c7b9	BNE	A: 0	X: ff	Y: 8b	SP: ff
c7b9	58b	STA	A: 0	X: ff	Y: 8b	SP: ff
c7bb	0	DEY	A: 0	X: ff	Y: 8b	SP: ff
c7bc	c7b9	BNE	A: 0	X: ff	Y: 8a	SP: ff
c7b9	58a	STA	A: 0	X: ff	Y: 8a	SP: ff
c7bb	0	DEY	A: 0	X: ff	Y: 8a	SP: ff
c7bc	c7b9	BNE	A: 0	X: ff	Y: 89	SP: ff
c7b9	589	STA	A: 0	X: ff	Y: 89	SP: ff
c7bb	0	DEY	A: 0	X: ff	Y: 89	SP: ff
c7bc	c7b9	BNE	A: 0	X: ff	Y: 88	SP: ff
c7b9	588	STA	A: 0	X: ff	Y: 88	SP: ff
c7bb	0	DEY	A: 0	X: ff	Y: 88	SP: ff
c7bc	c7b9	BNE	A: 0	X: ff	Y: 87	SP: ff
c7b9	587	STA	A: 0	X: ff	Y: 87	SP: ff
c7bb	0	DEY	A: 0	X: ff	Y: 87	SP: ff
c7bc	c7b9	BNE	A: 0	X: ff	Y: 86	SP: ff
c7b9	586	STA	A: 0	X: ff	Y: 86	SP: ff
c7bb	0	DEY	A: 0	X: ff	Y: 86	SP: ff
c7bc	c7b9	BNE	A: 0	X: ff	Y: 85	SP: ff
c7b9	585	STA	A: 0	X: ff	Y: 85	SP: ff
c7bb	0	DEY	A: 0	X: ff	Y: 85	SP: ff
c7bc	c7b9	BNE	A: 0	X: ff	Y: 84	SP: ff
c7b9	584	STA	A: 0	X: ff	Y: 84	SP: ff
c7bb	0	DEY	A: 0	X: ff	Y: 84	SP: ff
c7bc	c7b9	BNE	A: 0	X: ff	Y: 83	SP: ff
c7b9	583	STA	A: 0	X: ff	Y: 83	SP: ff
c7bb	0	DEY	A: 0	X: ff	Y: 83	SP: ff
c7bc	c7b9	BNE	A: 0	X: ff	Y: 82	SP: ff
c7b9	582	STA	A: 0	X: ff	Y: 82	SP: ff
c7bb	0	DEY	A: 0	X: ff	Y: 82	SP: ff
c7bc	c7b9	BNE	A: 0	X: ff	Y: 81	SP: ff
c7b9	581	STA	A: 0	X: ff	Y: 81	SP: ff
c7bb	0	DEY	A: 0	X: ff	Y: 81	SP: ff
c7bc	c7b9	BNE	A: 0	X: ff	Y: 80	SP: ff
c7b9	580	STA	A: 0	X: ff	Y: 80	SP: ff
c7bb	0	DEY	A: 0	X: ff	Y: 80	SP: ff
c7bc	c7b9	BNE	A: 0	X: ff	Y: 7f	SP: ff
c7b9	57f	STA	A: 0	X: ff	Y: 7f	SP: ff
c7bb	0	DEY	A: 0	X: ff	Y: 7f	SP: ff
c7bc	c7b9	BNE	A: 0	X: ff	Y: 7e	SP: ff
c7b9	57e	STA	A: 0	X: ff	Y: 7e	SP: ff
c7bb	0	DEY	A: 0	X: ff	Y: 7e	SP: ff
c7bc	c7b9	BNE	A: 0	X: ff	Y: 7d	SP: ff
c7b9	57d	STA	A: 0	X: ff	Y: 7d	SP: ff
c7bb	0	DEY	A: 0	X: ff	Y: 7d	SP: ff
c7bc	c7b9	BNE	A: 0	X: ff	Y: 7c	SP: ff
c7b9	57c	STA	A: 0	X: ff	Y: 7c	SP: ff
c7bb	0	DEY	A: 0	X: ff	Y: 7c	SP: ff
c7bc	c7b9	BNE	A: 0	X: ff	Y: 7b	SP: ff
c7b9	57b	STA	A: 0	X: ff	Y: 7b	SP: ff
c7bb	0	DEY	A: 0	X: ff	Y: 7b	SP: ff
c7bc	c7b9	BNE	A: 0	X: ff	Y: 7a	SP: ff
c7b9	57a	STA	A: 0	X: ff	Y: 7a	SP: ff
c7bb	0	DEY	A: 0	X: ff	Y: 7a	SP: ff
c7bc	c7b9	BNE	A: 0	X: ff	Y: 79	SP: ff
c7b9	579	STA	A: 0	X: ff	Y: 79	SP: ff
c7bb	0	DEY	A: 0	X: ff	Y: 79	SP: ff
c7bc	c7b9	BNE	A: 0	X: ff	Y: 78	SP: ff
c7b9	578	STA	A: 0	X: ff	Y: 78	SP: ff
c7bb	0	DEY	A: 0	X: ff	Y: 78	SP: ff
c7bc	c7b9	BNE	A: 0	X: ff	Y: 77	SP: ff
c7b9	577	STA	A: 0	X: ff	Y: 77	SP: ff
c7bb	0	DEY	A: 0	X: ff	Y: 77	SP: ff
c7bc	c7b9	BNE	A: 0	X: ff	Y: 76	SP: ff
c7b9	576	STA	A: 0	X: ff	Y: 76	SP: ff
c7bb	0	DEY	A: 0	X: ff	Y: 76	SP: ff
c7bc	c7b9	BNE	A: 0	X: ff	Y: 75	SP: ff
c7b9	575	STA	A: 0	X: ff	Y: 75	SP: ff
c7bb	0	DEY	A: 0	X: ff	Y: 75	SP: ff
c7bc	c7b9	BNE	A: 0	X: ff	Y: 74	SP: ff
c7b9	574	STA	A: 0	X: ff	Y: 74	SP: ff
c7bb	0	DEY	A: 0	X: ff	Y: 74	SP: ff
c7bc	c7b9	BNE	A: 0	X: ff	Y: 73	SP: ff
c7b9	573	STA	A: 0	X: ff	Y: 73	SP: ff
c7bb	0	DEY	A: 0	X: ff	Y: 73	SP: ff
c7bc	c7b9	BNE	A: 0	X: ff	Y: 72	SP: ff
c7b9	572	STA	A: 0	X: ff	Y: 72	SP: ff
c7bb	0	DEY	A: 0	X: ff	Y: 72	SP: ff
c7bc	c7b9	BNE	A: 0	X: ff	Y: 71	SP: ff
c7b9	571	STA	A: 0	X: ff	Y: 71	SP: ff
c7bb	0	DEY	A: 0	X: ff	Y: 71	SP: ff
c7bc	c7b9	BNE	A: 0	X: ff	Y: 70	SP: ff
c7b9	570	STA	A: 0	X: ff	Y: 70	SP: ff
c7bb	0	DEY	A: 0	X: ff	Y: 70	SP: ff
c7bc	c7b9	BNE	A: 0	X: ff	Y: 6f	SP: ff
c7b9	56f	STA	A: 0	X: ff	Y: 6f	SP: ff
c7bb	0	DEY	A: 0	X: ff	Y: 6f	SP: ff
c7bc	c7b9	BNE	A: 0	X: ff	Y: 6e	SP: ff
c7b9	56e	STA	A: 0	X: ff	Y: 6e	SP: ff
c7bb	0	DEY	A: 0	X: ff	Y: 6e	SP: ff
c7bc	c7b9	BNE	A: 0	X: ff	Y: 6d	SP: ff
c7b9	56d	STA	A: 0	X: ff	Y: 6d	SP: ff
c7bb	0	DEY	A: 0	X: ff	Y: 6d	SP: ff
c7bc	c7b9	BNE	A: 0	X: ff	Y: 6c	SP: ff
c7b9	56c	STA	A: 0	X: ff	Y: 6c	SP: ff
c7bb	0	DEY	A: 0	X: ff	Y: 6c	SP: ff
c7bc	c7b9	BNE	A: 0	X: ff	Y: 6b	SP: ff
c7b9	56b	STA	A: 0	X: ff	Y: 6b	SP: ff
c7bb	0	DEY	A: 0	X: ff	Y: 6b	SP: ff
c7bc	c7b9	BNE	A: 0	X: ff	Y: 6a	SP: ff
c7b9	56a	STA	A: 0	X: ff	Y: 6a	SP: ff
c7bb	0	DEY	A: 0	X: ff	Y: 6a	SP: ff
c7bc	c7b9	BNE	A: 0	X: ff	Y: 69	SP: ff
c7b9	569	STA	A: 0	X: ff	Y: 69	SP: ff
c7bb	0	DEY	A: 0	X: ff	Y: 69	SP: ff
c7bc	c7b9	BNE	A: 0	X: ff	Y: 68	SP: ff
c7b9	568	STA	A: 0	X: ff	Y: 68	SP: ff
c7bb	0	DEY	A: 0	X: ff	Y: 68	SP: ff
c7bc	c7b9	BNE	A: 0	X: ff	Y: 67	SP: ff
c7b9	567	STA	A: 0	X: ff	Y: 67	SP: ff
c7bb	0	DEY	A: 0	X: ff	Y: 67	SP: ff
c7bc	c7b9	BNE	A: 0	X: ff	Y: 66	SP: ff
c7b9	566	STA	A: 0	X: ff	Y: 66	SP: ff
c7bb	0	DEY	A: 0	X: ff	Y: 66	SP: ff
c7bc	c7b9	BNE	A: 0	X: ff	Y: 65	SP: ff
c7b9	565	STA	A: 0	X: ff	Y: 65	SP: ff
c7bb	0	DEY	A: 0	X: ff	Y: 65	SP: ff
c7bc	c7b9	BNE	A: 0	X: ff	Y: 64	SP: ff
c7b9	564	STA	A: 0	X: ff	Y: 64	SP: ff
c7bb	0	DEY	A: 0	X: ff	Y: 64	SP: ff
c7bc	c7b9	BNE	A: 0	X: ff	Y: 63	SP: ff
c7b9	563	STA	A: 0	X: ff	Y: 63	SP: ff
c7bb	0	DEY	A: 0	X: ff	Y: 63	SP: ff
c7bc	c7b9	BNE	A: 0	X: ff	Y: 62	SP: ff
c7b9	562	STA	A: 0	X: ff	Y: 62	SP: ff
c7bb	0	DEY	A: 0	X: ff	Y: 62	SP: ff
c7bc	c7b9	BNE	A: 0	X: ff	Y: 61	SP: ff
c7b9	561	STA	A: 0	X: ff	Y: 61	SP: ff
c7bb	0	DEY	A: 0	X: ff	Y: 61	SP: ff
c7bc	c7b9	BNE	A: 0	X: ff	Y: 60	SP: ff
c7b9	560	STA	A: 0	X: ff	Y: 60	SP: ff
c7bb	0	DEY	A: 0	X: ff	Y: 60	SP: ff
c7bc	c7b9	BNE	A: 0	X: ff	Y: 5f	SP: ff
c7b9	55f	STA	A: 0	X: ff	Y: 5f	SP: ff
c7bb	0	DEY	A: 0	X: ff	Y: 5f	SP: ff
c7bc	c7b9	BNE	A: 0	X: ff	Y: 5e	SP: ff
c7b9	55e	STA	A: 0	X: ff	Y: 5e	SP: ff
c7bb	0	DEY	A: 0	X: ff	Y: 5e	SP: ff
c7bc	c7b9	BNE	A: 0	X: ff	Y: 5d	SP: ff
c7b9	55d	STA	A: 0	X: ff	Y: 5d	SP: ff
c7bb	0	DEY	A: 0	X: ff	Y: 5d	SP: ff
c7bc	c7b9	BNE	A: 0	X: ff	Y: 5c	SP: ff
c7b9	55c	STA	A: 0	X: ff	Y: 5c	SP: ff
c7bb	0	DEY	A: 0	X: ff	Y: 5c	SP: ff
c7bc	c7b9	BNE	A: 0	X: ff	Y: 5b	SP: ff
c7b9	55b	STA	A: 0	X: ff	Y: 5b	SP: ff
c7bb	0	DEY	A: 0	X: ff	Y: 5b	SP: ff
c7bc	c7b9	BNE	A: 0	X: ff	Y: 5a	SP: ff
c7b9	55a	STA	A: 0	X: ff	Y: 5a	SP: ff
c7bb	0	DEY	A: 0	X: ff	Y: 5a	SP: ff
c7bc	c7b9	BNE	A: 0	X: ff	Y: 59	SP: ff
c7b9	559	STA	A: 0	X: ff	Y: 59	SP: ff
c7bb	0	DEY	A: 0	X: ff	Y: 59	SP: ff
c7bc	c7b9	BNE	A: 0	X: ff	Y: 58	SP: ff
c7b9	558	STA	A: 0	X: ff	Y: 58	SP: ff
c7bb	0	DEY	A: 0	X: ff	Y: 58	SP: ff
c7bc	c7b9	BNE	A: 0	X: ff	Y: 57	SP: ff
c7b9	557	STA	A: 0	X: ff	Y: 57	SP: ff
c7bb	0	DEY	A: 0	X: ff	Y: 57	SP: ff
c7bc	c7b9	BNE	A: 0	X: ff	Y: 56	SP: ff
c7b9	556	STA	A: 0	X: ff	Y: 56	SP: ff
c7bb	0	DEY	A: 0	X: ff	Y: 56	SP: ff
c7bc	c7b9	BNE	A: 0	X: ff	Y: 55	SP: ff
c7b9	555	STA	A: 0	X: ff	Y: 55	SP: ff
c7bb	0	DEY	A: 0	X: ff	Y: 55	SP: ff
c7bc	c7b9	BNE	A: 0	X: ff	Y: 54	SP: ff
c7b9	554	STA	A: 0	X: ff	Y: 54	SP: ff
c7bb	0	DEY	A: 0	X: ff	Y: 54	SP: ff
c7bc	c7b9	BNE	A: 0	X: ff	Y: 53	SP: ff
c7b9	553	STA	A: 0	X: ff	Y: 53	SP: ff
c7bb	0	DEY	A: 0	X: ff	Y: 53	SP: ff
c7bc	c7b9	BNE	A: 0	X: ff	Y: 52	SP: ff
c7b9	552	STA	A: 0	X: ff	Y: 52	SP: ff
c7bb	0	DEY	A: 0	X: ff	Y: 52	SP: ff
c7bc	c7b9	BNE	A: 0	X: ff	Y: 51	SP: ff
c7b9	551	STA	A: 0	X: ff	Y: 51	SP: ff
c7bb	0	DEY	A: 0	X: ff	Y: 51	SP: ff
c7bc	c7b9	BNE	A: 0	X: ff	Y: 50	SP: ff
c7b9	550	STA	A: 0	X: ff	Y: 50	SP: ff
c7bb	0	DEY	A: 0	X: ff	Y: 50	SP: ff
c7bc	c7b9	BNE	A: 0	X: ff	Y: 4f	SP: ff
c7b9	54f	STA	A: 0	X: ff	Y: 4f	SP: ff
c7bb	0	DEY	A: 0	X: ff	Y: 4f	SP: ff
c7bc	c7b9	BNE	A: 0	X: ff	Y: 4e	SP: ff
c7b9	54e	STA	A: 0	X: ff	Y: 4e	SP: ff
c7bb	0	DEY	A: 0	X: ff	Y: 4e	SP: ff
c7bc	c7b9	BNE	A: 0	X: ff	Y: 4d	SP: ff
c7b9	54d	STA	A: 0	X: ff	Y: 4d	SP: ff
c7bb	0	DEY	A: 0	X: ff	Y: 4d	SP: ff
c7bc	c7b9	BNE	A: 0	X: ff	Y: 4c	SP: ff
c7b9	54c	STA	A: 0	X: ff	Y: 4c	SP: ff
c7bb	0	DEY	A: 0	X: ff	Y: 4c	SP: ff
c7bc	c7b9	BNE	A: 0	X: ff	Y: 4b	SP: ff
c7b9	54b	STA	A: 0	X: ff	Y: 4b	SP: ff
c7bb	0	DEY	A: 0	X: ff	Y: 4b	SP: ff
c7bc	c7b9	BNE	A: 0	X: ff	Y: 4a	SP: ff
c7b9	54a	STA	A: 0	X: ff	Y: 4a	SP: ff
c7bb	0	DEY	A: 0	X: ff	Y: 4a	SP: ff
c7bc	c7b9	BNE	A: 0	X: ff	Y: 49	SP: ff
c7b9	549	STA	A: 0	X: ff	Y: 49	SP: ff
c7bb	0	DEY	A: 0	X: ff	Y: 49	SP: ff
c7bc	c7b9	BNE	A: 0	X: ff	Y: 48	SP: ff
c7b9	548	STA	A: 0	X: ff	Y: 48	SP: ff
c7bb	0	DEY	A: 0	X: ff	Y: 48	SP: ff
c7bc	c7b9	BNE	A: 0	X: ff	Y: 47	SP: ff
c7b9	547	STA	A: 0	X: ff	Y: 47	SP: ff
c7bb	0	DEY	A: 0	X: ff	Y: 47	SP: ff
c7bc	c7b9	BNE	A: 0	X: ff	Y: 46	SP: ff
c7b9	546	STA	A: 0	X: ff	Y: 46	SP: ff
c7bb	0	DEY	A: 0	X: ff	Y: 46	SP: ff
c7bc	c7b9	BNE	A: 0	X: ff	Y: 45	SP: ff
c7b9	545	STA	A: 0	X: ff	Y: 45	SP: ff
c7bb	0	DEY	A: 0	X: ff	Y: 45	SP: ff
c7bc	c7b9	BNE	A: 0	X: ff	Y: 44	SP: ff
c7b9	544	STA	A: 0	X: ff	Y: 44	SP: ff
c7bb	0	DEY	A: 0	X: ff	Y: 44	SP: ff
c7bc	c7b9	BNE	A: 0	X: ff	Y: 43	SP: ff
c7b9	543	STA	A: 0	X: ff	Y: 43	SP: ff
c7bb	0	DEY	A: 0	X: ff	Y: 43	SP: ff
c7bc	c7b9	BNE	A: 0	X: ff	Y: 42	SP: ff
c7b9	542	STA	A: 0	X: ff	Y: 42	SP: ff
c7bb	0	DEY	A: 0	X: ff	Y: 42	SP: ff
c7bc	c7b9	BNE	A: 0	X: ff	Y: 41	SP: ff
c7b9	541	STA	A: 0	X: ff	Y: 41	SP: ff
c7bb	0	DEY	A: 0	X: ff	Y: 41	SP: ff
c7bc	c7b9	BNE	A: 0	X: ff	Y: 40	SP: ff
c7b9	540	STA	A: 0	X: ff	Y: 40	SP: ff
c7bb	0	DEY	A: 0	X: ff	Y: 40	SP: ff
c7bc	c7b9	BNE	A: 0	X: ff	Y: 3f	SP: ff
c7b9	53f	STA	A: 0	X: ff	Y: 3f	SP: ff
c7bb	0	DEY	A: 0	X: ff	Y: 3f	SP: ff
c7bc	c7b9	BNE	A: 0	X: ff	Y: 3e	SP: ff
c7b9	53e	STA	A: 0	X: ff	Y: 3e	SP: ff
c7bb	0	DEY	A: 0	X: ff	Y: 3e	SP: ff
c7bc	c7b9	BNE	A: 0	X: ff	Y: 3d	SP: ff
c7b9	53d	STA	A: 0	X: ff	Y: 3d	SP: ff
c7bb	0	DEY	A: 0	X: ff	Y: 3d	SP: ff
c7bc	c7b9	BNE	A: 0	X: ff	Y: 3c	SP: ff
c7b9	53c	STA	A: 0	X: ff	Y: 3c	SP: ff
c7bb	0	DEY	A: 0	X: ff	Y: 3c	SP: ff
c7bc	c7b9	BNE	A: 0	X: ff	Y: 3b	SP: ff
c7b9	53b	STA	A: 0	X: ff	Y: 3b	SP: ff
c7bb	0	DEY	A: 0	X: ff	Y: 3b	SP: ff
c7bc	c7b9	BNE	A: 0	X: ff	Y: 3a	SP: ff
c7b9	53a	STA	A: 0	X: ff	Y: 3a	SP: ff
c7bb	0	DEY	A: 0	X: ff	Y: 3a	SP: ff
c7bc	c7b9	BNE	A: 0	X: ff	Y: 39	SP: ff
c7b9	539	STA	A: 0	X: ff	Y: 39	SP: ff
c7bb	0	DEY	A: 0	X: ff	Y: 39	SP: ff
c7bc	c7b9	BNE	A: 0	X: ff	Y: 38	SP: ff
c7b9	538	STA	A: 0	X: ff	Y: 38	SP: ff
c7bb	0	DEY	A: 0	X: ff	Y: 38	SP: ff
c7bc	c7b9	BNE	A: 0	X: ff	Y: 37	SP: ff
c7b9	537	STA	A: 0	X: ff	Y: 37	SP: ff
c7bb	0	DEY	A: 0	X: ff	Y: 37	SP: ff
c7bc	c7b9	BNE	A: 0	X: ff	Y: 36	SP: ff
c7b9	536	STA	A: 0	X: ff	Y: 36	SP: ff
c7bb	0	DEY	A: 0	X: ff	Y: 36	SP: ff
c7bc	c7b9	BNE	A: 0	X: ff	Y: 35	SP: ff
c7b9	535	STA	A: 0	X: ff	Y: 35	SP: ff
c7bb	0	DEY	A: 0	X: ff	Y: 35	SP: ff
c7bc	c7b9	BNE	A: 0	X: ff	Y: 34	SP: ff
c7b9	534	STA	A: 0	X: ff	Y: 34	SP: ff
c7bb	0	DEY	A: 0	X: ff	Y: 34	SP: ff
c7bc	c7b9	BNE	A: 0	X: ff	Y: 33	SP: ff
c7b9	533	STA	A: 0	X: ff	Y: 33	SP: ff
c7bb	0	DEY	A: 0	X: ff	Y: 33	SP: ff
c7bc	c7b9	BNE	A: 0	X: ff	Y: 32	SP: ff
c7b9	532	STA	A: 0	X: ff	Y: 32	SP: ff
c7bb	0	DEY	A: 0	X: ff	Y: 32	SP: ff
c7bc	c7b9	BNE	A: 0	X: ff	Y: 31	SP: ff
c7b9	531	STA	A: 0	X: ff	Y: 31	SP: ff
c7bb	0	DEY	A: 0	X: ff	Y: 31	SP: ff
c7bc	c7b9	BNE	A: 0	X: ff	Y: 30	SP: ff
c7b9	530	STA	A: 0	X: ff	Y: 30	SP: ff
c7bb	0	DEY	A: 0	X: ff	Y: 30	SP: ff
c7bc	c7b9	BNE	A: 0	X: ff	Y: 2f	SP: ff
c7b9	52f	STA	A: 0	X: ff	Y: 2f	SP: ff
c7bb	0	DEY	A: 0	X: ff	Y: 2f	SP: ff
c7bc	c7b9	BNE	A: 0	X: ff	Y: 2e	SP: ff
c7b9	52e	STA	A: 0	X: ff	Y: 2e	SP: ff
c7bb	0	DEY	A: 0	X: ff	Y: 2e	SP: ff
c7bc	c7b9	BNE	A: 0	X: ff	Y: 2d	SP: ff
c7b9	52d	STA	A: 0	X: ff	Y: 2d	SP: ff
c7bb	0	DEY	A: 0	X: ff	Y: 2d	SP: ff
c7bc	c7b9	BNE	A: 0	X: ff	Y: 2c	SP: ff
c7b9	52c	STA	A: 0	X: ff	Y: 2c	SP: ff
c7bb	0	DEY	A: 0	X: ff	Y: 2c	SP: ff
c7bc	c7b9	BNE	A: 0	X: ff	Y: 2b	SP: ff
c7b9	52b	STA	A: 0	X: ff	Y: 2b	SP: ff
c7bb	0	DEY	A: 0	X: ff	Y: 2b	SP: ff
c7bc	c7b9	BNE	A: 0	X: ff	Y: 2a	SP: ff
c7b9	52a	STA	A: 0	X: ff	Y: 2a	SP: ff
c7bb	0	DEY	A: 0	X: ff	Y: 2a	SP: ff
c7bc	c7b9	BNE	A: 0	X: ff	Y: 29	SP: ff
c7b9	529	STA	A: 0	X: ff	Y: 29	SP: ff
c7bb	0	DEY	A: 0	X: ff	Y: 29	SP: ff
c7bc	c7b9	BNE	A: 0	X: ff	Y: 28	SP: ff
c7b9	528	STA	A: 0	X: ff	Y: 28	SP: ff
c7bb	0	DEY	A: 0	X: ff	Y: 28	SP: ff
c7bc	c7b9	BNE	A: 0	X: ff	Y: 27	SP: ff
c7b9	527	STA	A: 0	X: ff	Y: 27	SP: ff
c7bb	0	DEY	A: 0	X: ff	Y: 27	SP: ff
c7bc	c7b9	BNE	A: 0	X: ff	Y: 26	SP: ff
c7b9	526	STA	A: 0	X: ff	Y: 26	SP: ff
c7bb	0	DEY	A: 0	X: ff	Y: 26	SP: ff
c7bc	c7b9	BNE	A: 0	X: ff	Y: 25	SP: ff
c7b9	525	STA	A: 0	X: ff	Y: 25	SP: ff
c7bb	0	DEY	A: 0	X: ff	Y: 25	SP: ff
c7bc	c7b9	BNE	A: 0	X: ff	Y: 24	SP: ff
c7b9	524	STA	A: 0	X: ff	Y: 24	SP: ff
c7bb	0	DEY	A: 0	X: ff	Y: 24	SP: ff
c7bc	c7b9	BNE	A: 0	X: ff	Y: 23	SP: ff
c7b9	523	STA	A: 0	X: ff	Y: 23	SP: ff
c7bb	0	DEY	A: 0	X: ff	Y: 23	SP: ff
c7bc	c7b9	BNE	A: 0	X: ff	Y: 22	SP: ff
c7b9	522	STA	A: 0	X: ff	Y: 22	SP: ff
c7bb	0	DEY	A: 0	X: ff	Y: 22	SP: ff
c7bc	c7b9	BNE	A: 0	X: ff	Y: 21	SP: ff
c7b9	521	STA	A: 0	X: ff	Y: 21	SP: ff
c7bb	0	DEY	A: 0	X: ff	Y: 21	SP: ff
c7bc	c7b9	BNE	A: 0	X: ff	Y: 20	SP: ff
c7b9	520	STA	A: 0	X: ff	Y: 20	SP: ff
c7bb	0	DEY	A: 0	X: ff	Y: 20	SP: ff
c7bc	c7b9	BNE	A: 0	X: ff	Y: 1f	SP: ff
c7b9	51f	STA	A: 0	X: ff	Y: 1f	SP: ff
c7bb	0	DEY	A: 0	X: ff	Y: 1f	SP: ff
c7bc	c7b9	BNE	A: 0	X: ff	Y: 1e	SP: ff
c7b9	51e	STA	A: 0	X: ff	Y: 1e	SP: ff
c7bb	0	DEY	A: 0	X: ff	Y: 1e	SP: ff
c7bc	c7b9	BNE	A: 0	X: ff	Y: 1d	SP: ff
c7b9	51d	STA	A: 0	X: ff	Y: 1d	SP: ff
c7bb	0	DEY	A: 0	X: ff	Y: 1d	SP: ff
c7bc	c7b9	BNE	A: 0	X: ff	Y: 1c	SP: ff
c7b9	51c	STA	A: 0	X: ff	Y: 1c	SP: ff
c7bb	0	DEY	A: 0	X: ff	Y: 1c	SP: ff
c7bc	c7b9	BNE	A: 0	X: ff	Y: 1b	SP: ff
c7b9	51b	STA	A: 0	X: ff	Y: 1b	SP: ff
c7bb	0	DEY	A: 0	X: ff	Y: 1b	SP: ff
c7bc	c7b9	BNE	A: 0	X: ff	Y: 1a	SP: ff
c7b9	51a	STA	A: 0	X: ff	Y: 1a	SP: ff
c7bb	0	DEY	A: 0	X: ff	Y: 1a	SP: ff
c7bc	c7b9	BNE	A: 0	X: ff	Y: 19	SP: ff
c7b9	519	STA	A: 0	X: ff	Y: 19	SP: ff
c7bb	0	DEY	A: 0	X: ff	Y: 19	SP: ff
c7bc	c7b9	BNE	A: 0	X: ff	Y: 18	SP: ff
c7b9	518	STA	A: 0	X: ff	Y: 18	SP: ff
c7bb	0	DEY	A: 0	X: ff	Y: 18	SP: ff
c7bc	c7b9	BNE	A: 0	X: ff	Y: 17	SP: ff
c7b9	517	STA	A: 0	X: ff	Y: 17	SP: ff
c7bb	0	DEY	A: 0	X: ff	Y: 17	SP: ff
c7bc	c7b9	BNE	A: 0	X: ff	Y: 16	SP: ff
c7b9	516	STA	A: 0	X: ff	Y: 16	SP: ff
c7bb	0	DEY	A: 0	X: ff	Y: 16	SP: ff
c7bc	c7b9	BNE	A: 0	X: ff	Y: 15	SP: ff
c7b9	515	STA	A: 0	X: ff	Y: 15	SP: ff
c7bb	0	DEY	A: 0	X: ff	Y: 15	SP: ff
c7bc	c7b9	BNE	A: 0	X: ff	Y: 14	SP: ff
c7b9	514	STA	A: 0	X: ff	Y: 14	SP: ff
c7bb	0	DEY	A: 0	X: ff	Y: 14	SP: ff
c7bc	c7b9	BNE	A: 0	X: ff	Y: 13	SP: ff
c7b9	513	STA	A: 0	X: ff	Y: 13	SP: ff
c7bb	0	DEY	A: 0	X: ff	Y: 13	SP: ff
c7bc	c7b9	BNE	A: 0	X: ff	Y: 12	SP: ff
c7b9	512	STA	A: 0	X: ff	Y: 12	SP: ff
c7bb	0	DEY	A: 0	X: ff	Y: 12	SP: ff
c7bc	c7b9	BNE	A: 0	X: ff	Y: 11	SP: ff
c7b9	511	STA	A: 0	X: ff	Y: 11	SP: ff
c7bb	0	DEY	A: 0	X: ff	Y: 11	SP: ff
c7bc	c7b9	BNE	A: 0	X: ff	Y: 10	SP: ff
c7b9	510	STA	A: 0	X: ff	Y: 10	SP: ff
c7bb	0	DEY	A: 0	X: ff	Y: 10	SP: ff
c7bc	c7b9	BNE	A: 0	X: ff	Y: f	SP: ff
c7b9	50f	STA	A: 0	X: ff	Y: f	SP: ff
c7bb	0	DEY	A: 0	X: ff	Y: f	SP: ff
c7bc	c7b9	BNE	A: 0	X: ff	Y: e	SP: ff
c7b9	50e	STA	A: 0	X: ff	Y: e	SP: ff
c7bb	0	DEY	A: 0	X: ff	Y: e	SP: ff
c7bc	c7b9	BNE	A: 0	X: ff	Y: d	SP: ff
c7b9	50d	STA	A: 0	X: ff	Y: d	SP: ff
c7bb	0	DEY	A: 0	X: ff	Y: d	SP: ff
c7bc	c7b9	BNE	A: 0	X: ff	Y: c	SP: ff
c7b9	50c	STA	A: 0	X: ff	Y: c	SP: ff
c7bb	0	DEY	A: 0	X: ff	Y: c	SP: ff
c7bc	c7b9	BNE	A: 0	X: ff	Y: b	SP: ff
c7b9	50b	STA	A: 0	X: ff	Y: b	SP: ff
c7bb	0	DEY	A: 0	X: ff	Y: b	SP: ff
c7bc	c7b9	BNE	A: 0	X: ff	Y: a	SP: ff
c7b9	50a	STA	A: 0	X: ff	Y: a	SP: ff
c7bb	0	DEY	A: 0	X: ff	Y: a	SP: ff
c7bc	c7b9	BNE	A: 0	X: ff	Y: 9	SP: ff
c7b9	509	STA	A: 0	X: ff	Y: 9	SP: ff
c7bb	0	DEY	A: 0	X: ff	Y: 9	SP: ff
c7bc	c7b9	BNE	A: 0	X: ff	Y: 8	SP: ff
c7b9	508	STA	A: 0	X: ff	Y: 8	SP: ff
c7bb	0	DEY	A: 0	X: ff	Y: 8	SP: ff
c7bc	c7b9	BNE	A: 0	X: ff	Y: 7	SP: ff
c7b9	507	STA	A: 0	X: ff	Y: 7	SP: ff
c7bb	0	DEY	A: 0	X: ff	Y: 7	SP: ff
c7bc	c7b9	BNE	A: 0	X: ff	Y: 6	SP: ff
c7b9	506	STA	A: 0	X: ff	Y: 6	SP: ff
c7bb	0	DEY	A: 0	X: ff	Y: 6	SP: ff
c7bc	c7b9	BNE	A: 0	X: ff	Y: 5	SP: ff
c7b9	505	STA	A: 0	X: ff	Y: 5	SP: ff
c7bb	0	DEY	A: 0	X: ff	Y: 5	SP: ff
c7bc	c7b9	BNE	A: 0	X: ff	Y: 4	SP: ff
c7b9	504	STA	A: 0	X: ff	Y: 4	SP: ff
c7bb	0	DEY	A: 0	X: ff	Y: 4	SP: ff
c7bc	c7b9	BNE	A: 0	X: ff	Y: 3	SP: ff
c7b9	503	STA	A: 0	X: ff	Y: 3	SP: ff
c7bb	0	DEY	A: 0	X: ff	Y: 3	SP: ff
c7bc	c7b9	BNE	A: 0	X: ff	Y: 2	SP: ff
c7b9	502	STA	A: 0	X: ff	Y: 2	SP: ff
c7bb	0	DEY	A: 0	X: ff	Y: 2	SP: ff
c7bc	c7b9	BNE	A: 0	X: ff	Y: 1	SP: ff
c7b9	501	STA	A: 0	X: ff	Y: 1	SP: ff
c7bb	0	DEY	A: 0	X: ff	Y: 1	SP: ff
c7bc	c7b9	BNE	A: 0	X: ff	Y: 0	SP: ff
c7be	1	DEC	A: 0	X: ff	Y: 0	SP: ff
c7c0	c7b9	BPL	A: 0	X: ff	Y: 0	SP: ff
c7b9	400	STA	A: 0	X: ff	Y: 0	SP: ff
c7bb	0	DEY	A: 0	X: ff	Y: 0	SP: ff
c7bc	c7b9	BNE	A: 0	X: ff	Y: ff	SP: ff
c7b9	4ff	STA	A: 0	X: ff	Y: ff	SP: ff
c7bb	0	DEY	A: 0	X: ff	Y: ff	SP: ff
c7bc	c7b9	BNE	A: 0	X: ff	Y: fe	SP: ff
c7b9	4fe	STA	A: 0	X: ff	Y: fe	SP: ff
c7bb	0	DEY	A: 0	X: ff	Y: fe	SP: ff
c7bc	c7b9	BNE	A: 0	X: ff	Y: fd	SP: ff
c7b9	4fd	STA	A: 0	X: ff	Y: fd	SP: ff
c7bb	0	DEY	A: 0	X: ff	Y: fd	SP: ff
c7bc	c7b9	BNE	A: 0	X: ff	Y: fc	SP: ff
c7b9	4fc	STA	A: 0	X: ff	Y: fc	SP: ff
c7bb	0	DEY	A: 0	X: ff	Y: fc	SP: ff
c7bc	c7b9	BNE	A: 0	X: ff	Y: fb	SP: ff
c7b9	4fb	STA	A: 0	X: ff	Y: fb	SP: ff
c7bb	0	DEY	A: 0	X: ff	Y: fb	SP: ff
c7bc	c7b9	BNE	A: 0	X: ff	Y: fa	SP: ff
c7b9	4fa	STA	A: 0	X: ff	Y: fa	SP: ff
c7bb	0	DEY	A: 0	X: ff	Y: fa	SP: ff
c7bc	c7b9	BNE	A: 0	X: ff	Y: f9	SP: ff
c7b9	4f9	STA	A: 0	X: ff	Y: f9	SP: ff
c7bb	0	DEY	A: 0	X: ff	Y: f9	SP: ff
c7bc	c7b9	BNE	A: 0	X: ff	Y: f8	SP: ff
c7b9	4f8	STA	A: 0	X: ff	Y: f8	SP: ff
c7bb	0	DEY	A: 0	X: ff	Y: f8	SP: ff
c7bc	c7b9	BNE	A: 0	X: ff	Y: f7	SP: ff
c7b9	4f7	STA	A: 0	X: ff	Y: f7	SP: ff
c7bb	0	DEY	A: 0	X: ff	Y: f7	SP: ff
c7bc	c7b9	BNE	A: 0	X: ff	Y: f6	SP: ff
c7b9	4f6	STA	A: 0	X: ff	Y: f6	SP: ff
c7bb	0	DEY	A: 0	X: ff	Y: f6	SP: ff
c7bc	c7b9	BNE	A: 0	X: ff	Y: f5	SP: ff
c7b9	4f5	STA	A: 0	X: ff	Y: f5	SP: ff
c7bb	0	DEY	A: 0	X: ff	Y: f5	SP: ff
c7bc	c7b9	BNE	A: 0	X: ff	Y: f4	SP: ff
c7b9	4f4	STA	A: 0	X: ff	Y: f4	SP: ff
c7bb	0	DEY	A: 0	X: ff	Y: f4	SP: ff
c7bc	c7b9	BNE	A: 0	X: ff	Y: f3	SP: ff
c7b9	4f3	STA	A: 0	X: ff	Y: f3	SP: ff
c7bb	0	DEY	A: 0	X: ff	Y: f3	SP: ff
c7bc	c7b9	BNE	A: 0	X: ff	Y: f2	SP: ff
c7b9	4f2	STA	A: 0	X: ff	Y: f2	SP: ff
c7bb	0	DEY	A: 0	X: ff	Y: f2	SP: ff
c7bc	c7b9	BNE	A: 0	X: ff	Y: f1	SP: ff
c7b9	4f1	STA	A: 0	X: ff	Y: f1	SP: ff
c7bb	0	DEY	A: 0	X: ff	Y: f1	SP: ff
c7bc	c7b9	BNE	A: 0	X: ff	Y: f0	SP: ff
c7b9	4f0	STA	A: 0	X: ff	Y: f0	SP: ff
c7bb	0	DEY	A: 0	X: ff	Y: f0	SP: ff
c7bc	c7b9	BNE	A: 0	X: ff	Y: ef	SP: ff
c7b9	4ef	STA	A: 0	X: ff	Y: ef	SP: ff
c7bb	0	DEY	A: 0	X: ff	Y: ef	SP: ff
c7bc	c7b9	BNE	A: 0	X: ff	Y: ee	SP: ff
c7b9	4ee	STA	A: 0	X: ff	Y: ee	SP: ff
c7bb	0	DEY	A: 0	X: ff	Y: ee	SP: ff
c7bc	c7b9	BNE	A: 0	X: ff	Y: ed	SP: ff
c7b9	4ed	STA	A: 0	X: ff	Y: ed	SP: ff
c7bb	0	DEY	A: 0	X: ff	Y: ed	SP: ff
c7bc	c7b9	BNE	A: 0	X: ff	Y: ec	SP: ff
c7b9	4ec	STA	A: 0	X: ff	Y: ec	SP: ff
c7bb	0	DEY	A: 0	X: ff	Y: ec	SP: ff
c7bc	c7b9	BNE	A: 0	X: ff	Y: eb	SP: ff
c7b9	4eb	STA	A: 0	X: ff	Y: eb	SP: ff
c7bb	0	DEY	A: 0	X: ff	Y: eb	SP: ff
c7bc	c7b9	BNE	A: 0	X: ff	Y: ea	SP: ff
c7b9	4ea	STA	A: 0	X: ff	Y: ea	SP: ff
c7bb	0	DEY	A: 0	X: ff	Y: ea	SP: ff
c7bc	c7b9	BNE	A: 0	X: ff	Y: e9	SP: ff
c7b9	4e9	STA	A: 0	X: ff	Y: e9	SP: ff
c7bb	0	DEY	A: 0	X: ff	Y: e9	SP: ff
c7bc	c7b9	BNE	A: 0	X: ff	Y: e8	SP: ff
c7b9	4e8	STA	A: 0	X: ff	Y: e8	SP: ff
c7bb	0	DEY	A: 0	X: ff	Y: e8	SP: ff
c7bc	c7b9	BNE	A: 0	X: ff	Y: e7	SP: ff
c7b9	4e7	STA	A: 0	X: ff	Y: e7	SP: ff
c7bb	0	DEY	A: 0	X: ff	Y: e7	SP: ff
c7bc	c7b9	BNE	A: 0	X: ff	Y: e6	SP: ff
c7b9	4e6	STA	A: 0	X: ff	Y: e6	SP: ff
c7bb	0	DEY	A: 0	X: ff	Y: e6	SP: ff
c7bc	c7b9	BNE	A: 0	X: ff	Y: e5	SP: ff
c7b9	4e5	STA	A: 0	X: ff	Y: e5	SP: ff
c7bb	0	DEY	A: 0	X: ff	Y: e5	SP: ff
c7bc	c7b9	BNE	A: 0	X: ff	Y: e4	SP: ff
c7b9	4e4	STA	A: 0	X: ff	Y: e4	SP: ff
c7bb	0	DEY	A: 0	X: ff	Y: e4	SP: ff
c7bc	c7b9	BNE	A: 0	X: ff	Y: e3	SP: ff
c7b9	4e3	STA	A: 0	X: ff	Y: e3	SP: ff
c7bb	0	DEY	A: 0	X: ff	Y: e3	SP: ff
c7bc	c7b9	BNE	A: 0	X: ff	Y: e2	SP: ff
c7b9	4e2	STA	A: 0	X: ff	Y: e2	SP: ff
c7bb	0	DEY	A: 0	X: ff	Y: e2	SP: ff
c7bc	c7b9	BNE	A: 0	X: ff	Y: e1	SP: ff
c7b9	4e1	STA	A: 0	X: ff	Y: e1	SP: ff
c7bb	0	DEY	A: 0	X: ff	Y: e1	SP: ff
c7bc	c7b9	BNE	A: 0	X: ff	Y: e0	SP: ff
c7b9	4e0	STA	A: 0	X: ff	Y: e0	SP: ff
c7bb	0	DEY	A: 0	X: ff	Y: e0	SP: ff
c7bc	c7b9	BNE	A: 0	X: ff	Y: df	SP: ff
c7b9	4df	STA	A: 0	X: ff	Y: df	SP: ff
c7bb	0	DEY	A: 0	X: ff	Y: df	SP: ff
c7bc	c7b9	BNE	A: 0	X: ff	Y: de	SP: ff
c7b9	4de	STA	A: 0	X: ff	Y: de	SP: ff
c7bb	0	DEY	A: 0	X: ff	Y: de	SP: ff
c7bc	c7b9	BNE	A: 0	X: ff	Y: dd	SP: ff
c7b9	4dd	STA	A: 0	X: ff	Y: dd	SP: ff
c7bb	0	DEY	A: 0	X: ff	Y: dd	SP: ff
c7bc	c7b9	BNE	A: 0	X: ff	Y: dc	SP: ff
c7b9	4dc	STA	A: 0	X: ff	Y: dc	SP: ff
c7bb	0	DEY	A: 0	X: ff	Y: dc	SP: ff
c7bc	c7b9	BNE	A: 0	X: ff	Y: db	SP: ff
c7b9	4db	STA	A: 0	X: ff	Y: db	SP: ff
c7bb	0	DEY	A: 0	X: ff	Y: db	SP: ff
c7bc	c7b9	BNE	A: 0	X: ff	Y: da	SP: ff
c7b9	4da	STA	A: 0	X: ff	Y: da	SP: ff
c7bb	0	DEY	A: 0	X: ff	Y: da	SP: ff
c7bc	c7b9	BNE	A: 0	X: ff	Y: d9	SP: ff
c7b9	4d9	STA	A: 0	X: ff	Y: d9	SP: ff
c7bb	0	DEY	A: 0	X: ff	Y: d9	SP: ff
c7bc	c7b9	BNE	A: 0	X: ff	Y: d8	SP: ff
c7b9	4d8	STA	A: 0	X: ff	Y: d8	SP: ff
c7bb	0	DEY	A: 0	X: ff	Y: d8	SP: ff
c7bc	c7b9	BNE	A: 0	X: ff	Y: d7	SP: ff
c7b9	4d7	STA	A: 0	X: ff	Y: d7	SP: ff
c7bb	0	DEY	A: 0	X: ff	Y: d7	SP: ff
c7bc	c7b9	BNE	A: 0	X: ff	Y: d6	SP: ff
c7b9	4d6	STA	A: 0	X: ff	Y: d6	SP: ff
c7bb	0	DEY	A: 0	X: ff	Y: d6	SP: ff
c7bc	c7b9	BNE	A: 0	X: ff	Y: d5	SP: ff
c7b9	4d5	STA	A: 0	X: ff	Y: d5	SP: ff
c7bb	0	DEY	A: 0	X: ff	Y: d5	SP: ff
c7bc	c7b9	BNE	A: 0	X: ff	Y: d4	SP: ff
c7b9	4d4	STA	A: 0	X: ff	Y: d4	SP: ff
c7bb	0	DEY	A: 0	X: ff	Y: d4	SP: ff
c7bc	c7b9	BNE	A: 0	X: ff	Y: d3	SP: ff
c7b9	4d3	STA	A: 0	X: ff	Y: d3	SP: ff
c7bb	0	DEY	A: 0	X: ff	Y: d3	SP: ff
c7bc	c7b9	BNE	A: 0	X: ff	Y: d2	SP: ff
c7b9	4d2	STA	A: 0	X: ff	Y: d2	SP: ff
c7bb	0	DEY	A: 0	X: ff	Y: d2	SP: ff
c7bc	c7b9	BNE	A: 0	X: ff	Y: d1	SP: ff
c7b9	4d1	STA	A: 0	X: ff	Y: d1	SP: ff
c7bb	0	DEY	A: 0	X: ff	Y: d1	SP: ff
c7bc	c7b9	BNE	A: 0	X: ff	Y: d0	SP: ff
c7b9	4d0	STA	A: 0	X: ff	Y: d0	SP: ff
c7bb	0	DEY	A: 0	X: ff	Y: d0	SP: ff
c7bc	c7b9	BNE	A: 0	X: ff	Y: cf	SP: ff
c7b9	4cf	STA	A: 0	X: ff	Y: cf	SP: ff
c7bb	0	DEY	A: 0	X: ff	Y: cf	SP: ff
c7bc	c7b9	BNE	A: 0	X: ff	Y: ce	SP: ff
c7b9	4ce	STA	A: 0	X: ff	Y: ce	SP: ff
c7bb	0	DEY	A: 0	X: ff	Y: ce	SP: ff
c7bc	c7b9	BNE	A: 0	X: ff	Y: cd	SP: ff
c7b9	4cd	STA	A: 0	X: ff	Y: cd	SP: ff
c7bb	0	DEY	A: 0	X: ff	Y: cd	SP: ff
c7bc	c7b9	BNE	A: 0	X: ff	Y: cc	SP: ff
c7b9	4cc	STA	A: 0	X: ff	Y: cc	SP: ff
c7bb	0	DEY	A: 0	X: ff	Y: cc	SP: ff
c7bc	c7b9	BNE	A: 0	X: ff	Y: cb	SP: ff
c7b9	4cb	STA	A: 0	X: ff	Y: cb	SP: ff
c7bb	0	DEY	A: 0	X: ff	Y: cb	SP: ff
c7bc	c7b9	BNE	A: 0	X: ff	Y: ca	SP: ff
c7b9	4ca	STA	A: 0	X: ff	Y: ca	SP: ff
c7bb	0	DEY	A: 0	X: ff	Y: ca	SP: ff
c7bc	c7b9	BNE	A: 0	X: ff	Y: c9	SP: ff
c7b9	4c9	STA	A: 0	X: ff	Y: c9	SP: ff
c7bb	0	DEY	A: 0	X: ff	Y: c9	SP: ff
c7bc	c7b9	BNE	A: 0	X: ff	Y: c8	SP: ff
c7b9	4c8	STA	A: 0	X: ff	Y: c8	SP: ff
c7bb	0	DEY	A: 0	X: ff	Y: c8	SP: ff
c7bc	c7b9	BNE	A: 0	X: ff	Y: c7	SP: ff
c7b9	4c7	STA	A: 0	X: ff	Y: c7	SP: ff
c7bb	0	DEY	A: 0	X: ff	Y: c7	SP: ff
c7bc	c7b9	BNE	A: 0	X: ff	Y: c6	SP: ff
c7b9	4c6	STA	A: 0	X: ff	Y: c6	SP: ff
c7bb	0	DEY	A: 0	X: ff	Y: c6	SP: ff
c7bc	c7b9	BNE	A: 0	X: ff	Y: c5	SP: ff
c7b9	4c5	STA	A: 0	X: ff	Y: c5	SP: ff
c7bb	0	DEY	A: 0	X: ff	Y: c5	SP: ff
c7bc	c7b9	BNE	A: 0	X: ff	Y: c4	SP: ff
c7b9	4c4	STA	A: 0	X: ff	Y: c4	SP: ff
c7bb	0	DEY	A: 0	X: ff	Y: c4	SP: ff
c7bc	c7b9	BNE	A: 0	X: ff	Y: c3	SP: ff
c7b9	4c3	STA	A: 0	X: ff	Y: c3	SP: ff
c7bb	0	DEY	A: 0	X: ff	Y: c3	SP: ff
c7bc	c7b9	BNE	A: 0	X: ff	Y: c2	SP: ff
c7b9	4c2	STA	A: 0	X: ff	Y: c2	SP: ff
c7bb	0	DEY	A: 0	X: ff	Y: c2	SP: ff
c7bc	c7b9	BNE	A: 0	X: ff	Y: c1	SP: ff
c7b9	4c1	STA	A: 0	X: ff	Y: c1	SP: ff
c7bb	0	DEY	A: 0	X: ff	Y: c1	SP: ff
c7bc	c7b9	BNE	A: 0	X: ff	Y: c0	SP: ff
c7b9	4c0	STA	A: 0	X: ff	Y: c0	SP: ff
c7bb	0	DEY	A: 0	X: ff	Y: c0	SP: ff
c7bc	c7b9	BNE	A: 0	X: ff	Y: bf	SP: ff
c7b9	4bf	STA	A: 0	X: ff	Y: bf	SP: ff
c7bb	0	DEY	A: 0	X: ff	Y: bf	SP: ff
c7bc	c7b9	BNE	A: 0	X: ff	Y: be	SP: ff
c7b9	4be	STA	A: 0	X: ff	Y: be	SP: ff
c7bb	0	DEY	A: 0	X: ff	Y: be	SP: ff
c7bc	c7b9	BNE	A: 0	X: ff	Y: bd	SP: ff
c7b9	4bd	STA	A: 0	X: ff	Y: bd	SP: ff
c7bb	0	DEY	A: 0	X: ff	Y: bd	SP: ff
c7bc	c7b9	BNE	A: 0	X: ff	Y: bc	SP: ff
c7b9	4bc	STA	A: 0	X: ff	Y: bc	SP: ff
c7bb	0	DEY	A: 0	X: ff	Y: bc	SP: ff
c7bc	c7b9	BNE	A: 0	X: ff	Y: bb	SP: ff
c7b9	4bb	STA	A: 0	X: ff	Y: bb	SP: ff
c7bb	0	DEY	A: 0	X: ff	Y: bb	SP: ff
c7bc	c7b9	BNE	A: 0	X: ff	Y: ba	SP: ff
c7b9	4ba	STA	A: 0	X: ff	Y: ba	SP: ff
c7bb	0	DEY	A: 0	X: ff	Y: ba	SP: ff
c7bc	c7b9	BNE	A: 0	X: ff	Y: b9	SP: ff
c7b9	4b9	STA	A: 0	X: ff	Y: b9	SP: ff
c7bb	0	DEY	A: 0	X: ff	Y: b9	SP: ff
c7bc	c7b9	BNE	A: 0	X: ff	Y: b8	SP: ff
c7b9	4b8	STA	A: 0	X: ff	Y: b8	SP: ff
c7bb	0	DEY	A: 0	X: ff	Y: b8	SP: ff
c7bc	c7b9	BNE	A: 0	X: ff	Y: b7	SP: ff
c7b9	4b7	STA	A: 0	X: ff	Y: b7	SP: ff
c7bb	0	DEY	A: 0	X: ff	Y: b7	SP: ff
c7bc	c7b9	BNE	A: 0	X: ff	Y: b6	SP: ff
c7b9	4b6	STA	A: 0	X: ff	Y: b6	SP: ff
c7bb	0	DEY	A: 0	X: ff	Y: b6	SP: ff
c7bc	c7b9	BNE	A: 0	X: ff	Y: b5	SP: ff
c7b9	4b5	STA	A: 0	X: ff	Y: b5	SP: ff
c7bb	0	DEY	A: 0	X: ff	Y: b5	SP: ff
c7bc	c7b9	BNE	A: 0	X: ff	Y: b4	SP: ff
c7b9	4b4	STA	A: 0	X: ff	Y: b4	SP: ff
c7bb	0	DEY	A: 0	X: ff	Y: b4	SP: ff
c7bc	c7b9	BNE	A: 0	X: ff	Y: b3	SP: ff
c7b9	4b3	STA	A: 0	X: ff	Y: b3	SP: ff
c7bb	0	DEY	A: 0	X: ff	Y: b3	SP: ff
c7bc	c7b9	BNE	A: 0	X: ff	Y: b2	SP: ff
c7b9	4b2	STA	A: 0	X: ff	Y: b2	SP: ff
c7bb	0	DEY	A: 0	X: ff	Y: b2	SP: ff
c7bc	c7b9	BNE	A: 0	X: ff	Y: b1	SP: ff
c7b9	4b1	STA	A: 0	X: ff	Y: b1	SP: ff
c7bb	0	DEY	A: 0	X: ff	Y: b1	SP: ff
c7bc	c7b9	BNE	A: 0	X: ff	Y: b0	SP: ff
c7b9	4b0	STA	A: 0	X: ff	Y: b0	SP: ff
c7bb	0	DEY	A: 0	X: ff	Y: b0	SP: ff
c7bc	c7b9	BNE	A: 0	X: ff	Y: af	SP: ff
c7b9	4af	STA	A: 0	X: ff	Y: af	SP: ff
c7bb	0	DEY	A: 0	X: ff	Y: af	SP: ff
c7bc	c7b9	BNE	A: 0	X: ff	Y: ae	SP: ff
c7b9	4ae	STA	A: 0	X: ff	Y: ae	SP: ff
c7bb	0	DEY	A: 0	X: ff	Y: ae	SP: ff
c7bc	c7b9	BNE	A: 0	X: ff	Y: ad	SP: ff
c7b9	4ad	STA	A: 0	X: ff	Y: ad	SP: ff
c7bb	0	DEY	A: 0	X: ff	Y: ad	SP: ff
c7bc	c7b9	BNE	A: 0	X: ff	Y: ac	SP: ff
c7b9	4ac	STA	A: 0	X: ff	Y: ac	SP: ff
c7bb	0	DEY	A: 0	X: ff	Y: ac	SP: ff
c7bc	c7b9	BNE	A: 0	X: ff	Y: ab	SP: ff
c7b9	4ab	STA	A: 0	X: ff	Y: ab	SP: ff
c7bb	0	DEY	A: 0	X: ff	Y: ab	SP: ff
c7bc	c7b9	BNE	A: 0	X: ff	Y: aa	SP: ff
c7b9	4aa	STA	A: 0	X: ff	Y: aa	SP: ff
c7bb	0	DEY	A: 0	X: ff	Y: aa	SP: ff
c7bc	c7b9	BNE	A: 0	X: ff	Y: a9	SP: ff
c7b9	4a9	STA	A: 0	X: ff	Y: a9	SP: ff
c7bb	0	DEY	A: 0	X: ff	Y: a9	SP: ff
c7bc	c7b9	BNE	A: 0	X: ff	Y: a8	SP: ff
c7b9	4a8	STA	A: 0	X: ff	Y: a8	SP: ff
c7bb	0	DEY	A: 0	X: ff	Y: a8	SP: ff
c7bc	c7b9	BNE	A: 0	X: ff	Y: a7	SP: ff
c7b9	4a7	STA	A: 0	X: ff	Y: a7	SP: ff
c7bb	0	DEY	A: 0	X: ff	Y: a7	SP: ff
c7bc	c7b9	BNE	A: 0	X: ff	Y: a6	SP: ff
c7b9	4a6	STA	A: 0	X: ff	Y: a6	SP: ff
c7bb	0	DEY	A: 0	X: ff	Y: a6	SP: ff
c7bc	c7b9	BNE	A: 0	X: ff	Y: a5	SP: ff
c7b9	4a5	STA	A: 0	X: ff	Y: a5	SP: ff
c7bb	0	DEY	A: 0	X: ff	Y: a5	SP: ff
c7bc	c7b9	BNE	A: 0	X: ff	Y: a4	SP: ff
c7b9	4a4	STA	A: 0	X: ff	Y: a4	SP: ff
c7bb	0	DEY	A: 0	X: ff	Y: a4	SP: ff
c7bc	c7b9	BNE	A: 0	X: ff	Y: a3	SP: ff
c7b9	4a3	STA	A: 0	X: ff	Y: a3	SP: ff
c7bb	0	DEY	A: 0	X: ff	Y: a3	SP: ff
c7bc	c7b9	BNE	A: 0	X: ff	Y: a2	SP: ff
c7b9	4a2	STA	A: 0	X: ff	Y: a2	SP: ff
c7bb	0	DEY	A: 0	X: ff	Y: a2	SP: ff
c7bc	c7b9	BNE	A: 0	X: ff	Y: a1	SP: ff
c7b9	4a1	STA	A: 0	X: ff	Y: a1	SP: ff
c7bb	0	DEY	A: 0	X: ff	Y: a1	SP: ff
c7bc	c7b9	BNE	A: 0	X: ff	Y: a0	SP: ff
c7b9	4a0	STA	A: 0	X: ff	Y: a0	SP: ff
c7bb	0	DEY	A: 0	X: ff	Y: a0	SP: ff
c7bc	c7b9	BNE	A: 0	X: ff	Y: 9f	SP: ff
c7b9	49f	STA	A: 0	X: ff	Y: 9f	SP: ff
c7bb	0	DEY	A: 0	X: ff	Y: 9f	SP: ff
c7bc	c7b9	BNE	A: 0	X: ff	Y: 9e	SP: ff
c7b9	49e	STA	A: 0	X: ff	Y: 9e	SP: ff
c7bb	0	DEY	A: 0	X: ff	Y: 9e	SP: ff
c7bc	c7b9	BNE	A: 0	X: ff	Y: 9d	SP: ff
c7b9	49d	STA	A: 0	X: ff	Y: 9d	SP: ff
c7bb	0	DEY	A: 0	X: ff	Y: 9d	SP: ff
c7bc	c7b9	BNE	A: 0	X: ff	Y: 9c	SP: ff
c7b9	49c	STA	A: 0	X: ff	Y: 9c	SP: ff
c7bb	0	DEY	A: 0	X: ff	Y: 9c	SP: ff
c7bc	c7b9	BNE	A: 0	X: ff	Y: 9b	SP: ff
c7b9	49b	STA	A: 0	X: ff	Y: 9b	SP: ff
c7bb	0	DEY	A: 0	X: ff	Y: 9b	SP: ff
c7bc	c7b9	BNE	A: 0	X: ff	Y: 9a	SP: ff
c7b9	49a	STA	A: 0	X: ff	Y: 9a	SP: ff
c7bb	0	DEY	A: 0	X: ff	Y: 9a	SP: ff
c7bc	c7b9	BNE	A: 0	X: ff	Y: 99	SP: ff
c7b9	499	STA	A: 0	X: ff	Y: 99	SP: ff
c7bb	0	DEY	A: 0	X: ff	Y: 99	SP: ff
c7bc	c7b9	BNE	A: 0	X: ff	Y: 98	SP: ff
c7b9	498	STA	A: 0	X: ff	Y: 98	SP: ff
c7bb	0	DEY	A: 0	X: ff	Y: 98	SP: ff
c7bc	c7b9	BNE	A: 0	X: ff	Y: 97	SP: ff
c7b9	497	STA	A: 0	X: ff	Y: 97	SP: ff
c7bb	0	DEY	A: 0	X: ff	Y: 97	SP: ff
c7bc	c7b9	BNE	A: 0	X: ff	Y: 96	SP: ff
c7b9	496	STA	A: 0	X: ff	Y: 96	SP: ff
c7bb	0	DEY	A: 0	X: ff	Y: 96	SP: ff
c7bc	c7b9	BNE	A: 0	X: ff	Y: 95	SP: ff
c7b9	495	STA	A: 0	X: ff	Y: 95	SP: ff
c7bb	0	DEY	A: 0	X: ff	Y: 95	SP: ff
c7bc	c7b9	BNE	A: 0	X: ff	Y: 94	SP: ff
c7b9	494	STA	A: 0	X: ff	Y: 94	SP: ff
c7bb	0	DEY	A: 0	X: ff	Y: 94	SP: ff
c7bc	c7b9	BNE	A: 0	X: ff	Y: 93	SP: ff
c7b9	493	STA	A: 0	X: ff	Y: 93	SP: ff
c7bb	0	DEY	A: 0	X: ff	Y: 93	SP: ff
c7bc	c7b9	BNE	A: 0	X: ff	Y: 92	SP: ff
c7b9	492	STA	A: 0	X: ff	Y: 92	SP: ff
c7bb	0	DEY	A: 0	X: ff	Y: 92	SP: ff
c7bc	c7b9	BNE	A: 0	X: ff	Y: 91	SP: ff
c7b9	491	STA	A: 0	X: ff	Y: 91	SP: ff
c7bb	0	DEY	A: 0	X: ff	Y: 91	SP: ff
c7bc	c7b9	BNE	A: 0	X: ff	Y: 90	SP: ff
c7b9	490	STA	A: 0	X: ff	Y: 90	SP: ff
c7bb	0	DEY	A: 0	X: ff	Y: 90	SP: ff
c7bc	c7b9	BNE	A: 0	X: ff	Y: 8f	SP: ff
c7b9	48f	STA	A: 0	X: ff	Y: 8f	SP: ff
c7bb	0	DEY	A: 0	X: ff	Y: 8f	SP: ff
c7bc	c7b9	BNE	A: 0	X: ff	Y: 8e	SP: ff
c7b9	48e	STA	A: 0	X: ff	Y: 8e	SP: ff
c7bb	0	DEY	A: 0	X: ff	Y: 8e	SP: ff
c7bc	c7b9	BNE	A: 0	X: ff	Y: 8d	SP: ff
c7b9	48d	STA	A: 0	X: ff	Y: 8d	SP: ff
c7bb	0	DEY	A: 0	X: ff	Y: 8d	SP: ff
c7bc	c7b9	BNE	A: 0	X: ff	Y: 8c	SP: ff
c7b9	48c	STA	A: 0	X: ff	Y: 8c	SP: ff
c7bb	0	DEY	A: 0	X: ff	Y: 8c	SP: ff
c7bc	c7b9	BNE	A: 0	X: ff	Y: 8b	SP: ff
c7b9	48b	STA	A: 0	X: ff	Y: 8b	SP: ff
c7bb	0	DEY	A: 0	X: ff	Y: 8b	SP: ff
c7bc	c7b9	BNE	A: 0	X: ff	Y: 8a	SP: ff
c7b9	48a	STA	A: 0	X: ff	Y: 8a	SP: ff
c7bb	0	DEY	A: 0	X: ff	Y: 8a	SP: ff
c7bc	c7b9	BNE	A: 0	X: ff	Y: 89	SP: ff
c7b9	489	STA	A: 0	X: ff	Y: 89	SP: ff
c7bb	0	DEY	A: 0	X: ff	Y: 89	SP: ff
c7bc	c7b9	BNE	A: 0	X: ff	Y: 88	SP: ff
c7b9	488	STA	A: 0	X: ff	Y: 88	SP: ff
c7bb	0	DEY	A: 0	X: ff	Y: 88	SP: ff
c7bc	c7b9	BNE	A: 0	X: ff	Y: 87	SP: ff
c7b9	487	STA	A: 0	X: ff	Y: 87	SP: ff
c7bb	0	DEY	A: 0	X: ff	Y: 87	SP: ff
c7bc	c7b9	BNE	A: 0	X: ff	Y: 86	SP: ff
c7b9	486	STA	A: 0	X: ff	Y: 86	SP: ff
c7bb	0	DEY	A: 0	X: ff	Y: 86	SP: ff
c7bc	c7b9	BNE	A: 0	X: ff	Y: 85	SP: ff
c7b9	485	STA	A: 0	X: ff	Y: 85	SP: ff
c7bb	0	DEY	A: 0	X: ff	Y: 85	SP: ff
c7bc	c7b9	BNE	A: 0	X: ff	Y: 84	SP: ff
c7b9	484	STA	A: 0	X: ff	Y: 84	SP: ff
c7bb	0	DEY	A: 0	X: ff	Y: 84	SP: ff
c7bc	c7b9	BNE	A: 0	X: ff	Y: 83	SP: ff
c7b9	483	STA	A: 0	X: ff	Y: 83	SP: ff
c7bb	0	DEY	A: 0	X: ff	Y: 83	SP: ff
c7bc	c7b9	BNE	A: 0	X: ff	Y: 82	SP: ff
c7b9	482	STA	A: 0	X: ff	Y: 82	SP: ff
c7bb	0	DEY	A: 0	X: ff	Y: 82	SP: ff
c7bc	c7b9	BNE	A: 0	X: ff	Y: 81	SP: ff
c7b9	481	STA	A: 0	X: ff	Y: 81	SP: ff
c7bb	0	DEY	A: 0	X: ff	Y: 81	SP: ff
c7bc	c7b9	BNE	A: 0	X: ff	Y: 80	SP: ff
c7b9	480	STA	A: 0	X: ff	Y: 80	SP: ff
c7bb	0	DEY	A: 0	X: ff	Y: 80	SP: ff
c7bc	c7b9	BNE	A: 0	X: ff	Y: 7f	SP: ff
c7b9	47f	STA	A: 0	X: ff	Y: 7f	SP: ff
c7bb	0	DEY	A: 0	X: ff	Y: 7f	SP: ff
c7bc	c7b9	BNE	A: 0	X: ff	Y: 7e	SP: ff
c7b9	47e	STA	A: 0	X: ff	Y: 7e	SP: ff
c7bb	0	DEY	A: 0	X: ff	Y: 7e	SP: ff
c7bc	c7b9	BNE	A: 0	X: ff	Y: 7d	SP: ff
c7b9	47d	STA	A: 0	X: ff	Y: 7d	SP: ff
c7bb	0	DEY	A: 0	X: ff	Y: 7d	SP: ff
c7bc	c7b9	BNE	A: 0	X: ff	Y: 7c	SP: ff
c7b9	47c	STA	A: 0	X: ff	Y: 7c	SP: ff
c7bb	0	DEY	A: 0	X: ff	Y: 7c	SP: ff
c7bc	c7b9	BNE	A: 0	X: ff	Y: 7b	SP: ff
c7b9	47b	STA	A: 0	X: ff	Y: 7b	SP: ff
c7bb	0	DEY	A: 0	X: ff	Y: 7b	SP: ff
c7bc	c7b9	BNE	A: 0	X: ff	Y: 7a	SP: ff
c7b9	47a	STA	A: 0	X: ff	Y: 7a	SP: ff
c7bb	0	DEY	A: 0	X: ff	Y: 7a	SP: ff
c7bc	c7b9	BNE	A: 0	X: ff	Y: 79	SP: ff
c7b9	479	STA	A: 0	X: ff	Y: 79	SP: ff
c7bb	0	DEY	A: 0	X: ff	Y: 79	SP: ff
c7bc	c7b9	BNE	A: 0	X: ff	Y: 78	SP: ff
c7b9	478	STA	A: 0	X: ff	Y: 78	SP: ff
c7bb	0	DEY	A: 0	X: ff	Y: 78	SP: ff
c7bc	c7b9	BNE	A: 0	X: ff	Y: 77	SP: ff
c7b9	477	STA	A: 0	X: ff	Y: 77	SP: ff
c7bb	0	DEY	A: 0	X: ff	Y: 77	SP: ff
c7bc	c7b9	BNE	A: 0	X: ff	Y: 76	SP: ff
c7b9	476	STA	A: 0	X: ff	Y: 76	SP: ff
c7bb	0	DEY	A: 0	X: ff	Y: 76	SP: ff
c7bc	c7b9	BNE	A: 0	X: ff	Y: 75	SP: ff
c7b9	475	STA	A: 0	X: ff	Y: 75	SP: ff
c7bb	0	DEY	A: 0	X: ff	Y: 75	SP: ff
c7bc	c7b9	BNE	A: 0	X: ff	Y: 74	SP: ff
c7b9	474	STA	A: 0	X: ff	Y: 74	SP: ff
c7bb	0	DEY	A: 0	X: ff	Y: 74	SP: ff
c7bc	c7b9	BNE	A: 0	X: ff	Y: 73	SP: ff
c7b9	473	STA	A: 0	X: ff	Y: 73	SP: ff
c7bb	0	DEY	A: 0	X: ff	Y: 73	SP: ff
c7bc	c7b9	BNE	A: 0	X: ff	Y: 72	SP: ff
c7b9	472	STA	A: 0	X: ff	Y: 72	SP: ff
c7bb	0	DEY	A: 0	X: ff	Y: 72	SP: ff
c7bc	c7b9	BNE	A: 0	X: ff	Y: 71	SP: ff
c7b9	471	STA	A: 0	X: ff	Y: 71	SP: ff
c7bb	0	DEY	A: 0	X: ff	Y: 71	SP: ff
c7bc	c7b9	BNE	A: 0	X: ff	Y: 70	SP: ff
c7b9	470	STA	A: 0	X: ff	Y: 70	SP: ff
c7bb	0	DEY	A: 0	X: ff	Y: 70	SP: ff
c7bc	c7b9	BNE	A: 0	X: ff	Y: 6f	SP: ff
c7b9	46f	STA	A: 0	X: ff	Y: 6f	SP: ff
c7bb	0	DEY	A: 0	X: ff	Y: 6f	SP: ff
c7bc	c7b9	BNE	A: 0	X: ff	Y: 6e	SP: ff
c7b9	46e	STA	A: 0	X: ff	Y: 6e	SP: ff
c7bb	0	DEY	A: 0	X: ff	Y: 6e	SP: ff
c7bc	c7b9	BNE	A: 0	X: ff	Y: 6d	SP: ff
c7b9	46d	STA	A: 0	X: ff	Y: 6d	SP: ff
c7bb	0	DEY	A: 0	X: ff	Y: 6d	SP: ff
c7bc	c7b9	BNE	A: 0	X: ff	Y: 6c	SP: ff
c7b9	46c	STA	A: 0	X: ff	Y: 6c	SP: ff
c7bb	0	DEY	A: 0	X: ff	Y: 6c	SP: ff
c7bc	c7b9	BNE	A: 0	X: ff	Y: 6b	SP: ff
c7b9	46b	STA	A: 0	X: ff	Y: 6b	SP: ff
c7bb	0	DEY	A: 0	X: ff	Y: 6b	SP: ff
c7bc	c7b9	BNE	A: 0	X: ff	Y: 6a	SP: ff
c7b9	46a	STA	A: 0	X: ff	Y: 6a	SP: ff
c7bb	0	DEY	A: 0	X: ff	Y: 6a	SP: ff
c7bc	c7b9	BNE	A: 0	X: ff	Y: 69	SP: ff
c7b9	469	STA	A: 0	X: ff	Y: 69	SP: ff
c7bb	0	DEY	A: 0	X: ff	Y: 69	SP: ff
c7bc	c7b9	BNE	A: 0	X: ff	Y: 68	SP: ff
c7b9	468	STA	A: 0	X: ff	Y: 68	SP: ff
c7bb	0	DEY	A: 0	X: ff	Y: 68	SP: ff
c7bc	c7b9	BNE	A: 0	X: ff	Y: 67	SP: ff
c7b9	467	STA	A: 0	X: ff	Y: 67	SP: ff
c7bb	0	DEY	A: 0	X: ff	Y: 67	SP: ff
c7bc	c7b9	BNE	A: 0	X: ff	Y: 66	SP: ff
c7b9	466	STA	A: 0	X: ff	Y: 66	SP: ff
c7bb	0	DEY	A: 0	X: ff	Y: 66	SP: ff
c7bc	c7b9	BNE	A: 0	X: ff	Y: 65	SP: ff
c7b9	465	STA	A: 0	X: ff	Y: 65	SP: ff
c7bb	0	DEY	A: 0	X: ff	Y: 65	SP: ff
c7bc	c7b9	BNE	A: 0	X: ff	Y: 64	SP: ff
c7b9	464	STA	A: 0	X: ff	Y: 64	SP: ff
c7bb	0	DEY	A: 0	X: ff	Y: 64	SP: ff
c7bc	c7b9	BNE	A: 0	X: ff	Y: 63	SP: ff
c7b9	463	STA	A: 0	X: ff	Y: 63	SP: ff
c7bb	0	DEY	A: 0	X: ff	Y: 63	SP: ff
c7bc	c7b9	BNE	A: 0	X: ff	Y: 62	SP: ff
c7b9	462	STA	A: 0	X: ff	Y: 62	SP: ff
c7bb	0	DEY	A: 0	X: ff	Y: 62	SP: ff
c7bc	c7b9	BNE	A: 0	X: ff	Y: 61	SP: ff
c7b9	461	STA	A: 0	X: ff	Y: 61	SP: ff
c7bb	0	DEY	A: 0	X: ff	Y: 61	SP: ff
c7bc	c7b9	BNE	A: 0	X: ff	Y: 60	SP: ff
c7b9	460	STA	A: 0	X: ff	Y: 60	SP: ff
c7bb	0	DEY	A: 0	X: ff	Y: 60	SP: ff
c7bc	c7b9	BNE	A: 0	X: ff	Y: 5f	SP: ff
c7b9	45f	STA	A: 0	X: ff	Y: 5f	SP: ff
c7bb	0	DEY	A: 0	X: ff	Y: 5f	SP: ff
c7bc	c7b9	BNE	A: 0	X: ff	Y: 5e	SP: ff
c7b9	45e	STA	A: 0	X: ff	Y: 5e	SP: ff
c7bb	0	DEY	A: 0	X: ff	Y: 5e	SP: ff
c7bc	c7b9	BNE	A: 0	X: ff	Y: 5d	SP: ff
c7b9	45d	STA	A: 0	X: ff	Y: 5d	SP: ff
c7bb	0	DEY	A: 0	X: ff	Y: 5d	SP: ff
c7bc	c7b9	BNE	A: 0	X: ff	Y: 5c	SP: ff
c7b9	45c	STA	A: 0	X: ff	Y: 5c	SP: ff
c7bb	0	DEY	A: 0	X: ff	Y: 5c	SP: ff
c7bc	c7b9	BNE	A: 0	X: ff	Y: 5b	SP: ff
c7b9	45b	STA	A: 0	X: ff	Y: 5b	SP: ff
c7bb	0	DEY	A: 0	X: ff	Y: 5b	SP: ff
c7bc	c7b9	BNE	A: 0	X: ff	Y: 5a	SP: ff
c7b9	45a	STA	A: 0	X: ff	Y: 5a	SP: ff
c7bb	0	DEY	A: 0	X: ff	Y: 5a	SP: ff
c7bc	c7b9	BNE	A: 0	X: ff	Y: 59	SP: ff
c7b9	459	STA	A: 0	X: ff	Y: 59	SP: ff
c7bb	0	DEY	A: 0	X: ff	Y: 59	SP: ff
c7bc	c7b9	BNE	A: 0	X: ff	Y: 58	SP: ff
c7b9	458	STA	A: 0	X: ff	Y: 58	SP: ff
c7bb	0	DEY	A: 0	X: ff	Y: 58	SP: ff
c7bc	c7b9	BNE	A: 0	X: ff	Y: 57	SP: ff
c7b9	457	STA	A: 0	X: ff	Y: 57	SP: ff
c7bb	0	DEY	A: 0	X: ff	Y: 57	SP: ff
c7bc	c7b9	BNE	A: 0	X: ff	Y: 56	SP: ff
c7b9	456	STA	A: 0	X: ff	Y: 56	SP: ff
c7bb	0	DEY	A: 0	X: ff	Y: 56	SP: ff
c7bc	c7b9	BNE	A: 0	X: ff	Y: 55	SP: ff
c7b9	455	STA	A: 0	X: ff	Y: 55	SP: ff
c7bb	0	DEY	A: 0	X: ff	Y: 55	SP: ff
c7bc	c7b9	BNE	A: 0	X: ff	Y: 54	SP: ff
c7b9	454	STA	A: 0	X: ff	Y: 54	SP: ff
c7bb	0	DEY	A: 0	X: ff	Y: 54	SP: ff
c7bc	c7b9	BNE	A: 0	X: ff	Y: 53	SP: ff
c7b9	453	STA	A: 0	X: ff	Y: 53	SP: ff
c7bb	0	DEY	A: 0	X: ff	Y: 53	SP: ff
c7bc	c7b9	BNE	A: 0	X: ff	Y: 52	SP: ff
c7b9	452	STA	A: 0	X: ff	Y: 52	SP: ff
c7bb	0	DEY	A: 0	X: ff	Y: 52	SP: ff
c7bc	c7b9	BNE	A: 0	X: ff	Y: 51	SP: ff
c7b9	451	STA	A: 0	X: ff	Y: 51	SP: ff
c7bb	0	DEY	A: 0	X: ff	Y: 51	SP: ff
c7bc	c7b9	BNE	A: 0	X: ff	Y: 50	SP: ff
c7b9	450	STA	A: 0	X: ff	Y: 50	SP: ff
c7bb	0	DEY	A: 0	X: ff	Y: 50	SP: ff
c7bc	c7b9	BNE	A: 0	X: ff	Y: 4f	SP: ff
c7b9	44f	STA	A: 0	X: ff	Y: 4f	SP: ff
c7bb	0	DEY	A: 0	X: ff	Y: 4f	SP: ff
c7bc	c7b9	BNE	A: 0	X: ff	Y: 4e	SP: ff
c7b9	44e	STA	A: 0	X: ff	Y: 4e	SP: ff
c7bb	0	DEY	A: 0	X: ff	Y: 4e	SP: ff
c7bc	c7b9	BNE	A: 0	X: ff	Y: 4d	SP: ff
c7b9	44d	STA	A: 0	X: ff	Y: 4d	SP: ff
c7bb	0	DEY	A: 0	X: ff	Y: 4d	SP: ff
c7bc	c7b9	BNE	A: 0	X: ff	Y: 4c	SP: ff
c7b9	44c	STA	A: 0	X: ff	Y: 4c	SP: ff
c7bb	0	DEY	A: 0	X: ff	Y: 4c	SP: ff
c7bc	c7b9	BNE	A: 0	X: ff	Y: 4b	SP: ff
c7b9	44b	STA	A: 0	X: ff	Y: 4b	SP: ff
c7bb	0	DEY	A: 0	X: ff	Y: 4b	SP: ff
c7bc	c7b9	BNE	A: 0	X: ff	Y: 4a	SP: ff
c7b9	44a	STA	A: 0	X: ff	Y: 4a	SP: ff
c7bb	0	DEY	A: 0	X: ff	Y: 4a	SP: ff
c7bc	c7b9	BNE	A: 0	X: ff	Y: 49	SP: ff
c7b9	449	STA	A: 0	X: ff	Y: 49	SP: ff
c7bb	0	DEY	A: 0	X: ff	Y: 49	SP: ff
c7bc	c7b9	BNE	A: 0	X: ff	Y: 48	SP: ff
c7b9	448	STA	A: 0	X: ff	Y: 48	SP: ff
c7bb	0	DEY	A: 0	X: ff	Y: 48	SP: ff
c7bc	c7b9	BNE	A: 0	X: ff	Y: 47	SP: ff
c7b9	447	STA	A: 0	X: ff	Y: 47	SP: ff
c7bb	0	DEY	A: 0	X: ff	Y: 47	SP: ff
c7bc	c7b9	BNE	A: 0	X: ff	Y: 46	SP: ff
c7b9	446	STA	A: 0	X: ff	Y: 46	SP: ff
c7bb	0	DEY	A: 0	X: ff	Y: 46	SP: ff
c7bc	c7b9	BNE	A: 0	X: ff	Y: 45	SP: ff
c7b9	445	STA	A: 0	X: ff	Y: 45	SP: ff
c7bb	0	DEY	A: 0	X: ff	Y: 45	SP: ff
c7bc	c7b9	BNE	A: 0	X: ff	Y: 44	SP: ff
c7b9	444	STA	A: 0	X: ff	Y: 44	SP: ff
c7bb	0	DEY	A: 0	X: ff	Y: 44	SP: ff
c7bc	c7b9	BNE	A: 0	X: ff	Y: 43	SP: ff
c7b9	443	STA	A: 0	X: ff	Y: 43	SP: ff
c7bb	0	DEY	A: 0	X: ff	Y: 43	SP: ff
c7bc	c7b9	BNE	A: 0	X: ff	Y: 42	SP: ff
c7b9	442	STA	A: 0	X: ff	Y: 42	SP: ff
c7bb	0	DEY	A: 0	X: ff	Y: 42	SP: ff
c7bc	c7b9	BNE	A: 0	X: ff	Y: 41	SP: ff
c7b9	441	STA	A: 0	X: ff	Y: 41	SP: ff
c7bb	0	DEY	A: 0	X: ff	Y: 41	SP: ff
c7bc	c7b9	BNE	A: 0	X: ff	Y: 40	SP: ff
c7b9	440	STA	A: 0	X: ff	Y: 40	SP: ff
c7bb	0	DEY	A: 0	X: ff	Y: 40	SP: ff
c7bc	c7b9	BNE	A: 0	X: ff	Y: 3f	SP: ff
c7b9	43f	STA	A: 0	X: ff	Y: 3f	SP: ff
c7bb	0	DEY	A: 0	X: ff	Y: 3f	SP: ff
c7bc	c7b9	BNE	A: 0	X: ff	Y: 3e	SP: ff
c7b9	43e	STA	A: 0	X: ff	Y: 3e	SP: ff
c7bb	0	DEY	A: 0	X: ff	Y: 3e	SP: ff
c7bc	c7b9	BNE	A: 0	X: ff	Y: 3d	SP: ff
c7b9	43d	STA	A: 0	X: ff	Y: 3d	SP: ff
c7bb	0	DEY	A: 0	X: ff	Y: 3d	SP: ff
c7bc	c7b9	BNE	A: 0	X: ff	Y: 3c	SP: ff
c7b9	43c	STA	A: 0	X: ff	Y: 3c	SP: ff
c7bb	0	DEY	A: 0	X: ff	Y: 3c	SP: ff
c7bc	c7b9	BNE	A: 0	X: ff	Y: 3b	SP: ff
c7b9	43b	STA	A: 0	X: ff	Y: 3b	SP: ff
c7bb	0	DEY	A: 0	X: ff	Y: 3b	SP: ff
c7bc	c7b9	BNE	A: 0	X: ff	Y: 3a	SP: ff
c7b9	43a	STA	A: 0	X: ff	Y: 3a	SP: ff
c7bb	0	DEY	A: 0	X: ff	Y: 3a	SP: ff
c7bc	c7b9	BNE	A: 0	X: ff	Y: 39	SP: ff
c7b9	439	STA	A: 0	X: ff	Y: 39	SP: ff
c7bb	0	DEY	A: 0	X: ff	Y: 39	SP: ff
c7bc	c7b9	BNE	A: 0	X: ff	Y: 38	SP: ff
c7b9	438	STA	A: 0	X: ff	Y: 38	SP: ff
c7bb	0	DEY	A: 0	X: ff	Y: 38	SP: ff
c7bc	c7b9	BNE	A: 0	X: ff	Y: 37	SP: ff
c7b9	437	STA	A: 0	X: ff	Y: 37	SP: ff
c7bb	0	DEY	A: 0	X: ff	Y: 37	SP: ff
c7bc	c7b9	BNE	A: 0	X: ff	Y: 36	SP: ff
c7b9	436	STA	A: 0	X: ff	Y: 36	SP: ff
c7bb	0	DEY	A: 0	X: ff	Y: 36	SP: ff
c7bc	c7b9	BNE	A: 0	X: ff	Y: 35	SP: ff
c7b9	435	STA	A: 0	X: ff	Y: 35	SP: ff
c7bb	0	DEY	A: 0	X: ff	Y: 35	SP: ff
c7bc	c7b9	BNE	A: 0	X: ff	Y: 34	SP: ff
c7b9	434	STA	A: 0	X: ff	Y: 34	SP: ff
c7bb	0	DEY	A: 0	X: ff	Y: 34	SP: ff
c7bc	c7b9	BNE	A: 0	X: ff	Y: 33	SP: ff
c7b9	433	STA	A: 0	X: ff	Y: 33	SP: ff
c7bb	0	DEY	A: 0	X: ff	Y: 33	SP: ff
c7bc	c7b9	BNE	A: 0	X: ff	Y: 32	SP: ff
c7b9	432	STA	A: 0	X: ff	Y: 32	SP: ff
c7bb	0	DEY	A: 0	X: ff	Y: 32	SP: ff
c7bc	c7b9	BNE	A: 0	X: ff	Y: 31	SP: ff
c7b9	431	STA	A: 0	X: ff	Y: 31	SP: ff
c7bb	0	DEY	A: 0	X: ff	Y: 31	SP: ff
c7bc	c7b9	BNE	A: 0	X: ff	Y: 30	SP: ff
c7b9	430	STA	A: 0	X: ff	Y: 30	SP: ff
c7bb	0	DEY	A: 0	X: ff	Y: 30	SP: ff
c7bc	c7b9	BNE	A: 0	X: ff	Y: 2f	SP: ff
c7b9	42f	STA	A: 0	X: ff	Y: 2f	SP: ff
c7bb	0	DEY	A: 0	X: ff	Y: 2f	SP: ff
c7bc	c7b9	BNE	A: 0	X: ff	Y: 2e	SP: ff
c7b9	42e	STA	A: 0	X: ff	Y: 2e	SP: ff
c7bb	0	DEY	A: 0	X: ff	Y: 2e	SP: ff
c7bc	c7b9	BNE	A: 0	X: ff	Y: 2d	SP: ff
c7b9	42d	STA	A: 0	X: ff	Y: 2d	SP: ff
c7bb	0	DEY	A: 0	X: ff	Y: 2d	SP: ff
c7bc	c7b9	BNE	A: 0	X: ff	Y: 2c	SP: ff
c7b9	42c	STA	A: 0	X: ff	Y: 2c	SP: ff
c7bb	0	DEY	A: 0	X: ff	Y: 2c	SP: ff
c7bc	c7b9	BNE	A: 0	X: ff	Y: 2b	SP: ff
c7b9	42b	STA	A: 0	X: ff	Y: 2b	SP: ff
c7bb	0	DEY	A: 0	X: ff	Y: 2b	SP: ff
c7bc	c7b9	BNE	A: 0	X: ff	Y: 2a	SP: ff
c7b9	42a	STA	A: 0	X: ff	Y: 2a	SP: ff
c7bb	0	DEY	A: 0	X: ff	Y: 2a	SP: ff
c7bc	c7b9	BNE	A: 0	X: ff	Y: 29	SP: ff
c7b9	429	STA	A: 0	X: ff	Y: 29	SP: ff
c7bb	0	DEY	A: 0	X: ff	Y: 29	SP: ff
c7bc	c7b9	BNE	A: 0	X: ff	Y: 28	SP: ff
c7b9	428	STA	A: 0	X: ff	Y: 28	SP: ff
c7bb	0	DEY	A: 0	X: ff	Y: 28	SP: ff
c7bc	c7b9	BNE	A: 0	X: ff	Y: 27	SP: ff
c7b9	427	STA	A: 0	X: ff	Y: 27	SP: ff
c7bb	0	DEY	A: 0	X: ff	Y: 27	SP: ff
c7bc	c7b9	BNE	A: 0	X: ff	Y: 26	SP: ff
c7b9	426	STA	A: 0	X: ff	Y: 26	SP: ff
c7bb	0	DEY	A: 0	X: ff	Y: 26	SP: ff
c7bc	c7b9	BNE	A: 0	X: ff	Y: 25	SP: ff
c7b9	425	STA	A: 0	X: ff	Y: 25	SP: ff
c7bb	0	DEY	A: 0	X: ff	Y: 25	SP: ff
c7bc	c7b9	BNE	A: 0	X: ff	Y: 24	SP: ff
c7b9	424	STA	A: 0	X: ff	Y: 24	SP: ff
c7bb	0	DEY	A: 0	X: ff	Y: 24	SP: ff
c7bc	c7b9	BNE	A: 0	X: ff	Y: 23	SP: ff
c7b9	423	STA	A: 0	X: ff	Y: 23	SP: ff
c7bb	0	DEY	A: 0	X: ff	Y: 23	SP: ff
c7bc	c7b9	BNE	A: 0	X: ff	Y: 22	SP: ff
c7b9	422	STA	A: 0	X: ff	Y: 22	SP: ff
c7bb	0	DEY	A: 0	X: ff	Y: 22	SP: ff
c7bc	c7b9	BNE	A: 0	X: ff	Y: 21	SP: ff
c7b9	421	STA	A: 0	X: ff	Y: 21	SP: ff
c7bb	0	DEY	A: 0	X: ff	Y: 21	SP: ff
c7bc	c7b9	BNE	A: 0	X: ff	Y: 20	SP: ff
c7b9	420	STA	A: 0	X: ff	Y: 20	SP: ff
c7bb	0	DEY	A: 0	X: ff	Y: 20	SP: ff
c7bc	c7b9	BNE	A: 0	X: ff	Y: 1f	SP: ff
c7b9	41f	STA	A: 0	X: ff	Y: 1f	SP: ff
c7bb	0	DEY	A: 0	X: ff	Y: 1f	SP: ff
c7bc	c7b9	BNE	A: 0	X: ff	Y: 1e	SP: ff
c7b9	41e	STA	A: 0	X: ff	Y: 1e	SP: ff
c7bb	0	DEY	A: 0	X: ff	Y: 1e	SP: ff
c7bc	c7b9	BNE	A: 0	X: ff	Y: 1d	SP: ff
c7b9	41d	STA	A: 0	X: ff	Y: 1d	SP: ff
c7bb	0	DEY	A: 0	X: ff	Y: 1d	SP: ff
c7bc	c7b9	BNE	A: 0	X: ff	Y: 1c	SP: ff
c7b9	41c	STA	A: 0	X: ff	Y: 1c	SP: ff
c7bb	0	DEY	A: 0	X: ff	Y: 1c	SP: ff
c7bc	c7b9	BNE	A: 0	X: ff	Y: 1b	SP: ff
c7b9	41b	STA	A: 0	X: ff	Y: 1b	SP: ff
c7bb	0	DEY	A: 0	X: ff	Y: 1b	SP: ff
c7bc	c7b9	BNE	A: 0	X: ff	Y: 1a	SP: ff
c7b9	41a	STA	A: 0	X: ff	Y: 1a	SP: ff
c7bb	0	DEY	A: 0	X: ff	Y: 1a	SP: ff
c7bc	c7b9	BNE	A: 0	X: ff	Y: 19	SP: ff
c7b9	419	STA	A: 0	X: ff	Y: 19	SP: ff
c7bb	0	DEY	A: 0	X: ff	Y: 19	SP: ff
c7bc	c7b9	BNE	A: 0	X: ff	Y: 18	SP: ff
c7b9	418	STA	A: 0	X: ff	Y: 18	SP: ff
c7bb	0	DEY	A: 0	X: ff	Y: 18	SP: ff
c7bc	c7b9	BNE	A: 0	X: ff	Y: 17	SP: ff
c7b9	417	STA	A: 0	X: ff	Y: 17	SP: ff
c7bb	0	DEY	A: 0	X: ff	Y: 17	SP: ff
c7bc	c7b9	BNE	A: 0	X: ff	Y: 16	SP: ff
c7b9	416	STA	A: 0	X: ff	Y: 16	SP: ff
c7bb	0	DEY	A: 0	X: ff	Y: 16	SP: ff
c7bc	c7b9	BNE	A: 0	X: ff	Y: 15	SP: ff
c7b9	415	STA	A: 0	X: ff	Y: 15	SP: ff
c7bb	0	DEY	A: 0	X: ff	Y: 15	SP: ff
c7bc	c7b9	BNE	A: 0	X: ff	Y: 14	SP: ff
c7b9	414	STA	A: 0	X: ff	Y: 14	SP: ff
c7bb	0	DEY	A: 0	X: ff	Y: 14	SP: ff
c7bc	c7b9	BNE	A: 0	X: ff	Y: 13	SP: ff
c7b9	413	STA	A: 0	X: ff	Y: 13	SP: ff
c7bb	0	DEY	A: 0	X: ff	Y: 13	SP: ff
c7bc	c7b9	BNE	A: 0	X: ff	Y: 12	SP: ff
c7b9	412	STA	A: 0	X: ff	Y: 12	SP: ff
c7bb	0	DEY	A: 0	X: ff	Y: 12	SP: ff
c7bc	c7b9	BNE	A: 0	X: ff	Y: 11	SP: ff
c7b9	411	STA	A: 0	X: ff	Y: 11	SP: ff
c7bb	0	DEY	A: 0	X: ff	Y: 11	SP: ff
c7bc	c7b9	BNE	A: 0	X: ff	Y: 10	SP: ff
c7b9	410	STA	A: 0	X: ff	Y: 10	SP: ff
c7bb	0	DEY	A: 0	X: ff	Y: 10	SP: ff
c7bc	c7b9	BNE	A: 0	X: ff	Y: f	SP: ff
c7b9	40f	STA	A: 0	X: ff	Y: f	SP: ff
c7bb	0	DEY	A: 0	X: ff	Y: f	SP: ff
c7bc	c7b9	BNE	A: 0	X: ff	Y: e	SP: ff
c7b9	40e	STA	A: 0	X: ff	Y: e	SP: ff
c7bb	0	DEY	A: 0	X: ff	Y: e	SP: ff
c7bc	c7b9	BNE	A: 0	X: ff	Y: d	SP: ff
c7b9	40d	STA	A: 0	X: ff	Y: d	SP: ff
c7bb	0	DEY	A: 0	X: ff	Y: d	SP: ff
c7bc	c7b9	BNE	A: 0	X: ff	Y: c	SP: ff
c7b9	40c	STA	A: 0	X: ff	Y: c	SP: ff
c7bb	0	DEY	A: 0	X: ff	Y: c	SP: ff
c7bc	c7b9	BNE	A: 0	X: ff	Y: b	SP: ff
c7b9	40b	STA	A: 0	X: ff	Y: b	SP: ff
c7bb	0	DEY	A: 0	X: ff	Y: b	SP: ff
c7bc	c7b9	BNE	A: 0	X: ff	Y: a	SP: ff
c7b9	40a	STA	A: 0	X: ff	Y: a	SP: ff
c7bb	0	DEY	A: 0	X: ff	Y: a	SP: ff
c7bc	c7b9	BNE	A: 0	X: ff	Y: 9	SP: ff
c7b9	409	STA	A: 0	X: ff	Y: 9	SP: ff
c7bb	0	DEY	A: 0	X: ff	Y: 9	SP: ff
c7bc	c7b9	BNE	A: 0	X: ff	Y: 8	SP: ff
c7b9	408	STA	A: 0	X: ff	Y: 8	SP: ff
c7bb	0	DEY	A: 0	X: ff	Y: 8	SP: ff
c7bc	c7b9	BNE	A: 0	X: ff	Y: 7	SP: ff
c7b9	407	STA	A: 0	X: ff	Y: 7	SP: ff
c7bb	0	DEY	A: 0	X: ff	Y: 7	SP: ff
c7bc	c7b9	BNE	A: 0	X: ff	Y: 6	SP: ff
c7b9	406	STA	A: 0	X: ff	Y: 6	SP: ff
c7bb	0	DEY	A: 0	X: ff	Y: 6	SP: ff
c7bc	c7b9	BNE	A: 0	X: ff	Y: 5	SP: ff
c7b9	405	STA	A: 0	X: ff	Y: 5	SP: ff
c7bb	0	DEY	A: 0	X: ff	Y: 5	SP: ff
c7bc	c7b9	BNE	A: 0	X: ff	Y: 4	SP: ff
c7b9	404	STA	A: 0	X: ff	Y: 4	SP: ff
c7bb	0	DEY	A: 0	X: ff	Y: 4	SP: ff
c7bc	c7b9	BNE	A: 0	X: ff	Y: 3	SP: ff
c7b9	403	STA	A: 0	X: ff	Y: 3	SP: ff
c7bb	0	DEY	A: 0	X: ff	Y: 3	SP: ff
c7bc	c7b9	BNE	A: 0	X: ff	Y: 2	SP: ff
c7b9	402	STA	A: 0	X: ff	Y: 2	SP: ff
c7bb	0	DEY	A: 0	X: ff	Y: 2	SP: ff
c7bc	c7b9	BNE	A: 0	X: ff	Y: 1	SP: ff
c7b9	401	STA	A: 0	X: ff	Y: 1	SP: ff
c7bb	0	DEY	A: 0	X: ff	Y: 1	SP: ff
c7bc	c7b9	BNE	A: 0	X: ff	Y: 0	SP: ff
c7be	1	DEC	A: 0	X: ff	Y: 0	SP: ff
c7c0	c7b9	BPL	A: 0	X: ff	Y: 0	SP: ff
c7b9	300	STA	A: 0	X: ff	Y: 0	SP: ff
c7bb	0	DEY	A: 0	X: ff	Y: 0	SP: ff
c7bc	c7b9	BNE	A: 0	X: ff	Y: ff	SP: ff
c7b9	3ff	STA	A: 0	X: ff	Y: ff	SP: ff
c7bb	0	DEY	A: 0	X: ff	Y: ff	SP: ff
c7bc	c7b9	BNE	A: 0	X: ff	Y: fe	SP: ff
c7b9	3fe	STA	A: 0	X: ff	Y: fe	SP: ff
c7bb	0	DEY	A: 0	X: ff	Y: fe	SP: ff
c7bc	c7b9	BNE	A: 0	X: ff	Y: fd	SP: ff
c7b9	3fd	STA	A: 0	X: ff	Y: fd	SP: ff
c7bb	0	DEY	A: 0	X: ff	Y: fd	SP: ff
c7bc	c7b9	BNE	A: 0	X: ff	Y: fc	SP: ff
c7b9	3fc	STA	A: 0	X: ff	Y: fc	SP: ff
c7bb	0	DEY	A: 0	X: ff	Y: fc	SP: ff
c7bc	c7b9	BNE	A: 0	X: ff	Y: fb	SP: ff
c7b9	3fb	STA	A: 0	X: ff	Y: fb	SP: ff
c7bb	0	DEY	A: 0	X: ff	Y: fb	SP: ff
c7bc	c7b9	BNE	A: 0	X: ff	Y: fa	SP: ff
c7b9	3fa	STA	A: 0	X: ff	Y: fa	SP: ff
c7bb	0	DEY	A: 0	X: ff	Y: fa	SP: ff
c7bc	c7b9	BNE	A: 0	X: ff	Y: f9	SP: ff
c7b9	3f9	STA	A: 0	X: ff	Y: f9	SP: ff
c7bb	0	DEY	A: 0	X: ff	Y: f9	SP: ff
c7bc	c7b9	BNE	A: 0	X: ff	Y: f8	SP: ff
c7b9	3f8	STA	A: 0	X: ff	Y: f8	SP: ff
c7bb	0	DEY	A: 0	X: ff	Y: f8	SP: ff
c7bc	c7b9	BNE	A: 0	X: ff	Y: f7	SP: ff
c7b9	3f7	STA	A: 0	X: ff	Y: f7	SP: ff
c7bb	0	DEY	A: 0	X: ff	Y: f7	SP: ff
c7bc	c7b9	BNE	A: 0	X: ff	Y: f6	SP: ff
c7b9	3f6	STA	A: 0	X: ff	Y: f6	SP: ff
c7bb	0	DEY	A: 0	X: ff	Y: f6	SP: ff
c7bc	c7b9	BNE	A: 0	X: ff	Y: f5	SP: ff
c7b9	3f5	STA	A: 0	X: ff	Y: f5	SP: ff
c7bb	0	DEY	A: 0	X: ff	Y: f5	SP: ff
c7bc	c7b9	BNE	A: 0	X: ff	Y: f4	SP: ff
c7b9	3f4	STA	A: 0	X: ff	Y: f4	SP: ff
c7bb	0	DEY	A: 0	X: ff	Y: f4	SP: ff
c7bc	c7b9	BNE	A: 0	X: ff	Y: f3	SP: ff
c7b9	3f3	STA	A: 0	X: ff	Y: f3	SP: ff
c7bb	0	DEY	A: 0	X: ff	Y: f3	SP: ff
c7bc	c7b9	BNE	A: 0	X: ff	Y: f2	SP: ff
c7b9	3f2	STA	A: 0	X: ff	Y: f2	SP: ff
c7bb	0	DEY	A: 0	X: ff	Y: f2	SP: ff
c7bc	c7b9	BNE	A: 0	X: ff	Y: f1	SP: ff
c7b9	3f1	STA	A: 0	X: ff	Y: f1	SP: ff
c7bb	0	DEY	A: 0	X: ff	Y: f1	SP: ff
c7bc	c7b9	BNE	A: 0	X: ff	Y: f0	SP: ff
c7b9	3f0	STA	A: 0	X: ff	Y: f0	SP: ff
c7bb	0	DEY	A: 0	X: ff	Y: f0	SP: ff
c7bc	c7b9	BNE	A: 0	X: ff	Y: ef	SP: ff
c7b9	3ef	STA	A: 0	X: ff	Y: ef	SP: ff
c7bb	0	DEY	A: 0	X: ff	Y: ef	SP: ff
c7bc	c7b9	BNE	A: 0	X: ff	Y: ee	SP: ff
c7b9	3ee	STA	A: 0	X: ff	Y: ee	SP: ff
c7bb	0	DEY	A: 0	X: ff	Y: ee	SP: ff
c7bc	c7b9	BNE	A: 0	X: ff	Y: ed	SP: ff
c7b9	3ed	STA	A: 0	X: ff	Y: ed	SP: ff
c7bb	0	DEY	A: 0	X: ff	Y: ed	SP: ff
c7bc	c7b9	BNE	A: 0	X: ff	Y: ec	SP: ff
c7b9	3ec	STA	A: 0	X: ff	Y: ec	SP: ff
c7bb	0	DEY	A: 0	X: ff	Y: ec	SP: ff
c7bc	c7b9	BNE	A: 0	X: ff	Y: eb	SP: ff
c7b9	3eb	STA	A: 0	X: ff	Y: eb	SP: ff
c7bb	0	DEY	A: 0	X: ff	Y: eb	SP: ff
c7bc	c7b9	BNE	A: 0	X: ff	Y: ea	SP: ff
c7b9	3ea	STA	A: 0	X: ff	Y: ea	SP: ff
c7bb	0	DEY	A: 0	X: ff	Y: ea	SP: ff
c7bc	c7b9	BNE	A: 0	X: ff	Y: e9	SP: ff
c7b9	3e9	STA	A: 0	X: ff	Y: e9	SP: ff
c7bb	0	DEY	A: 0	X: ff	Y: e9	SP: ff
c7bc	c7b9	BNE	A: 0	X: ff	Y: e8	SP: ff
c7b9	3e8	STA	A: 0	X: ff	Y: e8	SP: ff
c7bb	0	DEY	A: 0	X: ff	Y: e8	SP: ff
c7bc	c7b9	BNE	A: 0	X: ff	Y: e7	SP: ff
c7b9	3e7	STA	A: 0	X: ff	Y: e7	SP: ff
c7bb	0	DEY	A: 0	X: ff	Y: e7	SP: ff
c7bc	c7b9	BNE	A: 0	X: ff	Y: e6	SP: ff
c7b9	3e6	STA	A: 0	X: ff	Y: e6	SP: ff
c7bb	0	DEY	A: 0	X: ff	Y: e6	SP: ff
c7bc	c7b9	BNE	A: 0	X: ff	Y: e5	SP: ff
c7b9	3e5	STA	A: 0	X: ff	Y: e5	SP: ff
c7bb	0	DEY	A: 0	X: ff	Y: e5	SP: ff
c7bc	c7b9	BNE	A: 0	X: ff	Y: e4	SP: ff
c7b9	3e4	STA	A: 0	X: ff	Y: e4	SP: ff
c7bb	0	DEY	A: 0	X: ff	Y: e4	SP: ff
c7bc	c7b9	BNE	A: 0	X: ff	Y: e3	SP: ff
c7b9	3e3	STA	A: 0	X: ff	Y: e3	SP: ff
c7bb	0	DEY	A: 0	X: ff	Y: e3	SP: ff
c7bc	c7b9	BNE	A: 0	X: ff	Y: e2	SP: ff
c7b9	3e2	STA	A: 0	X: ff	Y: e2	SP: ff
c7bb	0	DEY	A: 0	X: ff	Y: e2	SP: ff
c7bc	c7b9	BNE	A: 0	X: ff	Y: e1	SP: ff
c7b9	3e1	STA	A: 0	X: ff	Y: e1	SP: ff
c7bb	0	DEY	A: 0	X: ff	Y: e1	SP: ff
c7bc	c7b9	BNE	A: 0	X: ff	Y: e0	SP: ff
c7b9	3e0	STA	A: 0	X: ff	Y: e0	SP: ff
c7bb	0	DEY	A: 0	X: ff	Y: e0	SP: ff
c7bc	c7b9	BNE	A: 0	X: ff	Y: df	SP: ff
c7b9	3df	STA	A: 0	X: ff	Y: df	SP: ff
c7bb	0	DEY	A: 0	X: ff	Y: df	SP: ff
c7bc	c7b9	BNE	A: 0	X: ff	Y: de	SP: ff
c7b9	3de	STA	A: 0	X: ff	Y: de	SP: ff
c7bb	0	DEY	A: 0	X: ff	Y: de	SP: ff
c7bc	c7b9	BNE	A: 0	X: ff	Y: dd	SP: ff
c7b9	3dd	STA	A: 0	X: ff	Y: dd	SP: ff
c7bb	0	DEY	A: 0	X: ff	Y: dd	SP: ff
c7bc	c7b9	BNE	A: 0	X: ff	Y: dc	SP: ff
c7b9	3dc	STA	A: 0	X: ff	Y: dc	SP: ff
c7bb	0	DEY	A: 0	X: ff	Y: dc	SP: ff
c7bc	c7b9	BNE	A: 0	X: ff	Y: db	SP: ff
c7b9	3db	STA	A: 0	X: ff	Y: db	SP: ff
c7bb	0	DEY	A: 0	X: ff	Y: db	SP: ff
c7bc	c7b9	BNE	A: 0	X: ff	Y: da	SP: ff
c7b9	3da	STA	A: 0	X: ff	Y: da	SP: ff
c7bb	0	DEY	A: 0	X: ff	Y: da	SP: ff
c7bc	c7b9	BNE	A: 0	X: ff	Y: d9	SP: ff
c7b9	3d9	STA	A: 0	X: ff	Y: d9	SP: ff
c7bb	0	DEY	A: 0	X: ff	Y: d9	SP: ff
c7bc	c7b9	BNE	A: 0	X: ff	Y: d8	SP: ff
c7b9	3d8	STA	A: 0	X: ff	Y: d8	SP: ff
c7bb	0	DEY	A: 0	X: ff	Y: d8	SP: ff
c7bc	c7b9	BNE	A: 0	X: ff	Y: d7	SP: ff
c7b9	3d7	STA	A: 0	X: ff	Y: d7	SP: ff
c7bb	0	DEY	A: 0	X: ff	Y: d7	SP: ff
c7bc	c7b9	BNE	A: 0	X: ff	Y: d6	SP: ff
c7b9	3d6	STA	A: 0	X: ff	Y: d6	SP: ff
c7bb	0	DEY	A: 0	X: ff	Y: d6	SP: ff
c7bc	c7b9	BNE	A: 0	X: ff	Y: d5	SP: ff
c7b9	3d5	STA	A: 0	X: ff	Y: d5	SP: ff
c7bb	0	DEY	A: 0	X: ff	Y: d5	SP: ff
c7bc	c7b9	BNE	A: 0	X: ff	Y: d4	SP: ff
c7b9	3d4	STA	A: 0	X: ff	Y: d4	SP: ff
c7bb	0	DEY	A: 0	X: ff	Y: d4	SP: ff
c7bc	c7b9	BNE	A: 0	X: ff	Y: d3	SP: ff
c7b9	3d3	STA	A: 0	X: ff	Y: d3	SP: ff
c7bb	0	DEY	A: 0	X: ff	Y: d3	SP: ff
c7bc	c7b9	BNE	A: 0	X: ff	Y: d2	SP: ff
c7b9	3d2	STA	A: 0	X: ff	Y: d2	SP: ff
c7bb	0	DEY	A: 0	X: ff	Y: d2	SP: ff
c7bc	c7b9	BNE	A: 0	X: ff	Y: d1	SP: ff
c7b9	3d1	STA	A: 0	X: ff	Y: d1	SP: ff
c7bb	0	DEY	A: 0	X: ff	Y: d1	SP: ff
c7bc	c7b9	BNE	A: 0	X: ff	Y: d0	SP: ff
c7b9	3d0	STA	A: 0	X: ff	Y: d0	SP: ff
c7bb	0	DEY	A: 0	X: ff	Y: d0	SP: ff
c7bc	c7b9	BNE	A: 0	X: ff	Y: cf	SP: ff
c7b9	3cf	STA	A: 0	X: ff	Y: cf	SP: ff
c7bb	0	DEY	A: 0	X: ff	Y: cf	SP: ff
c7bc	c7b9	BNE	A: 0	X: ff	Y: ce	SP: ff
c7b9	3ce	STA	A: 0	X: ff	Y: ce	SP: ff
c7bb	0	DEY	A: 0	X: ff	Y: ce	SP: ff
c7bc	c7b9	BNE	A: 0	X: ff	Y: cd	SP: ff
c7b9	3cd	STA	A: 0	X: ff	Y: cd	SP: ff
c7bb	0	DEY	A: 0	X: ff	Y: cd	SP: ff
c7bc	c7b9	BNE	A: 0	X: ff	Y: cc	SP: ff
c7b9	3cc	STA	A: 0	X: ff	Y: cc	SP: ff
c7bb	0	DEY	A: 0	X: ff	Y: cc	SP: ff
c7bc	c7b9	BNE	A: 0	X: ff	Y: cb	SP: ff
c7b9	3cb	STA	A: 0	X: ff	Y: cb	SP: ff
c7bb	0	DEY	A: 0	X: ff	Y: cb	SP: ff
c7bc	c7b9	BNE	A: 0	X: ff	Y: ca	SP: ff
c7b9	3ca	STA	A: 0	X: ff	Y: ca	SP: ff
c7bb	0	DEY	A: 0	X: ff	Y: ca	SP: ff
c7bc	c7b9	BNE	A: 0	X: ff	Y: c9	SP: ff
c7b9	3c9	STA	A: 0	X: ff	Y: c9	SP: ff
c7bb	0	DEY	A: 0	X: ff	Y: c9	SP: ff
c7bc	c7b9	BNE	A: 0	X: ff	Y: c8	SP: ff
c7b9	3c8	STA	A: 0	X: ff	Y: c8	SP: ff
c7bb	0	DEY	A: 0	X: ff	Y: c8	SP: ff
c7bc	c7b9	BNE	A: 0	X: ff	Y: c7	SP: ff
c7b9	3c7	STA	A: 0	X: ff	Y: c7	SP: ff
c7bb	0	DEY	A: 0	X: ff	Y: c7	SP: ff
c7bc	c7b9	BNE	A: 0	X: ff	Y: c6	SP: ff
c7b9	3c6	STA	A: 0	X: ff	Y: c6	SP: ff
c7bb	0	DEY	A: 0	X: ff	Y: c6	SP: ff
c7bc	c7b9	BNE	A: 0	X: ff	Y: c5	SP: ff
c7b9	3c5	STA	A: 0	X: ff	Y: c5	SP: ff
c7bb	0	DEY	A: 0	X: ff	Y: c5	SP: ff
c7bc	c7b9	BNE	A: 0	X: ff	Y: c4	SP: ff
c7b9	3c4	STA	A: 0	X: ff	Y: c4	SP: ff
c7bb	0	DEY	A: 0	X: ff	Y: c4	SP: ff
c7bc	c7b9	BNE	A: 0	X: ff	Y: c3	SP: ff
c7b9	3c3	STA	A: 0	X: ff	Y: c3	SP: ff
c7bb	0	DEY	A: 0	X: ff	Y: c3	SP: ff
c7bc	c7b9	BNE	A: 0	X: ff	Y: c2	SP: ff
c7b9	3c2	STA	A: 0	X: ff	Y: c2	SP: ff
c7bb	0	DEY	A: 0	X: ff	Y: c2	SP: ff
c7bc	c7b9	BNE	A: 0	X: ff	Y: c1	SP: ff
c7b9	3c1	STA	A: 0	X: ff	Y: c1	SP: ff
c7bb	0	DEY	A: 0	X: ff	Y: c1	SP: ff
c7bc	c7b9	BNE	A: 0	X: ff	Y: c0	SP: ff
c7b9	3c0	STA	A: 0	X: ff	Y: c0	SP: ff
c7bb	0	DEY	A: 0	X: ff	Y: c0	SP: ff
c7bc	c7b9	BNE	A: 0	X: ff	Y: bf	SP: ff
c7b9	3bf	STA	A: 0	X: ff	Y: bf	SP: ff
c7bb	0	DEY	A: 0	X: ff	Y: bf	SP: ff
c7bc	c7b9	BNE	A: 0	X: ff	Y: be	SP: ff
c7b9	3be	STA	A: 0	X: ff	Y: be	SP: ff
c7bb	0	DEY	A: 0	X: ff	Y: be	SP: ff
c7bc	c7b9	BNE	A: 0	X: ff	Y: bd	SP: ff
c7b9	3bd	STA	A: 0	X: ff	Y: bd	SP: ff
c7bb	0	DEY	A: 0	X: ff	Y: bd	SP: ff
c7bc	c7b9	BNE	A: 0	X: ff	Y: bc	SP: ff
c7b9	3bc	STA	A: 0	X: ff	Y: bc	SP: ff
c7bb	0	DEY	A: 0	X: ff	Y: bc	SP: ff
c7bc	c7b9	BNE	A: 0	X: ff	Y: bb	SP: ff
c7b9	3bb	STA	A: 0	X: ff	Y: bb	SP: ff
c7bb	0	DEY	A: 0	X: ff	Y: bb	SP: ff
c7bc	c7b9	BNE	A: 0	X: ff	Y: ba	SP: ff
c7b9	3ba	STA	A: 0	X: ff	Y: ba	SP: ff
c7bb	0	DEY	A: 0	X: ff	Y: ba	SP: ff
c7bc	c7b9	BNE	A: 0	X: ff	Y: b9	SP: ff
c7b9	3b9	STA	A: 0	X: ff	Y: b9	SP: ff
c7bb	0	DEY	A: 0	X: ff	Y: b9	SP: ff
c7bc	c7b9	BNE	A: 0	X: ff	Y: b8	SP: ff
c7b9	3b8	STA	A: 0	X: ff	Y: b8	SP: ff
c7bb	0	DEY	A: 0	X: ff	Y: b8	SP: ff
c7bc	c7b9	BNE	A: 0	X: ff	Y: b7	SP: ff
c7b9	3b7	STA	A: 0	X: ff	Y: b7	SP: ff
c7bb	0	DEY	A: 0	X: ff	Y: b7	SP: ff
c7bc	c7b9	BNE	A: 0	X: ff	Y: b6	SP: ff
c7b9	3b6	STA	A: 0	X: ff	Y: b6	SP: ff
c7bb	0	DEY	A: 0	X: ff	Y: b6	SP: ff
c7bc	c7b9	BNE	A: 0	X: ff	Y: b5	SP: ff
c7b9	3b5	STA	A: 0	X: ff	Y: b5	SP: ff
c7bb	0	DEY	A: 0	X: ff	Y: b5	SP: ff
c7bc	c7b9	BNE	A: 0	X: ff	Y: b4	SP: ff
c7b9	3b4	STA	A: 0	X: ff	Y: b4	SP: ff
c7bb	0	DEY	A: 0	X: ff	Y: b4	SP: ff
c7bc	c7b9	BNE	A: 0	X: ff	Y: b3	SP: ff
c7b9	3b3	STA	A: 0	X: ff	Y: b3	SP: ff
c7bb	0	DEY	A: 0	X: ff	Y: b3	SP: ff
c7bc	c7b9	BNE	A: 0	X: ff	Y: b2	SP: ff
c7b9	3b2	STA	A: 0	X: ff	Y: b2	SP: ff
c7bb	0	DEY	A: 0	X: ff	Y: b2	SP: ff
c7bc	c7b9	BNE	A: 0	X: ff	Y: b1	SP: ff
c7b9	3b1	STA	A: 0	X: ff	Y: b1	SP: ff
c7bb	0	DEY	A: 0	X: ff	Y: b1	SP: ff
c7bc	c7b9	BNE	A: 0	X: ff	Y: b0	SP: ff
c7b9	3b0	STA	A: 0	X: ff	Y: b0	SP: ff
c7bb	0	DEY	A: 0	X: ff	Y: b0	SP: ff
c7bc	c7b9	BNE	A: 0	X: ff	Y: af	SP: ff
c7b9	3af	STA	A: 0	X: ff	Y: af	SP: ff
c7bb	0	DEY	A: 0	X: ff	Y: af	SP: ff
c7bc	c7b9	BNE	A: 0	X: ff	Y: ae	SP: ff
c7b9	3ae	STA	A: 0	X: ff	Y: ae	SP: ff
c7bb	0	DEY	A: 0	X: ff	Y: ae	SP: ff
c7bc	c7b9	BNE	A: 0	X: ff	Y: ad	SP: ff
c7b9	3ad	STA	A: 0	X: ff	Y: ad	SP: ff
c7bb	0	DEY	A: 0	X: ff	Y: ad	SP: ff
c7bc	c7b9	BNE	A: 0	X: ff	Y: ac	SP: ff
c7b9	3ac	STA	A: 0	X: ff	Y: ac	SP: ff
c7bb	0	DEY	A: 0	X: ff	Y: ac	SP: ff
c7bc	c7b9	BNE	A: 0	X: ff	Y: ab	SP: ff
c7b9	3ab	STA	A: 0	X: ff	Y: ab	SP: ff
c7bb	0	DEY	A: 0	X: ff	Y: ab	SP: ff
c7bc	c7b9	BNE	A: 0	X: ff	Y: aa	SP: ff
c7b9	3aa	STA	A: 0	X: ff	Y: aa	SP: ff
c7bb	0	DEY	A: 0	X: ff	Y: aa	SP: ff
c7bc	c7b9	BNE	A: 0	X: ff	Y: a9	SP: ff
c7b9	3a9	STA	A: 0	X: ff	Y: a9	SP: ff
c7bb	0	DEY	A: 0	X: ff	Y: a9	SP: ff
c7bc	c7b9	BNE	A: 0	X: ff	Y: a8	SP: ff
c7b9	3a8	STA	A: 0	X: ff	Y: a8	SP: ff
c7bb	0	DEY	A: 0	X: ff	Y: a8	SP: ff
c7bc	c7b9	BNE	A: 0	X: ff	Y: a7	SP: ff
c7b9	3a7	STA	A: 0	X: ff	Y: a7	SP: ff
c7bb	0	DEY	A: 0	X: ff	Y: a7	SP: ff
c7bc	c7b9	BNE	A: 0	X: ff	Y: a6	SP: ff
c7b9	3a6	STA	A: 0	X: ff	Y: a6	SP: ff
c7bb	0	DEY	A: 0	X: ff	Y: a6	SP: ff
c7bc	c7b9	BNE	A: 0	X: ff	Y: a5	SP: ff
c7b9	3a5	STA	A: 0	X: ff	Y: a5	SP: ff
c7bb	0	DEY	A: 0	X: ff	Y: a5	SP: ff
c7bc	c7b9	BNE	A: 0	X: ff	Y: a4	SP: ff
c7b9	3a4	STA	A: 0	X: ff	Y: a4	SP: ff
c7bb	0	DEY	A: 0	X: ff	Y: a4	SP: ff
c7bc	c7b9	BNE	A: 0	X: ff	Y: a3	SP: ff
c7b9	3a3	STA	A: 0	X: ff	Y: a3	SP: ff
c7bb	0	DEY	A: 0	X: ff	Y: a3	SP: ff
c7bc	c7b9	BNE	A: 0	X: ff	Y: a2	SP: ff
c7b9	3a2	STA	A: 0	X: ff	Y: a2	SP: ff
c7bb	0	DEY	A: 0	X: ff	Y: a2	SP: ff
c7bc	c7b9	BNE	A: 0	X: ff	Y: a1	SP: ff
c7b9	3a1	STA	A: 0	X: ff	Y: a1	SP: ff
c7bb	0	DEY	A: 0	X: ff	Y: a1	SP: ff
c7bc	c7b9	BNE	A: 0	X: ff	Y: a0	SP: ff
c7b9	3a0	STA	A: 0	X: ff	Y: a0	SP: ff
c7bb	0	DEY	A: 0	X: ff	Y: a0	SP: ff
c7bc	c7b9	BNE	A: 0	X: ff	Y: 9f	SP: ff
c7b9	39f	STA	A: 0	X: ff	Y: 9f	SP: ff
c7bb	0	DEY	A: 0	X: ff	Y: 9f	SP: ff
c7bc	c7b9	BNE	A: 0	X: ff	Y: 9e	SP: ff
c7b9	39e	STA	A: 0	X: ff	Y: 9e	SP: ff
c7bb	0	DEY	A: 0	X: ff	Y: 9e	SP: ff
c7bc	c7b9	BNE	A: 0	X: ff	Y: 9d	SP: ff
c7b9	39d	STA	A: 0	X: ff	Y: 9d	SP: ff
c7bb	0	DEY	A: 0	X: ff	Y: 9d	SP: ff
c7bc	c7b9	BNE	A: 0	X: ff	Y: 9c	SP: ff
c7b9	39c	STA	A: 0	X: ff	Y: 9c	SP: ff
c7bb	0	DEY	A: 0	X: ff	Y: 9c	SP: ff
c7bc	c7b9	BNE	A: 0	X: ff	Y: 9b	SP: ff
c7b9	39b	STA	A: 0	X: ff	Y: 9b	SP: ff
c7bb	0	DEY	A: 0	X: ff	Y: 9b	SP: ff
c7bc	c7b9	BNE	A: 0	X: ff	Y: 9a	SP: ff
c7b9	39a	STA	A: 0	X: ff	Y: 9a	SP: ff
c7bb	0	DEY	A: 0	X: ff	Y: 9a	SP: ff
c7bc	c7b9	BNE	A: 0	X: ff	Y: 99	SP: ff
c7b9	399	STA	A: 0	X: ff	Y: 99	SP: ff
c7bb	0	DEY	A: 0	X: ff	Y: 99	SP: ff
c7bc	c7b9	BNE	A: 0	X: ff	Y: 98	SP: ff
c7b9	398	STA	A: 0	X: ff	Y: 98	SP: ff
c7bb	0	DEY	A: 0	X: ff	Y: 98	SP: ff
c7bc	c7b9	BNE	A: 0	X: ff	Y: 97	SP: ff
c7b9	397	STA	A: 0	X: ff	Y: 97	SP: ff
c7bb	0	DEY	A: 0	X: ff	Y: 97	SP: ff
c7bc	c7b9	BNE	A: 0	X: ff	Y: 96	SP: ff
c7b9	396	STA	A: 0	X: ff	Y: 96	SP: ff
c7bb	0	DEY	A: 0	X: ff	Y: 96	SP: ff
c7bc	c7b9	BNE	A: 0	X: ff	Y: 95	SP: ff
c7b9	395	STA	A: 0	X: ff	Y: 95	SP: ff
c7bb	0	DEY	A: 0	X: ff	Y: 95	SP: ff
c7bc	c7b9	BNE	A: 0	X: ff	Y: 94	SP: ff
c7b9	394	STA	A: 0	X: ff	Y: 94	SP: ff
c7bb	0	DEY	A: 0	X: ff	Y: 94	SP: ff
c7bc	c7b9	BNE	A: 0	X: ff	Y: 93	SP: ff
c7b9	393	STA	A: 0	X: ff	Y: 93	SP: ff
c7bb	0	DEY	A: 0	X: ff	Y: 93	SP: ff
c7bc	c7b9	BNE	A: 0	X: ff	Y: 92	SP: ff
c7b9	392	STA	A: 0	X: ff	Y: 92	SP: ff
c7bb	0	DEY	A: 0	X: ff	Y: 92	SP: ff
c7bc	c7b9	BNE	A: 0	X: ff	Y: 91	SP: ff
c7b9	391	STA	A: 0	X: ff	Y: 91	SP: ff
c7bb	0	DEY	A: 0	X: ff	Y: 91	SP: ff
c7bc	c7b9	BNE	A: 0	X: ff	Y: 90	SP: ff
c7b9	390	STA	A: 0	X: ff	Y: 90	SP: ff
c7bb	0	DEY	A: 0	X: ff	Y: 90	SP: ff
c7bc	c7b9	BNE	A: 0	X: ff	Y: 8f	SP: ff
c7b9	38f	STA	A: 0	X: ff	Y: 8f	SP: ff
c7bb	0	DEY	A: 0	X: ff	Y: 8f	SP: ff
c7bc	c7b9	BNE	A: 0	X: ff	Y: 8e	SP: ff
c7b9	38e	STA	A: 0	X: ff	Y: 8e	SP: ff
c7bb	0	DEY	A: 0	X: ff	Y: 8e	SP: ff
c7bc	c7b9	BNE	A: 0	X: ff	Y: 8d	SP: ff
c7b9	38d	STA	A: 0	X: ff	Y: 8d	SP: ff
c7bb	0	DEY	A: 0	X: ff	Y: 8d	SP: ff
c7bc	c7b9	BNE	A: 0	X: ff	Y: 8c	SP: ff
c7b9	38c	STA	A: 0	X: ff	Y: 8c	SP: ff
c7bb	0	DEY	A: 0	X: ff	Y: 8c	SP: ff
c7bc	c7b9	BNE	A: 0	X: ff	Y: 8b	SP: ff
c7b9	38b	STA	A: 0	X: ff	Y: 8b	SP: ff
c7bb	0	DEY	A: 0	X: ff	Y: 8b	SP: ff
c7bc	c7b9	BNE	A: 0	X: ff	Y: 8a	SP: ff
c7b9	38a	STA	A: 0	X: ff	Y: 8a	SP: ff
c7bb	0	DEY	A: 0	X: ff	Y: 8a	SP: ff
c7bc	c7b9	BNE	A: 0	X: ff	Y: 89	SP: ff
c7b9	389	STA	A: 0	X: ff	Y: 89	SP: ff
c7bb	0	DEY	A: 0	X: ff	Y: 89	SP: ff
c7bc	c7b9	BNE	A: 0	X: ff	Y: 88	SP: ff
c7b9	388	STA	A: 0	X: ff	Y: 88	SP: ff
c7bb	0	DEY	A: 0	X: ff	Y: 88	SP: ff
c7bc	c7b9	BNE	A: 0	X: ff	Y: 87	SP: ff
c7b9	387	STA	A: 0	X: ff	Y: 87	SP: ff
c7bb	0	DEY	A: 0	X: ff	Y: 87	SP: ff
c7bc	c7b9	BNE	A: 0	X: ff	Y: 86	SP: ff
c7b9	386	STA	A: 0	X: ff	Y: 86	SP: ff
c7bb	0	DEY	A: 0	X: ff	Y: 86	SP: ff
c7bc	c7b9	BNE	A: 0	X: ff	Y: 85	SP: ff
c7b9	385	STA	A: 0	X: ff	Y: 85	SP: ff
c7bb	0	DEY	A: 0	X: ff	Y: 85	SP: ff
c7bc	c7b9	BNE	A: 0	X: ff	Y: 84	SP: ff
c7b9	384	STA	A: 0	X: ff	Y: 84	SP: ff
c7bb	0	DEY	A: 0	X: ff	Y: 84	SP: ff
c7bc	c7b9	BNE	A: 0	X: ff	Y: 83	SP: ff
c7b9	383	STA	A: 0	X: ff	Y: 83	SP: ff
c7bb	0	DEY	A: 0	X: ff	Y: 83	SP: ff
c7bc	c7b9	BNE	A: 0	X: ff	Y: 82	SP: ff
c7b9	382	STA	A: 0	X: ff	Y: 82	SP: ff
c7bb	0	DEY	A: 0	X: ff	Y: 82	SP: ff
c7bc	c7b9	BNE	A: 0	X: ff	Y: 81	SP: ff
c7b9	381	STA	A: 0	X: ff	Y: 81	SP: ff
c7bb	0	DEY	A: 0	X: ff	Y: 81	SP: ff
c7bc	c7b9	BNE	A: 0	X: ff	Y: 80	SP: ff
c7b9	380	STA	A: 0	X: ff	Y: 80	SP: ff
c7bb	0	DEY	A: 0	X: ff	Y: 80	SP: ff
c7bc	c7b9	BNE	A: 0	X: ff	Y: 7f	SP: ff
c7b9	37f	STA	A: 0	X: ff	Y: 7f	SP: ff
c7bb	0	DEY	A: 0	X: ff	Y: 7f	SP: ff
c7bc	c7b9	BNE	A: 0	X: ff	Y: 7e	SP: ff
c7b9	37e	STA	A: 0	X: ff	Y: 7e	SP: ff
c7bb	0	DEY	A: 0	X: ff	Y: 7e	SP: ff
c7bc	c7b9	BNE	A: 0	X: ff	Y: 7d	SP: ff
c7b9	37d	STA	A: 0	X: ff	Y: 7d	SP: ff
c7bb	0	DEY	A: 0	X: ff	Y: 7d	SP: ff
c7bc	c7b9	BNE	A: 0	X: ff	Y: 7c	SP: ff
c7b9	37c	STA	A: 0	X: ff	Y: 7c	SP: ff
c7bb	0	DEY	A: 0	X: ff	Y: 7c	SP: ff
c7bc	c7b9	BNE	A: 0	X: ff	Y: 7b	SP: ff
c7b9	37b	STA	A: 0	X: ff	Y: 7b	SP: ff
c7bb	0	DEY	A: 0	X: ff	Y: 7b	SP: ff
c7bc	c7b9	BNE	A: 0	X: ff	Y: 7a	SP: ff
c7b9	37a	STA	A: 0	X: ff	Y: 7a	SP: ff
c7bb	0	DEY	A: 0	X: ff	Y: 7a	SP: ff
c7bc	c7b9	BNE	A: 0	X: ff	Y: 79	SP: ff
c7b9	379	STA	A: 0	X: ff	Y: 79	SP: ff
c7bb	0	DEY	A: 0	X: ff	Y: 79	SP: ff
c7bc	c7b9	BNE	A: 0	X: ff	Y: 78	SP: ff
c7b9	378	STA	A: 0	X: ff	Y: 78	SP: ff
c7bb	0	DEY	A: 0	X: ff	Y: 78	SP: ff
c7bc	c7b9	BNE	A: 0	X: ff	Y: 77	SP: ff
c7b9	377	STA	A: 0	X: ff	Y: 77	SP: ff
c7bb	0	DEY	A: 0	X: ff	Y: 77	SP: ff
c7bc	c7b9	BNE	A: 0	X: ff	Y: 76	SP: ff
c7b9	376	STA	A: 0	X: ff	Y: 76	SP: ff
c7bb	0	DEY	A: 0	X: ff	Y: 76	SP: ff
c7bc	c7b9	BNE	A: 0	X: ff	Y: 75	SP: ff
c7b9	375	STA	A: 0	X: ff	Y: 75	SP: ff
c7bb	0	DEY	A: 0	X: ff	Y: 75	SP: ff
c7bc	c7b9	BNE	A: 0	X: ff	Y: 74	SP: ff
c7b9	374	STA	A: 0	X: ff	Y: 74	SP: ff
c7bb	0	DEY	A: 0	X: ff	Y: 74	SP: ff
c7bc	c7b9	BNE	A: 0	X: ff	Y: 73	SP: ff
c7b9	373	STA	A: 0	X: ff	Y: 73	SP: ff
c7bb	0	DEY	A: 0	X: ff	Y: 73	SP: ff
c7bc	c7b9	BNE	A: 0	X: ff	Y: 72	SP: ff
c7b9	372	STA	A: 0	X: ff	Y: 72	SP: ff
c7bb	0	DEY	A: 0	X: ff	Y: 72	SP: ff
c7bc	c7b9	BNE	A: 0	X: ff	Y: 71	SP: ff
c7b9	371	STA	A: 0	X: ff	Y: 71	SP: ff
c7bb	0	DEY	A: 0	X: ff	Y: 71	SP: ff
c7bc	c7b9	BNE	A: 0	X: ff	Y: 70	SP: ff
c7b9	370	STA	A: 0	X: ff	Y: 70	SP: ff
c7bb	0	DEY	A: 0	X: ff	Y: 70	SP: ff
c7bc	c7b9	BNE	A: 0	X: ff	Y: 6f	SP: ff
c7b9	36f	STA	A: 0	X: ff	Y: 6f	SP: ff
c7bb	0	DEY	A: 0	X: ff	Y: 6f	SP: ff
c7bc	c7b9	BNE	A: 0	X: ff	Y: 6e	SP: ff
c7b9	36e	STA	A: 0	X: ff	Y: 6e	SP: ff
c7bb	0	DEY	A: 0	X: ff	Y: 6e	SP: ff
c7bc	c7b9	BNE	A: 0	X: ff	Y: 6d	SP: ff
c7b9	36d	STA	A: 0	X: ff	Y: 6d	SP: ff
c7bb	0	DEY	A: 0	X: ff	Y: 6d	SP: ff
c7bc	c7b9	BNE	A: 0	X: ff	Y: 6c	SP: ff
c7b9	36c	STA	A: 0	X: ff	Y: 6c	SP: ff
c7bb	0	DEY	A: 0	X: ff	Y: 6c	SP: ff
c7bc	c7b9	BNE	A: 0	X: ff	Y: 6b	SP: ff
c7b9	36b	STA	A: 0	X: ff	Y: 6b	SP: ff
c7bb	0	DEY	A: 0	X: ff	Y: 6b	SP: ff
c7bc	c7b9	BNE	A: 0	X: ff	Y: 6a	SP: ff
c7b9	36a	STA	A: 0	X: ff	Y: 6a	SP: ff
c7bb	0	DEY	A: 0	X: ff	Y: 6a	SP: ff
c7bc	c7b9	BNE	A: 0	X: ff	Y: 69	SP: ff
c7b9	369	STA	A: 0	X: ff	Y: 69	SP: ff
c7bb	0	DEY	A: 0	X: ff	Y: 69	SP: ff
c7bc	c7b9	BNE	A: 0	X: ff	Y: 68	SP: ff
c7b9	368	STA	A: 0	X: ff	Y: 68	SP: ff
c7bb	0	DEY	A: 0	X: ff	Y: 68	SP: ff
c7bc	c7b9	BNE	A: 0	X: ff	Y: 67	SP: ff
c7b9	367	STA	A: 0	X: ff	Y: 67	SP: ff
c7bb	0	DEY	A: 0	X: ff	Y: 67	SP: ff
c7bc	c7b9	BNE	A: 0	X: ff	Y: 66	SP: ff
c7b9	366	STA	A: 0	X: ff	Y: 66	SP: ff
c7bb	0	DEY	A: 0	X: ff	Y: 66	SP: ff
c7bc	c7b9	BNE	A: 0	X: ff	Y: 65	SP: ff
c7b9	365	STA	A: 0	X: ff	Y: 65	SP: ff
c7bb	0	DEY	A: 0	X: ff	Y: 65	SP: ff
c7bc	c7b9	BNE	A: 0	X: ff	Y: 64	SP: ff
c7b9	364	STA	A: 0	X: ff	Y: 64	SP: ff
c7bb	0	DEY	A: 0	X: ff	Y: 64	SP: ff
c7bc	c7b9	BNE	A: 0	X: ff	Y: 63	SP: ff
c7b9	363	STA	A: 0	X: ff	Y: 63	SP: ff
c7bb	0	DEY	A: 0	X: ff	Y: 63	SP: ff
c7bc	c7b9	BNE	A: 0	X: ff	Y: 62	SP: ff
c7b9	362	STA	A: 0	X: ff	Y: 62	SP: ff
c7bb	0	DEY	A: 0	X: ff	Y: 62	SP: ff
c7bc	c7b9	BNE	A: 0	X: ff	Y: 61	SP: ff
c7b9	361	STA	A: 0	X: ff	Y: 61	SP: ff
c7bb	0	DEY	A: 0	X: ff	Y: 61	SP: ff
c7bc	c7b9	BNE	A: 0	X: ff	Y: 60	SP: ff
c7b9	360	STA	A: 0	X: ff	Y: 60	SP: ff
c7bb	0	DEY	A: 0	X: ff	Y: 60	SP: ff
c7bc	c7b9	BNE	A: 0	X: ff	Y: 5f	SP: ff
c7b9	35f	STA	A: 0	X: ff	Y: 5f	SP: ff
c7bb	0	DEY	A: 0	X: ff	Y: 5f	SP: ff
c7bc	c7b9	BNE	A: 0	X: ff	Y: 5e	SP: ff
c7b9	35e	STA	A: 0	X: ff	Y: 5e	SP: ff
c7bb	0	DEY	A: 0	X: ff	Y: 5e	SP: ff
c7bc	c7b9	BNE	A: 0	X: ff	Y: 5d	SP: ff
c7b9	35d	STA	A: 0	X: ff	Y: 5d	SP: ff
c7bb	0	DEY	A: 0	X: ff	Y: 5d	SP: ff
c7bc	c7b9	BNE	A: 0	X: ff	Y: 5c	SP: ff
c7b9	35c	STA	A: 0	X: ff	Y: 5c	SP: ff
c7bb	0	DEY	A: 0	X: ff	Y: 5c	SP: ff
c7bc	c7b9	BNE	A: 0	X: ff	Y: 5b	SP: ff
c7b9	35b	STA	A: 0	X: ff	Y: 5b	SP: ff
c7bb	0	DEY	A: 0	X: ff	Y: 5b	SP: ff
c7bc	c7b9	BNE	A: 0	X: ff	Y: 5a	SP: ff
c7b9	35a	STA	A: 0	X: ff	Y: 5a	SP: ff
c7bb	0	DEY	A: 0	X: ff	Y: 5a	SP: ff
c7bc	c7b9	BNE	A: 0	X: ff	Y: 59	SP: ff
c7b9	359	STA	A: 0	X: ff	Y: 59	SP: ff
c7bb	0	DEY	A: 0	X: ff	Y: 59	SP: ff
c7bc	c7b9	BNE	A: 0	X: ff	Y: 58	SP: ff
c7b9	358	STA	A: 0	X: ff	Y: 58	SP: ff
c7bb	0	DEY	A: 0	X: ff	Y: 58	SP: ff
c7bc	c7b9	BNE	A: 0	X: ff	Y: 57	SP: ff
c7b9	357	STA	A: 0	X: ff	Y: 57	SP: ff
c7bb	0	DEY	A: 0	X: ff	Y: 57	SP: ff
c7bc	c7b9	BNE	A: 0	X: ff	Y: 56	SP: ff
c7b9	356	STA	A: 0	X: ff	Y: 56	SP: ff
c7bb	0	DEY	A: 0	X: ff	Y: 56	SP: ff
c7bc	c7b9	BNE	A: 0	X: ff	Y: 55	SP: ff
c7b9	355	STA	A: 0	X: ff	Y: 55	SP: ff
c7bb	0	DEY	A: 0	X: ff	Y: 55	SP: ff
c7bc	c7b9	BNE	A: 0	X: ff	Y: 54	SP: ff
c7b9	354	STA	A: 0	X: ff	Y: 54	SP: ff
c7bb	0	DEY	A: 0	X: ff	Y: 54	SP: ff
c7bc	c7b9	BNE	A: 0	X: ff	Y: 53	SP: ff
c7b9	353	STA	A: 0	X: ff	Y: 53	SP: ff
c7bb	0	DEY	A: 0	X: ff	Y: 53	SP: ff
c7bc	c7b9	BNE	A: 0	X: ff	Y: 52	SP: ff
c7b9	352	STA	A: 0	X: ff	Y: 52	SP: ff
c7bb	0	DEY	A: 0	X: ff	Y: 52	SP: ff
c7bc	c7b9	BNE	A: 0	X: ff	Y: 51	SP: ff
c7b9	351	STA	A: 0	X: ff	Y: 51	SP: ff
c7bb	0	DEY	A: 0	X: ff	Y: 51	SP: ff
c7bc	c7b9	BNE	A: 0	X: ff	Y: 50	SP: ff
c7b9	350	STA	A: 0	X: ff	Y: 50	SP: ff
c7bb	0	DEY	A: 0	X: ff	Y: 50	SP: ff
c7bc	c7b9	BNE	A: 0	X: ff	Y: 4f	SP: ff
c7b9	34f	STA	A: 0	X: ff	Y: 4f	SP: ff
c7bb	0	DEY	A: 0	X: ff	Y: 4f	SP: ff
c7bc	c7b9	BNE	A: 0	X: ff	Y: 4e	SP: ff
c7b9	34e	STA	A: 0	X: ff	Y: 4e	SP: ff
c7bb	0	DEY	A: 0	X: ff	Y: 4e	SP: ff
c7bc	c7b9	BNE	A: 0	X: ff	Y: 4d	SP: ff
c7b9	34d	STA	A: 0	X: ff	Y: 4d	SP: ff
c7bb	0	DEY	A: 0	X: ff	Y: 4d	SP: ff
c7bc	c7b9	BNE	A: 0	X: ff	Y: 4c	SP: ff
c7b9	34c	STA	A: 0	X: ff	Y: 4c	SP: ff
c7bb	0	DEY	A: 0	X: ff	Y: 4c	SP: ff
c7bc	c7b9	BNE	A: 0	X: ff	Y: 4b	SP: ff
c7b9	34b	STA	A: 0	X: ff	Y: 4b	SP: ff
c7bb	0	DEY	A: 0	X: ff	Y: 4b	SP: ff
c7bc	c7b9	BNE	A: 0	X: ff	Y: 4a	SP: ff
c7b9	34a	STA	A: 0	X: ff	Y: 4a	SP: ff
c7bb	0	DEY	A: 0	X: ff	Y: 4a	SP: ff
c7bc	c7b9	BNE	A: 0	X: ff	Y: 49	SP: ff
c7b9	349	STA	A: 0	X: ff	Y: 49	SP: ff
c7bb	0	DEY	A: 0	X: ff	Y: 49	SP: ff
c7bc	c7b9	BNE	A: 0	X: ff	Y: 48	SP: ff
c7b9	348	STA	A: 0	X: ff	Y: 48	SP: ff
c7bb	0	DEY	A: 0	X: ff	Y: 48	SP: ff
c7bc	c7b9	BNE	A: 0	X: ff	Y: 47	SP: ff
c7b9	347	STA	A: 0	X: ff	Y: 47	SP: ff
c7bb	0	DEY	A: 0	X: ff	Y: 47	SP: ff
c7bc	c7b9	BNE	A: 0	X: ff	Y: 46	SP: ff
c7b9	346	STA	A: 0	X: ff	Y: 46	SP: ff
c7bb	0	DEY	A: 0	X: ff	Y: 46	SP: ff
c7bc	c7b9	BNE	A: 0	X: ff	Y: 45	SP: ff
c7b9	345	STA	A: 0	X: ff	Y: 45	SP: ff
c7bb	0	DEY	A: 0	X: ff	Y: 45	SP: ff
c7bc	c7b9	BNE	A: 0	X: ff	Y: 44	SP: ff
c7b9	344	STA	A: 0	X: ff	Y: 44	SP: ff
c7bb	0	DEY	A: 0	X: ff	Y: 44	SP: ff
c7bc	c7b9	BNE	A: 0	X: ff	Y: 43	SP: ff
c7b9	343	STA	A: 0	X: ff	Y: 43	SP: ff
c7bb	0	DEY	A: 0	X: ff	Y: 43	SP: ff
c7bc	c7b9	BNE	A: 0	X: ff	Y: 42	SP: ff
c7b9	342	STA	A: 0	X: ff	Y: 42	SP: ff
c7bb	0	DEY	A: 0	X: ff	Y: 42	SP: ff
c7bc	c7b9	BNE	A: 0	X: ff	Y: 41	SP: ff
c7b9	341	STA	A: 0	X: ff	Y: 41	SP: ff
c7bb	0	DEY	A: 0	X: ff	Y: 41	SP: ff
c7bc	c7b9	BNE	A: 0	X: ff	Y: 40	SP: ff
c7b9	340	STA	A: 0	X: ff	Y: 40	SP: ff
c7bb	0	DEY	A: 0	X: ff	Y: 40	SP: ff
c7bc	c7b9	BNE	A: 0	X: ff	Y: 3f	SP: ff
c7b9	33f	STA	A: 0	X: ff	Y: 3f	SP: ff
c7bb	0	DEY	A: 0	X: ff	Y: 3f	SP: ff
c7bc	c7b9	BNE	A: 0	X: ff	Y: 3e	SP: ff
c7b9	33e	STA	A: 0	X: ff	Y: 3e	SP: ff
c7bb	0	DEY	A: 0	X: ff	Y: 3e	SP: ff
c7bc	c7b9	BNE	A: 0	X: ff	Y: 3d	SP: ff
c7b9	33d	STA	A: 0	X: ff	Y: 3d	SP: ff
c7bb	0	DEY	A: 0	X: ff	Y: 3d	SP: ff
c7bc	c7b9	BNE	A: 0	X: ff	Y: 3c	SP: ff
c7b9	33c	STA	A: 0	X: ff	Y: 3c	SP: ff
c7bb	0	DEY	A: 0	X: ff	Y: 3c	SP: ff
c7bc	c7b9	BNE	A: 0	X: ff	Y: 3b	SP: ff
c7b9	33b	STA	A: 0	X: ff	Y: 3b	SP: ff
c7bb	0	DEY	A: 0	X: ff	Y: 3b	SP: ff
c7bc	c7b9	BNE	A: 0	X: ff	Y: 3a	SP: ff
c7b9	33a	STA	A: 0	X: ff	Y: 3a	SP: ff
c7bb	0	DEY	A: 0	X: ff	Y: 3a	SP: ff
c7bc	c7b9	BNE	A: 0	X: ff	Y: 39	SP: ff
c7b9	339	STA	A: 0	X: ff	Y: 39	SP: ff
c7bb	0	DEY	A: 0	X: ff	Y: 39	SP: ff
c7bc	c7b9	BNE	A: 0	X: ff	Y: 38	SP: ff
c7b9	338	STA	A: 0	X: ff	Y: 38	SP: ff
c7bb	0	DEY	A: 0	X: ff	Y: 38	SP: ff
c7bc	c7b9	BNE	A: 0	X: ff	Y: 37	SP: ff
c7b9	337	STA	A: 0	X: ff	Y: 37	SP: ff
c7bb	0	DEY	A: 0	X: ff	Y: 37	SP: ff
c7bc	c7b9	BNE	A: 0	X: ff	Y: 36	SP: ff
c7b9	336	STA	A: 0	X: ff	Y: 36	SP: ff
c7bb	0	DEY	A: 0	X: ff	Y: 36	SP: ff
c7bc	c7b9	BNE	A: 0	X: ff	Y: 35	SP: ff
c7b9	335	STA	A: 0	X: ff	Y: 35	SP: ff
c7bb	0	DEY	A: 0	X: ff	Y: 35	SP: ff
c7bc	c7b9	BNE	A: 0	X: ff	Y: 34	SP: ff
c7b9	334	STA	A: 0	X: ff	Y: 34	SP: ff
c7bb	0	DEY	A: 0	X: ff	Y: 34	SP: ff
c7bc	c7b9	BNE	A: 0	X: ff	Y: 33	SP: ff
c7b9	333	STA	A: 0	X: ff	Y: 33	SP: ff
c7bb	0	DEY	A: 0	X: ff	Y: 33	SP: ff
c7bc	c7b9	BNE	A: 0	X: ff	Y: 32	SP: ff
c7b9	332	STA	A: 0	X: ff	Y: 32	SP: ff
c7bb	0	DEY	A: 0	X: ff	Y: 32	SP: ff
c7bc	c7b9	BNE	A: 0	X: ff	Y: 31	SP: ff
c7b9	331	STA	A: 0	X: ff	Y: 31	SP: ff
c7bb	0	DEY	A: 0	X: ff	Y: 31	SP: ff
c7bc	c7b9	BNE	A: 0	X: ff	Y: 30	SP: ff
c7b9	330	STA	A: 0	X: ff	Y: 30	SP: ff
c7bb	0	DEY	A: 0	X: ff	Y: 30	SP: ff
c7bc	c7b9	BNE	A: 0	X: ff	Y: 2f	SP: ff
c7b9	32f	STA	A: 0	X: ff	Y: 2f	SP: ff
c7bb	0	DEY	A: 0	X: ff	Y: 2f	SP: ff
c7bc	c7b9	BNE	A: 0	X: ff	Y: 2e	SP: ff
c7b9	32e	STA	A: 0	X: ff	Y: 2e	SP: ff
c7bb	0	DEY	A: 0	X: ff	Y: 2e	SP: ff
c7bc	c7b9	BNE	A: 0	X: ff	Y: 2d	SP: ff
c7b9	32d	STA	A: 0	X: ff	Y: 2d	SP: ff
c7bb	0	DEY	A: 0	X: ff	Y: 2d	SP: ff
c7bc	c7b9	BNE	A: 0	X: ff	Y: 2c	SP: ff
c7b9	32c	STA	A: 0	X: ff	Y: 2c	SP: ff
c7bb	0	DEY	A: 0	X: ff	Y: 2c	SP: ff
c7bc	c7b9	BNE	A: 0	X: ff	Y: 2b	SP: ff
c7b9	32b	STA	A: 0	X: ff	Y: 2b	SP: ff
c7bb	0	DEY	A: 0	X: ff	Y: 2b	SP: ff
c7bc	c7b9	BNE	A: 0	X: ff	Y: 2a	SP: ff
c7b9	32a	STA	A: 0	X: ff	Y: 2a	SP: ff
c7bb	0	DEY	A: 0	X: ff	Y: 2a	SP: ff
c7bc	c7b9	BNE	A: 0	X: ff	Y: 29	SP: ff
c7b9	329	STA	A: 0	X: ff	Y: 29	SP: ff
c7bb	0	DEY	A: 0	X: ff	Y: 29	SP: ff
c7bc	c7b9	BNE	A: 0	X: ff	Y: 28	SP: ff
c7b9	328	STA	A: 0	X: ff	Y: 28	SP: ff
c7bb	0	DEY	A: 0	X: ff	Y: 28	SP: ff
c7bc	c7b9	BNE	A: 0	X: ff	Y: 27	SP: ff
c7b9	327	STA	A: 0	X: ff	Y: 27	SP: ff
c7bb	0	DEY	A: 0	X: ff	Y: 27	SP: ff
c7bc	c7b9	BNE	A: 0	X: ff	Y: 26	SP: ff
c7b9	326	STA	A: 0	X: ff	Y: 26	SP: ff
c7bb	0	DEY	A: 0	X: ff	Y: 26	SP: ff
c7bc	c7b9	BNE	A: 0	X: ff	Y: 25	SP: ff
c7b9	325	STA	A: 0	X: ff	Y: 25	SP: ff
c7bb	0	DEY	A: 0	X: ff	Y: 25	SP: ff
c7bc	c7b9	BNE	A: 0	X: ff	Y: 24	SP: ff
c7b9	324	STA	A: 0	X: ff	Y: 24	SP: ff
c7bb	0	DEY	A: 0	X: ff	Y: 24	SP: ff
c7bc	c7b9	BNE	A: 0	X: ff	Y: 23	SP: ff
c7b9	323	STA	A: 0	X: ff	Y: 23	SP: ff
c7bb	0	DEY	A: 0	X: ff	Y: 23	SP: ff
c7bc	c7b9	BNE	A: 0	X: ff	Y: 22	SP: ff
c7b9	322	STA	A: 0	X: ff	Y: 22	SP: ff
c7bb	0	DEY	A: 0	X: ff	Y: 22	SP: ff
c7bc	c7b9	BNE	A: 0	X: ff	Y: 21	SP: ff
c7b9	321	STA	A: 0	X: ff	Y: 21	SP: ff
c7bb	0	DEY	A: 0	X: ff	Y: 21	SP: ff
c7bc	c7b9	BNE	A: 0	X: ff	Y: 20	SP: ff
c7b9	320	STA	A: 0	X: ff	Y: 20	SP: ff
c7bb	0	DEY	A: 0	X: ff	Y: 20	SP: ff
c7bc	c7b9	BNE	A: 0	X: ff	Y: 1f	SP: ff
c7b9	31f	STA	A: 0	X: ff	Y: 1f	SP: ff
c7bb	0	DEY	A: 0	X: ff	Y: 1f	SP: ff
c7bc	c7b9	BNE	A: 0	X: ff	Y: 1e	SP: ff
c7b9	31e	STA	A: 0	X: ff	Y: 1e	SP: ff
c7bb	0	DEY	A: 0	X: ff	Y: 1e	SP: ff
c7bc	c7b9	BNE	A: 0	X: ff	Y: 1d	SP: ff
c7b9	31d	STA	A: 0	X: ff	Y: 1d	SP: ff
c7bb	0	DEY	A: 0	X: ff	Y: 1d	SP: ff
c7bc	c7b9	BNE	A: 0	X: ff	Y: 1c	SP: ff
c7b9	31c	STA	A: 0	X: ff	Y: 1c	SP: ff
c7bb	0	DEY	A: 0	X: ff	Y: 1c	SP: ff
c7bc	c7b9	BNE	A: 0	X: ff	Y: 1b	SP: ff
c7b9	31b	STA	A: 0	X: ff	Y: 1b	SP: ff
c7bb	0	DEY	A: 0	X: ff	Y: 1b	SP: ff
c7bc	c7b9	BNE	A: 0	X: ff	Y: 1a	SP: ff
c7b9	31a	STA	A: 0	X: ff	Y: 1a	SP: ff
c7bb	0	DEY	A: 0	X: ff	Y: 1a	SP: ff
c7bc	c7b9	BNE	A: 0	X: ff	Y: 19	SP: ff
c7b9	319	STA	A: 0	X: ff	Y: 19	SP: ff
c7bb	0	DEY	A: 0	X: ff	Y: 19	SP: ff
c7bc	c7b9	BNE	A: 0	X: ff	Y: 18	SP: ff
c7b9	318	STA	A: 0	X: ff	Y: 18	SP: ff
c7bb	0	DEY	A: 0	X: ff	Y: 18	SP: ff
c7bc	c7b9	BNE	A: 0	X: ff	Y: 17	SP: ff
c7b9	317	STA	A: 0	X: ff	Y: 17	SP: ff
c7bb	0	DEY	A: 0	X: ff	Y: 17	SP: ff
c7bc	c7b9	BNE	A: 0	X: ff	Y: 16	SP: ff
c7b9	316	STA	A: 0	X: ff	Y: 16	SP: ff
c7bb	0	DEY	A: 0	X: ff	Y: 16	SP: ff
c7bc	c7b9	BNE	A: 0	X: ff	Y: 15	SP: ff
c7b9	315	STA	A: 0	X: ff	Y: 15	SP: ff
c7bb	0	DEY	A: 0	X: ff	Y: 15	SP: ff
c7bc	c7b9	BNE	A: 0	X: ff	Y: 14	SP: ff
c7b9	314	STA	A: 0	X: ff	Y: 14	SP: ff
c7bb	0	DEY	A: 0	X: ff	Y: 14	SP: ff
c7bc	c7b9	BNE	A: 0	X: ff	Y: 13	SP: ff
c7b9	313	STA	A: 0	X: ff	Y: 13	SP: ff
c7bb	0	DEY	A: 0	X: ff	Y: 13	SP: ff
c7bc	c7b9	BNE	A: 0	X: ff	Y: 12	SP: ff
c7b9	312	STA	A: 0	X: ff	Y: 12	SP: ff
c7bb	0	DEY	A: 0	X: ff	Y: 12	SP: ff
c7bc	c7b9	BNE	A: 0	X: ff	Y: 11	SP: ff
c7b9	311	STA	A: 0	X: ff	Y: 11	SP: ff
c7bb	0	DEY	A: 0	X: ff	Y: 11	SP: ff
c7bc	c7b9	BNE	A: 0	X: ff	Y: 10	SP: ff
c7b9	310	STA	A: 0	X: ff	Y: 10	SP: ff
c7bb	0	DEY	A: 0	X: ff	Y: 10	SP: ff
c7bc	c7b9	BNE	A: 0	X: ff	Y: f	SP: ff
c7b9	30f	STA	A: 0	X: ff	Y: f	SP: ff
c7bb	0	DEY	A: 0	X: ff	Y: f	SP: ff
c7bc	c7b9	BNE	A: 0	X: ff	Y: e	SP: ff
c7b9	30e	STA	A: 0	X: ff	Y: e	SP: ff
c7bb	0	DEY	A: 0	X: ff	Y: e	SP: ff
c7bc	c7b9	BNE	A: 0	X: ff	Y: d	SP: ff
c7b9	30d	STA	A: 0	X: ff	Y: d	SP: ff
c7bb	0	DEY	A: 0	X: ff	Y: d	SP: ff
c7bc	c7b9	BNE	A: 0	X: ff	Y: c	SP: ff
c7b9	30c	STA	A: 0	X: ff	Y: c	SP: ff
c7bb	0	DEY	A: 0	X: ff	Y: c	SP: ff
c7bc	c7b9	BNE	A: 0	X: ff	Y: b	SP: ff
c7b9	30b	STA	A: 0	X: ff	Y: b	SP: ff
c7bb	0	DEY	A: 0	X: ff	Y: b	SP: ff
c7bc	c7b9	BNE	A: 0	X: ff	Y: a	SP: ff
c7b9	30a	STA	A: 0	X: ff	Y: a	SP: ff
c7bb	0	DEY	A: 0	X: ff	Y: a	SP: ff
c7bc	c7b9	BNE	A: 0	X: ff	Y: 9	SP: ff
c7b9	309	STA	A: 0	X: ff	Y: 9	SP: ff
c7bb	0	DEY	A: 0	X: ff	Y: 9	SP: ff
c7bc	c7b9	BNE	A: 0	X: ff	Y: 8	SP: ff
c7b9	308	STA	A: 0	X: ff	Y: 8	SP: ff
c7bb	0	DEY	A: 0	X: ff	Y: 8	SP: ff
c7bc	c7b9	BNE	A: 0	X: ff	Y: 7	SP: ff
c7b9	307	STA	A: 0	X: ff	Y: 7	SP: ff
c7bb	0	DEY	A: 0	X: ff	Y: 7	SP: ff
c7bc	c7b9	BNE	A: 0	X: ff	Y: 6	SP: ff
c7b9	306	STA	A: 0	X: ff	Y: 6	SP: ff
c7bb	0	DEY	A: 0	X: ff	Y: 6	SP: ff
c7bc	c7b9	BNE	A: 0	X: ff	Y: 5	SP: ff
c7b9	305	STA	A: 0	X: ff	Y: 5	SP: ff
c7bb	0	DEY	A: 0	X: ff	Y: 5	SP: ff
c7bc	c7b9	BNE	A: 0	X: ff	Y: 4	SP: ff
c7b9	304	STA	A: 0	X: ff	Y: 4	SP: ff
c7bb	0	DEY	A: 0	X: ff	Y: 4	SP: ff
c7bc	c7b9	BNE	A: 0	X: ff	Y: 3	SP: ff
c7b9	303	STA	A: 0	X: ff	Y: 3	SP: ff
c7bb	0	DEY	A: 0	X: ff	Y: 3	SP: ff
c7bc	c7b9	BNE	A: 0	X: ff	Y: 2	SP: ff
c7b9	302	STA	A: 0	X: ff	Y: 2	SP: ff
c7bb	0	DEY	A: 0	X: ff	Y: 2	SP: ff
c7bc	c7b9	BNE	A: 0	X: ff	Y: 1	SP: ff
c7b9	301	STA	A: 0	X: ff	Y: 1	SP: ff
c7bb	0	DEY	A: 0	X: ff	Y: 1	SP: ff
c7bc	c7b9	BNE	A: 0	X: ff	Y: 0	SP: ff
c7be	1	DEC	A: 0	X: ff	Y: 0	SP: ff
c7c0	c7b9	BPL	A: 0	X: ff	Y: 0	SP: ff
c7b9	200	STA	A: 0	X: ff	Y: 0	SP: ff
c7bb	0	DEY	A: 0	X: ff	Y: 0	SP: ff
c7bc	c7b9	BNE	A: 0	X: ff	Y: ff	SP: ff
c7b9	2ff	STA	A: 0	X: ff	Y: ff	SP: ff
c7bb	0	DEY	A: 0	X: ff	Y: ff	SP: ff
c7bc	c7b9	BNE	A: 0	X: ff	Y: fe	SP: ff
c7b9	2fe	STA	A: 0	X: ff	Y: fe	SP: ff
c7bb	0	DEY	A: 0	X: ff	Y: fe	SP: ff
c7bc	c7b9	BNE	A: 0	X: ff	Y: fd	SP: ff
c7b9	2fd	STA	A: 0	X: ff	Y: fd	SP: ff
c7bb	0	DEY	A: 0	X: ff	Y: fd	SP: ff
c7bc	c7b9	BNE	A: 0	X: ff	Y: fc	SP: ff
c7b9	2fc	STA	A: 0	X: ff	Y: fc	SP: ff
c7bb	0	DEY	A: 0	X: ff	Y: fc	SP: ff
c7bc	c7b9	BNE	A: 0	X: ff	Y: fb	SP: ff
c7b9	2fb	STA	A: 0	X: ff	Y: fb	SP: ff
c7bb	0	DEY	A: 0	X: ff	Y: fb	SP: ff
c7bc	c7b9	BNE	A: 0	X: ff	Y: fa	SP: ff
c7b9	2fa	STA	A: 0	X: ff	Y: fa	SP: ff
c7bb	0	DEY	A: 0	X: ff	Y: fa	SP: ff
c7bc	c7b9	BNE	A: 0	X: ff	Y: f9	SP: ff
c7b9	2f9	STA	A: 0	X: ff	Y: f9	SP: ff
c7bb	0	DEY	A: 0	X: ff	Y: f9	SP: ff
c7bc	c7b9	BNE	A: 0	X: ff	Y: f8	SP: ff
c7b9	2f8	STA	A: 0	X: ff	Y: f8	SP: ff
c7bb	0	DEY	A: 0	X: ff	Y: f8	SP: ff
c7bc	c7b9	BNE	A: 0	X: ff	Y: f7	SP: ff
c7b9	2f7	STA	A: 0	X: ff	Y: f7	SP: ff
c7bb	0	DEY	A: 0	X: ff	Y: f7	SP: ff
c7bc	c7b9	BNE	A: 0	X: ff	Y: f6	SP: ff
c7b9	2f6	STA	A: 0	X: ff	Y: f6	SP: ff
c7bb	0	DEY	A: 0	X: ff	Y: f6	SP: ff
c7bc	c7b9	BNE	A: 0	X: ff	Y: f5	SP: ff
c7b9	2f5	STA	A: 0	X: ff	Y: f5	SP: ff
c7bb	0	DEY	A: 0	X: ff	Y: f5	SP: ff
c7bc	c7b9	BNE	A: 0	X: ff	Y: f4	SP: ff
c7b9	2f4	STA	A: 0	X: ff	Y: f4	SP: ff
c7bb	0	DEY	A: 0	X: ff	Y: f4	SP: ff
c7bc	c7b9	BNE	A: 0	X: ff	Y: f3	SP: ff
c7b9	2f3	STA	A: 0	X: ff	Y: f3	SP: ff
c7bb	0	DEY	A: 0	X: ff	Y: f3	SP: ff
c7bc	c7b9	BNE	A: 0	X: ff	Y: f2	SP: ff
c7b9	2f2	STA	A: 0	X: ff	Y: f2	SP: ff
c7bb	0	DEY	A: 0	X: ff	Y: f2	SP: ff
c7bc	c7b9	BNE	A: 0	X: ff	Y: f1	SP: ff
c7b9	2f1	STA	A: 0	X: ff	Y: f1	SP: ff
c7bb	0	DEY	A: 0	X: ff	Y: f1	SP: ff
c7bc	c7b9	BNE	A: 0	X: ff	Y: f0	SP: ff
c7b9	2f0	STA	A: 0	X: ff	Y: f0	SP: ff
c7bb	0	DEY	A: 0	X: ff	Y: f0	SP: ff
c7bc	c7b9	BNE	A: 0	X: ff	Y: ef	SP: ff
c7b9	2ef	STA	A: 0	X: ff	Y: ef	SP: ff
c7bb	0	DEY	A: 0	X: ff	Y: ef	SP: ff
c7bc	c7b9	BNE	A: 0	X: ff	Y: ee	SP: ff
c7b9	2ee	STA	A: 0	X: ff	Y: ee	SP: ff
c7bb	0	DEY	A: 0	X: ff	Y: ee	SP: ff
c7bc	c7b9	BNE	A: 0	X: ff	Y: ed	SP: ff
c7b9	2ed	STA	A: 0	X: ff	Y: ed	SP: ff
c7bb	0	DEY	A: 0	X: ff	Y: ed	SP: ff
c7bc	c7b9	BNE	A: 0	X: ff	Y: ec	SP: ff
c7b9	2ec	STA	A: 0	X: ff	Y: ec	SP: ff
c7bb	0	DEY	A: 0	X: ff	Y: ec	SP: ff
c7bc	c7b9	BNE	A: 0	X: ff	Y: eb	SP: ff
c7b9	2eb	STA	A: 0	X: ff	Y: eb	SP: ff
c7bb	0	DEY	A: 0	X: ff	Y: eb	SP: ff
c7bc	c7b9	BNE	A: 0	X: ff	Y: ea	SP: ff
c7b9	2ea	STA	A: 0	X: ff	Y: ea	SP: ff
c7bb	0	DEY	A: 0	X: ff	Y: ea	SP: ff
c7bc	c7b9	BNE	A: 0	X: ff	Y: e9	SP: ff
c7b9	2e9	STA	A: 0	X: ff	Y: e9	SP: ff
c7bb	0	DEY	A: 0	X: ff	Y: e9	SP: ff
c7bc	c7b9	BNE	A: 0	X: ff	Y: e8	SP: ff
c7b9	2e8	STA	A: 0	X: ff	Y: e8	SP: ff
c7bb	0	DEY	A: 0	X: ff	Y: e8	SP: ff
c7bc	c7b9	BNE	A: 0	X: ff	Y: e7	SP: ff
c7b9	2e7	STA	A: 0	X: ff	Y: e7	SP: ff
c7bb	0	DEY	A: 0	X: ff	Y: e7	SP: ff
c7bc	c7b9	BNE	A: 0	X: ff	Y: e6	SP: ff
c7b9	2e6	STA	A: 0	X: ff	Y: e6	SP: ff
c7bb	0	DEY	A: 0	X: ff	Y: e6	SP: ff
c7bc	c7b9	BNE	A: 0	X: ff	Y: e5	SP: ff
c7b9	2e5	STA	A: 0	X: ff	Y: e5	SP: ff
c7bb	0	DEY	A: 0	X: ff	Y: e5	SP: ff
c7bc	c7b9	BNE	A: 0	X: ff	Y: e4	SP: ff
c7b9	2e4	STA	A: 0	X: ff	Y: e4	SP: ff
c7bb	0	DEY	A: 0	X: ff	Y: e4	SP: ff
c7bc	c7b9	BNE	A: 0	X: ff	Y: e3	SP: ff
c7b9	2e3	STA	A: 0	X: ff	Y: e3	SP: ff
c7bb	0	DEY	A: 0	X: ff	Y: e3	SP: ff
c7bc	c7b9	BNE	A: 0	X: ff	Y: e2	SP: ff
c7b9	2e2	STA	A: 0	X: ff	Y: e2	SP: ff
c7bb	0	DEY	A: 0	X: ff	Y: e2	SP: ff
c7bc	c7b9	BNE	A: 0	X: ff	Y: e1	SP: ff
c7b9	2e1	STA	A: 0	X: ff	Y: e1	SP: ff
c7bb	0	DEY	A: 0	X: ff	Y: e1	SP: ff
c7bc	c7b9	BNE	A: 0	X: ff	Y: e0	SP: ff
c7b9	2e0	STA	A: 0	X: ff	Y: e0	SP: ff
c7bb	0	DEY	A: 0	X: ff	Y: e0	SP: ff
c7bc	c7b9	BNE	A: 0	X: ff	Y: df	SP: ff
c7b9	2df	STA	A: 0	X: ff	Y: df	SP: ff
c7bb	0	DEY	A: 0	X: ff	Y: df	SP: ff
c7bc	c7b9	BNE	A: 0	X: ff	Y: de	SP: ff
c7b9	2de	STA	A: 0	X: ff	Y: de	SP: ff
c7bb	0	DEY	A: 0	X: ff	Y: de	SP: ff
c7bc	c7b9	BNE	A: 0	X: ff	Y: dd	SP: ff
c7b9	2dd	STA	A: 0	X: ff	Y: dd	SP: ff
c7bb	0	DEY	A: 0	X: ff	Y: dd	SP: ff
c7bc	c7b9	BNE	A: 0	X: ff	Y: dc	SP: ff
c7b9	2dc	STA	A: 0	X: ff	Y: dc	SP: ff
c7bb	0	DEY	A: 0	X: ff	Y: dc	SP: ff
c7bc	c7b9	BNE	A: 0	X: ff	Y: db	SP: ff
c7b9	2db	STA	A: 0	X: ff	Y: db	SP: ff
c7bb	0	DEY	A: 0	X: ff	Y: db	SP: ff
c7bc	c7b9	BNE	A: 0	X: ff	Y: da	SP: ff
c7b9	2da	STA	A: 0	X: ff	Y: da	SP: ff
c7bb	0	DEY	A: 0	X: ff	Y: da	SP: ff
c7bc	c7b9	BNE	A: 0	X: ff	Y: d9	SP: ff
c7b9	2d9	STA	A: 0	X: ff	Y: d9	SP: ff
c7bb	0	DEY	A: 0	X: ff	Y: d9	SP: ff
c7bc	c7b9	BNE	A: 0	X: ff	Y: d8	SP: ff
c7b9	2d8	STA	A: 0	X: ff	Y: d8	SP: ff
c7bb	0	DEY	A: 0	X: ff	Y: d8	SP: ff
c7bc	c7b9	BNE	A: 0	X: ff	Y: d7	SP: ff
c7b9	2d7	STA	A: 0	X: ff	Y: d7	SP: ff
c7bb	0	DEY	A: 0	X: ff	Y: d7	SP: ff
c7bc	c7b9	BNE	A: 0	X: ff	Y: d6	SP: ff
c7b9	2d6	STA	A: 0	X: ff	Y: d6	SP: ff
c7bb	0	DEY	A: 0	X: ff	Y: d6	SP: ff
c7bc	c7b9	BNE	A: 0	X: ff	Y: d5	SP: ff
c7b9	2d5	STA	A: 0	X: ff	Y: d5	SP: ff
c7bb	0	DEY	A: 0	X: ff	Y: d5	SP: ff
c7bc	c7b9	BNE	A: 0	X: ff	Y: d4	SP: ff
c7b9	2d4	STA	A: 0	X: ff	Y: d4	SP: ff
c7bb	0	DEY	A: 0	X: ff	Y: d4	SP: ff
c7bc	c7b9	BNE	A: 0	X: ff	Y: d3	SP: ff
c7b9	2d3	STA	A: 0	X: ff	Y: d3	SP: ff
c7bb	0	DEY	A: 0	X: ff	Y: d3	SP: ff
c7bc	c7b9	BNE	A: 0	X: ff	Y: d2	SP: ff
c7b9	2d2	STA	A: 0	X: ff	Y: d2	SP: ff
c7bb	0	DEY	A: 0	X: ff	Y: d2	SP: ff
c7bc	c7b9	BNE	A: 0	X: ff	Y: d1	SP: ff
c7b9	2d1	STA	A: 0	X: ff	Y: d1	SP: ff
c7bb	0	DEY	A: 0	X: ff	Y: d1	SP: ff
c7bc	c7b9	BNE	A: 0	X: ff	Y: d0	SP: ff
c7b9	2d0	STA	A: 0	X: ff	Y: d0	SP: ff
c7bb	0	DEY	A: 0	X: ff	Y: d0	SP: ff
c7bc	c7b9	BNE	A: 0	X: ff	Y: cf	SP: ff
c7b9	2cf	STA	A: 0	X: ff	Y: cf	SP: ff
c7bb	0	DEY	A: 0	X: ff	Y: cf	SP: ff
c7bc	c7b9	BNE	A: 0	X: ff	Y: ce	SP: ff
c7b9	2ce	STA	A: 0	X: ff	Y: ce	SP: ff
c7bb	0	DEY	A: 0	X: ff	Y: ce	SP: ff
c7bc	c7b9	BNE	A: 0	X: ff	Y: cd	SP: ff
c7b9	2cd	STA	A: 0	X: ff	Y: cd	SP: ff
c7bb	0	DEY	A: 0	X: ff	Y: cd	SP: ff
c7bc	c7b9	BNE	A: 0	X: ff	Y: cc	SP: ff
c7b9	2cc	STA	A: 0	X: ff	Y: cc	SP: ff
c7bb	0	DEY	A: 0	X: ff	Y: cc	SP: ff
c7bc	c7b9	BNE	A: 0	X: ff	Y: cb	SP: ff
c7b9	2cb	STA	A: 0	X: ff	Y: cb	SP: ff
c7bb	0	DEY	A: 0	X: ff	Y: cb	SP: ff
c7bc	c7b9	BNE	A: 0	X: ff	Y: ca	SP: ff
c7b9	2ca	STA	A: 0	X: ff	Y: ca	SP: ff
c7bb	0	DEY	A: 0	X: ff	Y: ca	SP: ff
c7bc	c7b9	BNE	A: 0	X: ff	Y: c9	SP: ff
c7b9	2c9	STA	A: 0	X: ff	Y: c9	SP: ff
c7bb	0	DEY	A: 0	X: ff	Y: c9	SP: ff
c7bc	c7b9	BNE	A: 0	X: ff	Y: c8	SP: ff
c7b9	2c8	STA	A: 0	X: ff	Y: c8	SP: ff
c7bb	0	DEY	A: 0	X: ff	Y: c8	SP: ff
c7bc	c7b9	BNE	A: 0	X: ff	Y: c7	SP: ff
c7b9	2c7	STA	A: 0	X: ff	Y: c7	SP: ff
c7bb	0	DEY	A: 0	X: ff	Y: c7	SP: ff
c7bc	c7b9	BNE	A: 0	X: ff	Y: c6	SP: ff
c7b9	2c6	STA	A: 0	X: ff	Y: c6	SP: ff
c7bb	0	DEY	A: 0	X: ff	Y: c6	SP: ff
c7bc	c7b9	BNE	A: 0	X: ff	Y: c5	SP: ff
c7b9	2c5	STA	A: 0	X: ff	Y: c5	SP: ff
c7bb	0	DEY	A: 0	X: ff	Y: c5	SP: ff
c7bc	c7b9	BNE	A: 0	X: ff	Y: c4	SP: ff
c7b9	2c4	STA	A: 0	X: ff	Y: c4	SP: ff
c7bb	0	DEY	A: 0	X: ff	Y: c4	SP: ff
c7bc	c7b9	BNE	A: 0	X: ff	Y: c3	SP: ff
c7b9	2c3	STA	A: 0	X: ff	Y: c3	SP: ff
c7bb	0	DEY	A: 0	X: ff	Y: c3	SP: ff
c7bc	c7b9	BNE	A: 0	X: ff	Y: c2	SP: ff
c7b9	2c2	STA	A: 0	X: ff	Y: c2	SP: ff
c7bb	0	DEY	A: 0	X: ff	Y: c2	SP: ff
c7bc	c7b9	BNE	A: 0	X: ff	Y: c1	SP: ff
c7b9	2c1	STA	A: 0	X: ff	Y: c1	SP: ff
c7bb	0	DEY	A: 0	X: ff	Y: c1	SP: ff
c7bc	c7b9	BNE	A: 0	X: ff	Y: c0	SP: ff
c7b9	2c0	STA	A: 0	X: ff	Y: c0	SP: ff
c7bb	0	DEY	A: 0	X: ff	Y: c0	SP: ff
c7bc	c7b9	BNE	A: 0	X: ff	Y: bf	SP: ff
c7b9	2bf	STA	A: 0	X: ff	Y: bf	SP: ff
c7bb	0	DEY	A: 0	X: ff	Y: bf	SP: ff
c7bc	c7b9	BNE	A: 0	X: ff	Y: be	SP: ff
c7b9	2be	STA	A: 0	X: ff	Y: be	SP: ff
c7bb	0	DEY	A: 0	X: ff	Y: be	SP: ff
c7bc	c7b9	BNE	A: 0	X: ff	Y: bd	SP: ff
c7b9	2bd	STA	A: 0	X: ff	Y: bd	SP: ff
c7bb	0	DEY	A: 0	X: ff	Y: bd	SP: ff
c7bc	c7b9	BNE	A: 0	X: ff	Y: bc	SP: ff
c7b9	2bc	STA	A: 0	X: ff	Y: bc	SP: ff
c7bb	0	DEY	A: 0	X: ff	Y: bc	SP: ff
c7bc	c7b9	BNE	A: 0	X: ff	Y: bb	SP: ff
c7b9	2bb	STA	A: 0	X: ff	Y: bb	SP: ff
c7bb	0	DEY	A: 0	X: ff	Y: bb	SP: ff
c7bc	c7b9	BNE	A: 0	X: ff	Y: ba	SP: ff
c7b9	2ba	STA	A: 0	X: ff	Y: ba	SP: ff
c7bb	0	DEY	A: 0	X: ff	Y: ba	SP: ff
c7bc	c7b9	BNE	A: 0	X: ff	Y: b9	SP: ff
c7b9	2b9	STA	A: 0	X: ff	Y: b9	SP: ff
c7bb	0	DEY	A: 0	X: ff	Y: b9	SP: ff
c7bc	c7b9	BNE	A: 0	X: ff	Y: b8	SP: ff
c7b9	2b8	STA	A: 0	X: ff	Y: b8	SP: ff
c7bb	0	DEY	A: 0	X: ff	Y: b8	SP: ff
c7bc	c7b9	BNE	A: 0	X: ff	Y: b7	SP: ff
c7b9	2b7	STA	A: 0	X: ff	Y: b7	SP: ff
c7bb	0	DEY	A: 0	X: ff	Y: b7	SP: ff
c7bc	c7b9	BNE	A: 0	X: ff	Y: b6	SP: ff
c7b9	2b6	STA	A: 0	X: ff	Y: b6	SP: ff
c7bb	0	DEY	A: 0	X: ff	Y: b6	SP: ff
c7bc	c7b9	BNE	A: 0	X: ff	Y: b5	SP: ff
c7b9	2b5	STA	A: 0	X: ff	Y: b5	SP: ff
c7bb	0	DEY	A: 0	X: ff	Y: b5	SP: ff
c7bc	c7b9	BNE	A: 0	X: ff	Y: b4	SP: ff
c7b9	2b4	STA	A: 0	X: ff	Y: b4	SP: ff
c7bb	0	DEY	A: 0	X: ff	Y: b4	SP: ff
c7bc	c7b9	BNE	A: 0	X: ff	Y: b3	SP: ff
c7b9	2b3	STA	A: 0	X: ff	Y: b3	SP: ff
c7bb	0	DEY	A: 0	X: ff	Y: b3	SP: ff
c7bc	c7b9	BNE	A: 0	X: ff	Y: b2	SP: ff
c7b9	2b2	STA	A: 0	X: ff	Y: b2	SP: ff
c7bb	0	DEY	A: 0	X: ff	Y: b2	SP: ff
c7bc	c7b9	BNE	A: 0	X: ff	Y: b1	SP: ff
c7b9	2b1	STA	A: 0	X: ff	Y: b1	SP: ff
c7bb	0	DEY	A: 0	X: ff	Y: b1	SP: ff
c7bc	c7b9	BNE	A: 0	X: ff	Y: b0	SP: ff
c7b9	2b0	STA	A: 0	X: ff	Y: b0	SP: ff
c7bb	0	DEY	A: 0	X: ff	Y: b0	SP: ff
c7bc	c7b9	BNE	A: 0	X: ff	Y: af	SP: ff
c7b9	2af	STA	A: 0	X: ff	Y: af	SP: ff
c7bb	0	DEY	A: 0	X: ff	Y: af	SP: ff
c7bc	c7b9	BNE	A: 0	X: ff	Y: ae	SP: ff
c7b9	2ae	STA	A: 0	X: ff	Y: ae	SP: ff
c7bb	0	DEY	A: 0	X: ff	Y: ae	SP: ff
c7bc	c7b9	BNE	A: 0	X: ff	Y: ad	SP: ff
c7b9	2ad	STA	A: 0	X: ff	Y: ad	SP: ff
c7bb	0	DEY	A: 0	X: ff	Y: ad	SP: ff
c7bc	c7b9	BNE	A: 0	X: ff	Y: ac	SP: ff
c7b9	2ac	STA	A: 0	X: ff	Y: ac	SP: ff
c7bb	0	DEY	A: 0	X: ff	Y: ac	SP: ff
c7bc	c7b9	BNE	A: 0	X: ff	Y: ab	SP: ff
c7b9	2ab	STA	A: 0	X: ff	Y: ab	SP: ff
c7bb	0	DEY	A: 0	X: ff	Y: ab	SP: ff
c7bc	c7b9	BNE	A: 0	X: ff	Y: aa	SP: ff
c7b9	2aa	STA	A: 0	X: ff	Y: aa	SP: ff
c7bb	0	DEY	A: 0	X: ff	Y: aa	SP: ff
c7bc	c7b9	BNE	A: 0	X: ff	Y: a9	SP: ff
c7b9	2a9	STA	A: 0	X: ff	Y: a9	SP: ff
c7bb	0	DEY	A: 0	X: ff	Y: a9	SP: ff
c7bc	c7b9	BNE	A: 0	X: ff	Y: a8	SP: ff
c7b9	2a8	STA	A: 0	X: ff	Y: a8	SP: ff
c7bb	0	DEY	A: 0	X: ff	Y: a8	SP: ff
c7bc	c7b9	BNE	A: 0	X: ff	Y: a7	SP: ff
c7b9	2a7	STA	A: 0	X: ff	Y: a7	SP: ff
c7bb	0	DEY	A: 0	X: ff	Y: a7	SP: ff
c7bc	c7b9	BNE	A: 0	X: ff	Y: a6	SP: ff
c7b9	2a6	STA	A: 0	X: ff	Y: a6	SP: ff
c7bb	0	DEY	A: 0	X: ff	Y: a6	SP: ff
c7bc	c7b9	BNE	A: 0	X: ff	Y: a5	SP: ff
c7b9	2a5	STA	A: 0	X: ff	Y: a5	SP: ff
c7bb	0	DEY	A: 0	X: ff	Y: a5	SP: ff
c7bc	c7b9	BNE	A: 0	X: ff	Y: a4	SP: ff
c7b9	2a4	STA	A: 0	X: ff	Y: a4	SP: ff
c7bb	0	DEY	A: 0	X: ff	Y: a4	SP: ff
c7bc	c7b9	BNE	A: 0	X: ff	Y: a3	SP: ff
c7b9	2a3	STA	A: 0	X: ff	Y: a3	SP: ff
c7bb	0	DEY	A: 0	X: ff	Y: a3	SP: ff
c7bc	c7b9	BNE	A: 0	X: ff	Y: a2	SP: ff
c7b9	2a2	STA	A: 0	X: ff	Y: a2	SP: ff
c7bb	0	DEY	A: 0	X: ff	Y: a2	SP: ff
c7bc	c7b9	BNE	A: 0	X: ff	Y: a1	SP: ff
c7b9	2a1	STA	A: 0	X: ff	Y: a1	SP: ff
c7bb	0	DEY	A: 0	X: ff	Y: a1	SP: ff
c7bc	c7b9	BNE	A: 0	X: ff	Y: a0	SP: ff
c7b9	2a0	STA	A: 0	X: ff	Y: a0	SP: ff
c7bb	0	DEY	A: 0	X: ff	Y: a0	SP: ff
c7bc	c7b9	BNE	A: 0	X: ff	Y: 9f	SP: ff
c7b9	29f	STA	A: 0	X: ff	Y: 9f	SP: ff
c7bb	0	DEY	A: 0	X: ff	Y: 9f	SP: ff
c7bc	c7b9	BNE	A: 0	X: ff	Y: 9e	SP: ff
c7b9	29e	STA	A: 0	X: ff	Y: 9e	SP: ff
c7bb	0	DEY	A: 0	X: ff	Y: 9e	SP: ff
c7bc	c7b9	BNE	A: 0	X: ff	Y: 9d	SP: ff
c7b9	29d	STA	A: 0	X: ff	Y: 9d	SP: ff
c7bb	0	DEY	A: 0	X: ff	Y: 9d	SP: ff
c7bc	c7b9	BNE	A: 0	X: ff	Y: 9c	SP: ff
c7b9	29c	STA	A: 0	X: ff	Y: 9c	SP: ff
c7bb	0	DEY	A: 0	X: ff	Y: 9c	SP: ff
c7bc	c7b9	BNE	A: 0	X: ff	Y: 9b	SP: ff
c7b9	29b	STA	A: 0	X: ff	Y: 9b	SP: ff
c7bb	0	DEY	A: 0	X: ff	Y: 9b	SP: ff
c7bc	c7b9	BNE	A: 0	X: ff	Y: 9a	SP: ff
c7b9	29a	STA	A: 0	X: ff	Y: 9a	SP: ff
c7bb	0	DEY	A: 0	X: ff	Y: 9a	SP: ff
c7bc	c7b9	BNE	A: 0	X: ff	Y: 99	SP: ff
c7b9	299	STA	A: 0	X: ff	Y: 99	SP: ff
c7bb	0	DEY	A: 0	X: ff	Y: 99	SP: ff
c7bc	c7b9	BNE	A: 0	X: ff	Y: 98	SP: ff
c7b9	298	STA	A: 0	X: ff	Y: 98	SP: ff
c7bb	0	DEY	A: 0	X: ff	Y: 98	SP: ff
c7bc	c7b9	BNE	A: 0	X: ff	Y: 97	SP: ff
c7b9	297	STA	A: 0	X: ff	Y: 97	SP: ff
c7bb	0	DEY	A: 0	X: ff	Y: 97	SP: ff
c7bc	c7b9	BNE	A: 0	X: ff	Y: 96	SP: ff
c7b9	296	STA	A: 0	X: ff	Y: 96	SP: ff
c7bb	0	DEY	A: 0	X: ff	Y: 96	SP: ff
c7bc	c7b9	BNE	A: 0	X: ff	Y: 95	SP: ff
c7b9	295	STA	A: 0	X: ff	Y: 95	SP: ff
c7bb	0	DEY	A: 0	X: ff	Y: 95	SP: ff
c7bc	c7b9	BNE	A: 0	X: ff	Y: 94	SP: ff
c7b9	294	STA	A: 0	X: ff	Y: 94	SP: ff
c7bb	0	DEY	A: 0	X: ff	Y: 94	SP: ff
c7bc	c7b9	BNE	A: 0	X: ff	Y: 93	SP: ff
c7b9	293	STA	A: 0	X: ff	Y: 93	SP: ff
c7bb	0	DEY	A: 0	X: ff	Y: 93	SP: ff
c7bc	c7b9	BNE	A: 0	X: ff	Y: 92	SP: ff
c7b9	292	STA	A: 0	X: ff	Y: 92	SP: ff
c7bb	0	DEY	A: 0	X: ff	Y: 92	SP: ff
c7bc	c7b9	BNE	A: 0	X: ff	Y: 91	SP: ff
c7b9	291	STA	A: 0	X: ff	Y: 91	SP: ff
c7bb	0	DEY	A: 0	X: ff	Y: 91	SP: ff
c7bc	c7b9	BNE	A: 0	X: ff	Y: 90	SP: ff
c7b9	290	STA	A: 0	X: ff	Y: 90	SP: ff
c7bb	0	DEY	A: 0	X: ff	Y: 90	SP: ff
c7bc	c7b9	BNE	A: 0	X: ff	Y: 8f	SP: ff
c7b9	28f	STA	A: 0	X: ff	Y: 8f	SP: ff
c7bb	0	DEY	A: 0	X: ff	Y: 8f	SP: ff
c7bc	c7b9	BNE	A: 0	X: ff	Y: 8e	SP: ff
c7b9	28e	STA	A: 0	X: ff	Y: 8e	SP: ff
c7bb	0	DEY	A: 0	X: ff	Y: 8e	SP: ff
c7bc	c7b9	BNE	A: 0	X: ff	Y: 8d	SP: ff
c7b9	28d	STA	A: 0	X: ff	Y: 8d	SP: ff
c7bb	0	DEY	A: 0	X: ff	Y: 8d	SP: ff
c7bc	c7b9	BNE	A: 0	X: ff	Y: 8c	SP: ff
c7b9	28c	STA	A: 0	X: ff	Y: 8c	SP: ff
c7bb	0	DEY	A: 0	X: ff	Y: 8c	SP: ff
c7bc	c7b9	BNE	A: 0	X: ff	Y: 8b	SP: ff
c7b9	28b	STA	A: 0	X: ff	Y: 8b	SP: ff
c7bb	0	DEY	A: 0	X: ff	Y: 8b	SP: ff
c7bc	c7b9	BNE	A: 0	X: ff	Y: 8a	SP: ff
c7b9	28a	STA	A: 0	X: ff	Y: 8a	SP: ff
c7bb	0	DEY	A: 0	X: ff	Y: 8a	SP: ff
c7bc	c7b9	BNE	A: 0	X: ff	Y: 89	SP: ff
c7b9	289	STA	A: 0	X: ff	Y: 89	SP: ff
c7bb	0	DEY	A: 0	X: ff	Y: 89	SP: ff
c7bc	c7b9	BNE	A: 0	X: ff	Y: 88	SP: ff
c7b9	288	STA	A: 0	X: ff	Y: 88	SP: ff
c7bb	0	DEY	A: 0	X: ff	Y: 88	SP: ff
c7bc	c7b9	BNE	A: 0	X: ff	Y: 87	SP: ff
c7b9	287	STA	A: 0	X: ff	Y: 87	SP: ff
c7bb	0	DEY	A: 0	X: ff	Y: 87	SP: ff
c7bc	c7b9	BNE	A: 0	X: ff	Y: 86	SP: ff
c7b9	286	STA	A: 0	X: ff	Y: 86	SP: ff
c7bb	0	DEY	A: 0	X: ff	Y: 86	SP: ff
c7bc	c7b9	BNE	A: 0	X: ff	Y: 85	SP: ff
c7b9	285	STA	A: 0	X: ff	Y: 85	SP: ff
c7bb	0	DEY	A: 0	X: ff	Y: 85	SP: ff
c7bc	c7b9	BNE	A: 0	X: ff	Y: 84	SP: ff
c7b9	284	STA	A: 0	X: ff	Y: 84	SP: ff
c7bb	0	DEY	A: 0	X: ff	Y: 84	SP: ff
c7bc	c7b9	BNE	A: 0	X: ff	Y: 83	SP: ff
c7b9	283	STA	A: 0	X: ff	Y: 83	SP: ff
c7bb	0	DEY	A: 0	X: ff	Y: 83	SP: ff
c7bc	c7b9	BNE	A: 0	X: ff	Y: 82	SP: ff
c7b9	282	STA	A: 0	X: ff	Y: 82	SP: ff
c7bb	0	DEY	A: 0	X: ff	Y: 82	SP: ff
c7bc	c7b9	BNE	A: 0	X: ff	Y: 81	SP: ff
c7b9	281	STA	A: 0	X: ff	Y: 81	SP: ff
c7bb	0	DEY	A: 0	X: ff	Y: 81	SP: ff
c7bc	c7b9	BNE	A: 0	X: ff	Y: 80	SP: ff
c7b9	280	STA	A: 0	X: ff	Y: 80	SP: ff
c7bb	0	DEY	A: 0	X: ff	Y: 80	SP: ff
c7bc	c7b9	BNE	A: 0	X: ff	Y: 7f	SP: ff
c7b9	27f	STA	A: 0	X: ff	Y: 7f	SP: ff
c7bb	0	DEY	A: 0	X: ff	Y: 7f	SP: ff
c7bc	c7b9	BNE	A: 0	X: ff	Y: 7e	SP: ff
c7b9	27e	STA	A: 0	X: ff	Y: 7e	SP: ff
c7bb	0	DEY	A: 0	X: ff	Y: 7e	SP: ff
c7bc	c7b9	BNE	A: 0	X: ff	Y: 7d	SP: ff
c7b9	27d	STA	A: 0	X: ff	Y: 7d	SP: ff
c7bb	0	DEY	A: 0	X: ff	Y: 7d	SP: ff
c7bc	c7b9	BNE	A: 0	X: ff	Y: 7c	SP: ff
c7b9	27c	STA	A: 0	X: ff	Y: 7c	SP: ff
c7bb	0	DEY	A: 0	X: ff	Y: 7c	SP: ff
c7bc	c7b9	BNE	A: 0	X: ff	Y: 7b	SP: ff
c7b9	27b	STA	A: 0	X: ff	Y: 7b	SP: ff
c7bb	0	DEY	A: 0	X: ff	Y: 7b	SP: ff
c7bc	c7b9	BNE	A: 0	X: ff	Y: 7a	SP: ff
c7b9	27a	STA	A: 0	X: ff	Y: 7a	SP: ff
c7bb	0	DEY	A: 0	X: ff	Y: 7a	SP: ff
c7bc	c7b9	BNE	A: 0	X: ff	Y: 79	SP: ff
c7b9	279	STA	A: 0	X: ff	Y: 79	SP: ff
c7bb	0	DEY	A: 0	X: ff	Y: 79	SP: ff
c7bc	c7b9	BNE	A: 0	X: ff	Y: 78	SP: ff
c7b9	278	STA	A: 0	X: ff	Y: 78	SP: ff
c7bb	0	DEY	A: 0	X: ff	Y: 78	SP: ff
c7bc	c7b9	BNE	A: 0	X: ff	Y: 77	SP: ff
c7b9	277	STA	A: 0	X: ff	Y: 77	SP: ff
c7bb	0	DEY	A: 0	X: ff	Y: 77	SP: ff
c7bc	c7b9	BNE	A: 0	X: ff	Y: 76	SP: ff
c7b9	276	STA	A: 0	X: ff	Y: 76	SP: ff
c7bb	0	DEY	A: 0	X: ff	Y: 76	SP: ff
c7bc	c7b9	BNE	A: 0	X: ff	Y: 75	SP: ff
c7b9	275	STA	A: 0	X: ff	Y: 75	SP: ff
c7bb	0	DEY	A: 0	X: ff	Y: 75	SP: ff
c7bc	c7b9	BNE	A: 0	X: ff	Y: 74	SP: ff
c7b9	274	STA	A: 0	X: ff	Y: 74	SP: ff
c7bb	0	DEY	A: 0	X: ff	Y: 74	SP: ff
c7bc	c7b9	BNE	A: 0	X: ff	Y: 73	SP: ff
c7b9	273	STA	A: 0	X: ff	Y: 73	SP: ff
c7bb	0	DEY	A: 0	X: ff	Y: 73	SP: ff
c7bc	c7b9	BNE	A: 0	X: ff	Y: 72	SP: ff
c7b9	272	STA	A: 0	X: ff	Y: 72	SP: ff
c7bb	0	DEY	A: 0	X: ff	Y: 72	SP: ff
c7bc	c7b9	BNE	A: 0	X: ff	Y: 71	SP: ff
c7b9	271	STA	A: 0	X: ff	Y: 71	SP: ff
c7bb	0	DEY	A: 0	X: ff	Y: 71	SP: ff
c7bc	c7b9	BNE	A: 0	X: ff	Y: 70	SP: ff
c7b9	270	STA	A: 0	X: ff	Y: 70	SP: ff
c7bb	0	DEY	A: 0	X: ff	Y: 70	SP: ff
c7bc	c7b9	BNE	A: 0	X: ff	Y: 6f	SP: ff
c7b9	26f	STA	A: 0	X: ff	Y: 6f	SP: ff
c7bb	0	DEY	A: 0	X: ff	Y: 6f	SP: ff
c7bc	c7b9	BNE	A: 0	X: ff	Y: 6e	SP: ff
c7b9	26e	STA	A: 0	X: ff	Y: 6e	SP: ff
c7bb	0	DEY	A: 0	X: ff	Y: 6e	SP: ff
c7bc	c7b9	BNE	A: 0	X: ff	Y: 6d	SP: ff
c7b9	26d	STA	A: 0	X: ff	Y: 6d	SP: ff
c7bb	0	DEY	A: 0	X: ff	Y: 6d	SP: ff
c7bc	c7b9	BNE	A: 0	X: ff	Y: 6c	SP: ff
c7b9	26c	STA	A: 0	X: ff	Y: 6c	SP: ff
c7bb	0	DEY	A: 0	X: ff	Y: 6c	SP: ff
c7bc	c7b9	BNE	A: 0	X: ff	Y: 6b	SP: ff
c7b9	26b	STA	A: 0	X: ff	Y: 6b	SP: ff
c7bb	0	DEY	A: 0	X: ff	Y: 6b	SP: ff
c7bc	c7b9	BNE	A: 0	X: ff	Y: 6a	SP: ff
c7b9	26a	STA	A: 0	X: ff	Y: 6a	SP: ff
c7bb	0	DEY	A: 0	X: ff	Y: 6a	SP: ff
c7bc	c7b9	BNE	A: 0	X: ff	Y: 69	SP: ff
c7b9	269	STA	A: 0	X: ff	Y: 69	SP: ff
c7bb	0	DEY	A: 0	X: ff	Y: 69	SP: ff
c7bc	c7b9	BNE	A: 0	X: ff	Y: 68	SP: ff
c7b9	268	STA	A: 0	X: ff	Y: 68	SP: ff
c7bb	0	DEY	A: 0	X: ff	Y: 68	SP: ff
c7bc	c7b9	BNE	A: 0	X: ff	Y: 67	SP: ff
c7b9	267	STA	A: 0	X: ff	Y: 67	SP: ff
c7bb	0	DEY	A: 0	X: ff	Y: 67	SP: ff
c7bc	c7b9	BNE	A: 0	X: ff	Y: 66	SP: ff
c7b9	266	STA	A: 0	X: ff	Y: 66	SP: ff
c7bb	0	DEY	A: 0	X: ff	Y: 66	SP: ff
c7bc	c7b9	BNE	A: 0	X: ff	Y: 65	SP: ff
c7b9	265	STA	A: 0	X: ff	Y: 65	SP: ff
c7bb	0	DEY	A: 0	X: ff	Y: 65	SP: ff
c7bc	c7b9	BNE	A: 0	X: ff	Y: 64	SP: ff
c7b9	264	STA	A: 0	X: ff	Y: 64	SP: ff
c7bb	0	DEY	A: 0	X: ff	Y: 64	SP: ff
c7bc	c7b9	BNE	A: 0	X: ff	Y: 63	SP: ff
c7b9	263	STA	A: 0	X: ff	Y: 63	SP: ff
c7bb	0	DEY	A: 0	X: ff	Y: 63	SP: ff
c7bc	c7b9	BNE	A: 0	X: ff	Y: 62	SP: ff
c7b9	262	STA	A: 0	X: ff	Y: 62	SP: ff
c7bb	0	DEY	A: 0	X: ff	Y: 62	SP: ff
c7bc	c7b9	BNE	A: 0	X: ff	Y: 61	SP: ff
c7b9	261	STA	A: 0	X: ff	Y: 61	SP: ff
c7bb	0	DEY	A: 0	X: ff	Y: 61	SP: ff
c7bc	c7b9	BNE	A: 0	X: ff	Y: 60	SP: ff
c7b9	260	STA	A: 0	X: ff	Y: 60	SP: ff
c7bb	0	DEY	A: 0	X: ff	Y: 60	SP: ff
c7bc	c7b9	BNE	A: 0	X: ff	Y: 5f	SP: ff
c7b9	25f	STA	A: 0	X: ff	Y: 5f	SP: ff
c7bb	0	DEY	A: 0	X: ff	Y: 5f	SP: ff
c7bc	c7b9	BNE	A: 0	X: ff	Y: 5e	SP: ff
c7b9	25e	STA	A: 0	X: ff	Y: 5e	SP: ff
c7bb	0	DEY	A: 0	X: ff	Y: 5e	SP: ff
c7bc	c7b9	BNE	A: 0	X: ff	Y: 5d	SP: ff
c7b9	25d	STA	A: 0	X: ff	Y: 5d	SP: ff
c7bb	0	DEY	A: 0	X: ff	Y: 5d	SP: ff
c7bc	c7b9	BNE	A: 0	X: ff	Y: 5c	SP: ff
c7b9	25c	STA	A: 0	X: ff	Y: 5c	SP: ff
c7bb	0	DEY	A: 0	X: ff	Y: 5c	SP: ff
c7bc	c7b9	BNE	A: 0	X: ff	Y: 5b	SP: ff
c7b9	25b	STA	A: 0	X: ff	Y: 5b	SP: ff
c7bb	0	DEY	A: 0	X: ff	Y: 5b	SP: ff
c7bc	c7b9	BNE	A: 0	X: ff	Y: 5a	SP: ff
c7b9	25a	STA	A: 0	X: ff	Y: 5a	SP: ff
c7bb	0	DEY	A: 0	X: ff	Y: 5a	SP: ff
c7bc	c7b9	BNE	A: 0	X: ff	Y: 59	SP: ff
c7b9	259	STA	A: 0	X: ff	Y: 59	SP: ff
c7bb	0	DEY	A: 0	X: ff	Y: 59	SP: ff
c7bc	c7b9	BNE	A: 0	X: ff	Y: 58	SP: ff
c7b9	258	STA	A: 0	X: ff	Y: 58	SP: ff
c7bb	0	DEY	A: 0	X: ff	Y: 58	SP: ff
c7bc	c7b9	BNE	A: 0	X: ff	Y: 57	SP: ff
c7b9	257	STA	A: 0	X: ff	Y: 57	SP: ff
c7bb	0	DEY	A: 0	X: ff	Y: 57	SP: ff
c7bc	c7b9	BNE	A: 0	X: ff	Y: 56	SP: ff
c7b9	256	STA	A: 0	X: ff	Y: 56	SP: ff
c7bb	0	DEY	A: 0	X: ff	Y: 56	SP: ff
c7bc	c7b9	BNE	A: 0	X: ff	Y: 55	SP: ff
c7b9	255	STA	A: 0	X: ff	Y: 55	SP: ff
c7bb	0	DEY	A: 0	X: ff	Y: 55	SP: ff
c7bc	c7b9	BNE	A: 0	X: ff	Y: 54	SP: ff
c7b9	254	STA	A: 0	X: ff	Y: 54	SP: ff
c7bb	0	DEY	A: 0	X: ff	Y: 54	SP: ff
c7bc	c7b9	BNE	A: 0	X: ff	Y: 53	SP: ff
c7b9	253	STA	A: 0	X: ff	Y: 53	SP: ff
c7bb	0	DEY	A: 0	X: ff	Y: 53	SP: ff
c7bc	c7b9	BNE	A: 0	X: ff	Y: 52	SP: ff
c7b9	252	STA	A: 0	X: ff	Y: 52	SP: ff
c7bb	0	DEY	A: 0	X: ff	Y: 52	SP: ff
c7bc	c7b9	BNE	A: 0	X: ff	Y: 51	SP: ff
c7b9	251	STA	A: 0	X: ff	Y: 51	SP: ff
c7bb	0	DEY	A: 0	X: ff	Y: 51	SP: ff
c7bc	c7b9	BNE	A: 0	X: ff	Y: 50	SP: ff
c7b9	250	STA	A: 0	X: ff	Y: 50	SP: ff
c7bb	0	DEY	A: 0	X: ff	Y: 50	SP: ff
c7bc	c7b9	BNE	A: 0	X: ff	Y: 4f	SP: ff
c7b9	24f	STA	A: 0	X: ff	Y: 4f	SP: ff
c7bb	0	DEY	A: 0	X: ff	Y: 4f	SP: ff
c7bc	c7b9	BNE	A: 0	X: ff	Y: 4e	SP: ff
c7b9	24e	STA	A: 0	X: ff	Y: 4e	SP: ff
c7bb	0	DEY	A: 0	X: ff	Y: 4e	SP: ff
c7bc	c7b9	BNE	A: 0	X: ff	Y: 4d	SP: ff
c7b9	24d	STA	A: 0	X: ff	Y: 4d	SP: ff
c7bb	0	DEY	A: 0	X: ff	Y: 4d	SP: ff
c7bc	c7b9	BNE	A: 0	X: ff	Y: 4c	SP: ff
c7b9	24c	STA	A: 0	X: ff	Y: 4c	SP: ff
c7bb	0	DEY	A: 0	X: ff	Y: 4c	SP: ff
c7bc	c7b9	BNE	A: 0	X: ff	Y: 4b	SP: ff
c7b9	24b	STA	A: 0	X: ff	Y: 4b	SP: ff
c7bb	0	DEY	A: 0	X: ff	Y: 4b	SP: ff
c7bc	c7b9	BNE	A: 0	X: ff	Y: 4a	SP: ff
c7b9	24a	STA	A: 0	X: ff	Y: 4a	SP: ff
c7bb	0	DEY	A: 0	X: ff	Y: 4a	SP: ff
c7bc	c7b9	BNE	A: 0	X: ff	Y: 49	SP: ff
c7b9	249	STA	A: 0	X: ff	Y: 49	SP: ff
c7bb	0	DEY	A: 0	X: ff	Y: 49	SP: ff
c7bc	c7b9	BNE	A: 0	X: ff	Y: 48	SP: ff
c7b9	248	STA	A: 0	X: ff	Y: 48	SP: ff
c7bb	0	DEY	A: 0	X: ff	Y: 48	SP: ff
c7bc	c7b9	BNE	A: 0	X: ff	Y: 47	SP: ff
c7b9	247	STA	A: 0	X: ff	Y: 47	SP: ff
c7bb	0	DEY	A: 0	X: ff	Y: 47	SP: ff
c7bc	c7b9	BNE	A: 0	X: ff	Y: 46	SP: ff
c7b9	246	STA	A: 0	X: ff	Y: 46	SP: ff
c7bb	0	DEY	A: 0	X: ff	Y: 46	SP: ff
c7bc	c7b9	BNE	A: 0	X: ff	Y: 45	SP: ff
c7b9	245	STA	A: 0	X: ff	Y: 45	SP: ff
c7bb	0	DEY	A: 0	X: ff	Y: 45	SP: ff
c7bc	c7b9	BNE	A: 0	X: ff	Y: 44	SP: ff
c7b9	244	STA	A: 0	X: ff	Y: 44	SP: ff
c7bb	0	DEY	A: 0	X: ff	Y: 44	SP: ff
c7bc	c7b9	BNE	A: 0	X: ff	Y: 43	SP: ff
c7b9	243	STA	A: 0	X: ff	Y: 43	SP: ff
c7bb	0	DEY	A: 0	X: ff	Y: 43	SP: ff
c7bc	c7b9	BNE	A: 0	X: ff	Y: 42	SP: ff
c7b9	242	STA	A: 0	X: ff	Y: 42	SP: ff
c7bb	0	DEY	A: 0	X: ff	Y: 42	SP: ff
c7bc	c7b9	BNE	A: 0	X: ff	Y: 41	SP: ff
c7b9	241	STA	A: 0	X: ff	Y: 41	SP: ff
c7bb	0	DEY	A: 0	X: ff	Y: 41	SP: ff
c7bc	c7b9	BNE	A: 0	X: ff	Y: 40	SP: ff
c7b9	240	STA	A: 0	X: ff	Y: 40	SP: ff
c7bb	0	DEY	A: 0	X: ff	Y: 40	SP: ff
c7bc	c7b9	BNE	A: 0	X: ff	Y: 3f	SP: ff
c7b9	23f	STA	A: 0	X: ff	Y: 3f	SP: ff
c7bb	0	DEY	A: 0	X: ff	Y: 3f	SP: ff
c7bc	c7b9	BNE	A: 0	X: ff	Y: 3e	SP: ff
c7b9	23e	STA	A: 0	X: ff	Y: 3e	SP: ff
c7bb	0	DEY	A: 0	X: ff	Y: 3e	SP: ff
c7bc	c7b9	BNE	A: 0	X: ff	Y: 3d	SP: ff
c7b9	23d	STA	A: 0	X: ff	Y: 3d	SP: ff
c7bb	0	DEY	A: 0	X: ff	Y: 3d	SP: ff
c7bc	c7b9	BNE	A: 0	X: ff	Y: 3c	SP: ff
c7b9	23c	STA	A: 0	X: ff	Y: 3c	SP: ff
c7bb	0	DEY	A: 0	X: ff	Y: 3c	SP: ff
c7bc	c7b9	BNE	A: 0	X: ff	Y: 3b	SP: ff
c7b9	23b	STA	A: 0	X: ff	Y: 3b	SP: ff
c7bb	0	DEY	A: 0	X: ff	Y: 3b	SP: ff
c7bc	c7b9	BNE	A: 0	X: ff	Y: 3a	SP: ff
c7b9	23a	STA	A: 0	X: ff	Y: 3a	SP: ff
c7bb	0	DEY	A: 0	X: ff	Y: 3a	SP: ff
c7bc	c7b9	BNE	A: 0	X: ff	Y: 39	SP: ff
c7b9	239	STA	A: 0	X: ff	Y: 39	SP: ff
c7bb	0	DEY	A: 0	X: ff	Y: 39	SP: ff
c7bc	c7b9	BNE	A: 0	X: ff	Y: 38	SP: ff
c7b9	238	STA	A: 0	X: ff	Y: 38	SP: ff
c7bb	0	DEY	A: 0	X: ff	Y: 38	SP: ff
c7bc	c7b9	BNE	A: 0	X: ff	Y: 37	SP: ff
c7b9	237	STA	A: 0	X: ff	Y: 37	SP: ff
c7bb	0	DEY	A: 0	X: ff	Y: 37	SP: ff
c7bc	c7b9	BNE	A: 0	X: ff	Y: 36	SP: ff
c7b9	236	STA	A: 0	X: ff	Y: 36	SP: ff
c7bb	0	DEY	A: 0	X: ff	Y: 36	SP: ff
c7bc	c7b9	BNE	A: 0	X: ff	Y: 35	SP: ff
c7b9	235	STA	A: 0	X: ff	Y: 35	SP: ff
c7bb	0	DEY	A: 0	X: ff	Y: 35	SP: ff
c7bc	c7b9	BNE	A: 0	X: ff	Y: 34	SP: ff
c7b9	234	STA	A: 0	X: ff	Y: 34	SP: ff
c7bb	0	DEY	A: 0	X: ff	Y: 34	SP: ff
c7bc	c7b9	BNE	A: 0	X: ff	Y: 33	SP: ff
c7b9	233	STA	A: 0	X: ff	Y: 33	SP: ff
c7bb	0	DEY	A: 0	X: ff	Y: 33	SP: ff
c7bc	c7b9	BNE	A: 0	X: ff	Y: 32	SP: ff
c7b9	232	STA	A: 0	X: ff	Y: 32	SP: ff
c7bb	0	DEY	A: 0	X: ff	Y: 32	SP: ff
c7bc	c7b9	BNE	A: 0	X: ff	Y: 31	SP: ff
c7b9	231	STA	A: 0	X: ff	Y: 31	SP: ff
c7bb	0	DEY	A: 0	X: ff	Y: 31	SP: ff
c7bc	c7b9	BNE	A: 0	X: ff	Y: 30	SP: ff
c7b9	230	STA	A: 0	X: ff	Y: 30	SP: ff
c7bb	0	DEY	A: 0	X: ff	Y: 30	SP: ff
c7bc	c7b9	BNE	A: 0	X: ff	Y: 2f	SP: ff
c7b9	22f	STA	A: 0	X: ff	Y: 2f	SP: ff
c7bb	0	DEY	A: 0	X: ff	Y: 2f	SP: ff
c7bc	c7b9	BNE	A: 0	X: ff	Y: 2e	SP: ff
c7b9	22e	STA	A: 0	X: ff	Y: 2e	SP: ff
c7bb	0	DEY	A: 0	X: ff	Y: 2e	SP: ff
c7bc	c7b9	BNE	A: 0	X: ff	Y: 2d	SP: ff
c7b9	22d	STA	A: 0	X: ff	Y: 2d	SP: ff
c7bb	0	DEY	A: 0	X: ff	Y: 2d	SP: ff
c7bc	c7b9	BNE	A: 0	X: ff	Y: 2c	SP: ff
c7b9	22c	STA	A: 0	X: ff	Y: 2c	SP: ff
c7bb	0	DEY	A: 0	X: ff	Y: 2c	SP: ff
c7bc	c7b9	BNE	A: 0	X: ff	Y: 2b	SP: ff
c7b9	22b	STA	A: 0	X: ff	Y: 2b	SP: ff
c7bb	0	DEY	A: 0	X: ff	Y: 2b	SP: ff
c7bc	c7b9	BNE	A: 0	X: ff	Y: 2a	SP: ff
c7b9	22a	STA	A: 0	X: ff	Y: 2a	SP: ff
c7bb	0	DEY	A: 0	X: ff	Y: 2a	SP: ff
c7bc	c7b9	BNE	A: 0	X: ff	Y: 29	SP: ff
c7b9	229	STA	A: 0	X: ff	Y: 29	SP: ff
c7bb	0	DEY	A: 0	X: ff	Y: 29	SP: ff
c7bc	c7b9	BNE	A: 0	X: ff	Y: 28	SP: ff
c7b9	228	STA	A: 0	X: ff	Y: 28	SP: ff
c7bb	0	DEY	A: 0	X: ff	Y: 28	SP: ff
c7bc	c7b9	BNE	A: 0	X: ff	Y: 27	SP: ff
c7b9	227	STA	A: 0	X: ff	Y: 27	SP: ff
c7bb	0	DEY	A: 0	X: ff	Y: 27	SP: ff
c7bc	c7b9	BNE	A: 0	X: ff	Y: 26	SP: ff
c7b9	226	STA	A: 0	X: ff	Y: 26	SP: ff
c7bb	0	DEY	A: 0	X: ff	Y: 26	SP: ff
c7bc	c7b9	BNE	A: 0	X: ff	Y: 25	SP: ff
c7b9	225	STA	A: 0	X: ff	Y: 25	SP: ff
c7bb	0	DEY	A: 0	X: ff	Y: 25	SP: ff
c7bc	c7b9	BNE	A: 0	X: ff	Y: 24	SP: ff
c7b9	224	STA	A: 0	X: ff	Y: 24	SP: ff
c7bb	0	DEY	A: 0	X: ff	Y: 24	SP: ff
c7bc	c7b9	BNE	A: 0	X: ff	Y: 23	SP: ff
c7b9	223	STA	A: 0	X: ff	Y: 23	SP: ff
c7bb	0	DEY	A: 0	X: ff	Y: 23	SP: ff
c7bc	c7b9	BNE	A: 0	X: ff	Y: 22	SP: ff
c7b9	222	STA	A: 0	X: ff	Y: 22	SP: ff
c7bb	0	DEY	A: 0	X: ff	Y: 22	SP: ff
c7bc	c7b9	BNE	A: 0	X: ff	Y: 21	SP: ff
c7b9	221	STA	A: 0	X: ff	Y: 21	SP: ff
c7bb	0	DEY	A: 0	X: ff	Y: 21	SP: ff
c7bc	c7b9	BNE	A: 0	X: ff	Y: 20	SP: ff
c7b9	220	STA	A: 0	X: ff	Y: 20	SP: ff
c7bb	0	DEY	A: 0	X: ff	Y: 20	SP: ff
c7bc	c7b9	BNE	A: 0	X: ff	Y: 1f	SP: ff
c7b9	21f	STA	A: 0	X: ff	Y: 1f	SP: ff
c7bb	0	DEY	A: 0	X: ff	Y: 1f	SP: ff
c7bc	c7b9	BNE	A: 0	X: ff	Y: 1e	SP: ff
c7b9	21e	STA	A: 0	X: ff	Y: 1e	SP: ff
c7bb	0	DEY	A: 0	X: ff	Y: 1e	SP: ff
c7bc	c7b9	BNE	A: 0	X: ff	Y: 1d	SP: ff
c7b9	21d	STA	A: 0	X: ff	Y: 1d	SP: ff
c7bb	0	DEY	A: 0	X: ff	Y: 1d	SP: ff
c7bc	c7b9	BNE	A: 0	X: ff	Y: 1c	SP: ff
c7b9	21c	STA	A: 0	X: ff	Y: 1c	SP: ff
c7bb	0	DEY	A: 0	X: ff	Y: 1c	SP: ff
c7bc	c7b9	BNE	A: 0	X: ff	Y: 1b	SP: ff
c7b9	21b	STA	A: 0	X: ff	Y: 1b	SP: ff
c7bb	0	DEY	A: 0	X: ff	Y: 1b	SP: ff
c7bc	c7b9	BNE	A: 0	X: ff	Y: 1a	SP: ff
c7b9	21a	STA	A: 0	X: ff	Y: 1a	SP: ff
c7bb	0	DEY	A: 0	X: ff	Y: 1a	SP: ff
c7bc	c7b9	BNE	A: 0	X: ff	Y: 19	SP: ff
c7b9	219	STA	A: 0	X: ff	Y: 19	SP: ff
c7bb	0	DEY	A: 0	X: ff	Y: 19	SP: ff
c7bc	c7b9	BNE	A: 0	X: ff	Y: 18	SP: ff
c7b9	218	STA	A: 0	X: ff	Y: 18	SP: ff
c7bb	0	DEY	A: 0	X: ff	Y: 18	SP: ff
c7bc	c7b9	BNE	A: 0	X: ff	Y: 17	SP: ff
c7b9	217	STA	A: 0	X: ff	Y: 17	SP: ff
c7bb	0	DEY	A: 0	X: ff	Y: 17	SP: ff
c7bc	c7b9	BNE	A: 0	X: ff	Y: 16	SP: ff
c7b9	216	STA	A: 0	X: ff	Y: 16	SP: ff
c7bb	0	DEY	A: 0	X: ff	Y: 16	SP: ff
c7bc	c7b9	BNE	A: 0	X: ff	Y: 15	SP: ff
c7b9	215	STA	A: 0	X: ff	Y: 15	SP: ff
c7bb	0	DEY	A: 0	X: ff	Y: 15	SP: ff
c7bc	c7b9	BNE	A: 0	X: ff	Y: 14	SP: ff
c7b9	214	STA	A: 0	X: ff	Y: 14	SP: ff
c7bb	0	DEY	A: 0	X: ff	Y: 14	SP: ff
c7bc	c7b9	BNE	A: 0	X: ff	Y: 13	SP: ff
c7b9	213	STA	A: 0	X: ff	Y: 13	SP: ff
c7bb	0	DEY	A: 0	X: ff	Y: 13	SP: ff
c7bc	c7b9	BNE	A: 0	X: ff	Y: 12	SP: ff
c7b9	212	STA	A: 0	X: ff	Y: 12	SP: ff
c7bb	0	DEY	A: 0	X: ff	Y: 12	SP: ff
c7bc	c7b9	BNE	A: 0	X: ff	Y: 11	SP: ff
c7b9	211	STA	A: 0	X: ff	Y: 11	SP: ff
c7bb	0	DEY	A: 0	X: ff	Y: 11	SP: ff
c7bc	c7b9	BNE	A: 0	X: ff	Y: 10	SP: ff
c7b9	210	STA	A: 0	X: ff	Y: 10	SP: ff
c7bb	0	DEY	A: 0	X: ff	Y: 10	SP: ff
c7bc	c7b9	BNE	A: 0	X: ff	Y: f	SP: ff
c7b9	20f	STA	A: 0	X: ff	Y: f	SP: ff
c7bb	0	DEY	A: 0	X: ff	Y: f	SP: ff
c7bc	c7b9	BNE	A: 0	X: ff	Y: e	SP: ff
c7b9	20e	STA	A: 0	X: ff	Y: e	SP: ff
c7bb	0	DEY	A: 0	X: ff	Y: e	SP: ff
c7bc	c7b9	BNE	A: 0	X: ff	Y: d	SP: ff
c7b9	20d	STA	A: 0	X: ff	Y: d	SP: ff
c7bb	0	DEY	A: 0	X: ff	Y: d	SP: ff
c7bc	c7b9	BNE	A: 0	X: ff	Y: c	SP: ff
c7b9	20c	STA	A: 0	X: ff	Y: c	SP: ff
c7bb	0	DEY	A: 0	X: ff	Y: c	SP: ff
c7bc	c7b9	BNE	A: 0	X: ff	Y: b	SP: ff
c7b9	20b	STA	A: 0	X: ff	Y: b	SP: ff
c7bb	0	DEY	A: 0	X: ff	Y: b	SP: ff
c7bc	c7b9	BNE	A: 0	X: ff	Y: a	SP: ff
c7b9	20a	STA	A: 0	X: ff	Y: a	SP: ff
c7bb	0	DEY	A: 0	X: ff	Y: a	SP: ff
c7bc	c7b9	BNE	A: 0	X: ff	Y: 9	SP: ff
c7b9	209	STA	A: 0	X: ff	Y: 9	SP: ff
c7bb	0	DEY	A: 0	X: ff	Y: 9	SP: ff
c7bc	c7b9	BNE	A: 0	X: ff	Y: 8	SP: ff
c7b9	208	STA	A: 0	X: ff	Y: 8	SP: ff
c7bb	0	DEY	A: 0	X: ff	Y: 8	SP: ff
c7bc	c7b9	BNE	A: 0	X: ff	Y: 7	SP: ff
c7b9	207	STA	A: 0	X: ff	Y: 7	SP: ff
c7bb	0	DEY	A: 0	X: ff	Y: 7	SP: ff
c7bc	c7b9	BNE	A: 0	X: ff	Y: 6	SP: ff
c7b9	206	STA	A: 0	X: ff	Y: 6	SP: ff
c7bb	0	DEY	A: 0	X: ff	Y: 6	SP: ff
c7bc	c7b9	BNE	A: 0	X: ff	Y: 5	SP: ff
c7b9	205	STA	A: 0	X: ff	Y: 5	SP: ff
c7bb	0	DEY	A: 0	X: ff	Y: 5	SP: ff
c7bc	c7b9	BNE	A: 0	X: ff	Y: 4	SP: ff
c7b9	204	STA	A: 0	X: ff	Y: 4	SP: ff
c7bb	0	DEY	A: 0	X: ff	Y: 4	SP: ff
c7bc	c7b9	BNE	A: 0	X: ff	Y: 3	SP: ff
c7b9	203	STA	A: 0	X: ff	Y: 3	SP: ff
c7bb	0	DEY	A: 0	X: ff	Y: 3	SP: ff
c7bc	c7b9	BNE	A: 0	X: ff	Y: 2	SP: ff
c7b9	202	STA	A: 0	X: ff	Y: 2	SP: ff
c7bb	0	DEY	A: 0	X: ff	Y: 2	SP: ff
c7bc	c7b9	BNE	A: 0	X: ff	Y: 1	SP: ff
c7b9	201	STA	A: 0	X: ff	Y: 1	SP: ff
c7bb	0	DEY	A: 0	X: ff	Y: 1	SP: ff
c7bc	c7b9	BNE	A: 0	X: ff	Y: 0	SP: ff
c7be	1	DEC	A: 0	X: ff	Y: 0	SP: ff
c7c0	c7b9	BPL	A: 0	X: ff	Y: 0	SP: ff
c7b9	100	STA	A: 0	X: ff	Y: 0	SP: ff
c7bb	0	DEY	A: 0	X: ff	Y: 0	SP: ff
c7bc	c7b9	BNE	A: 0	X: ff	Y: ff	SP: ff
c7b9	1ff	STA	A: 0	X: ff	Y: ff	SP: ff
c7bb	0	DEY	A: 0	X: ff	Y: ff	SP: ff
c7bc	c7b9	BNE	A: 0	X: ff	Y: fe	SP: ff
c7b9	1fe	STA	A: 0	X: ff	Y: fe	SP: ff
c7bb	0	DEY	A: 0	X: ff	Y: fe	SP: ff
c7bc	c7b9	BNE	A: 0	X: ff	Y: fd	SP: ff
c7b9	1fd	STA	A: 0	X: ff	Y: fd	SP: ff
c7bb	0	DEY	A: 0	X: ff	Y: fd	SP: ff
c7bc	c7b9	BNE	A: 0	X: ff	Y: fc	SP: ff
c7b9	1fc	STA	A: 0	X: ff	Y: fc	SP: ff
c7bb	0	DEY	A: 0	X: ff	Y: fc	SP: ff
c7bc	c7b9	BNE	A: 0	X: ff	Y: fb	SP: ff
c7b9	1fb	STA	A: 0	X: ff	Y: fb	SP: ff
c7bb	0	DEY	A: 0	X: ff	Y: fb	SP: ff
c7bc	c7b9	BNE	A: 0	X: ff	Y: fa	SP: ff
c7b9	1fa	STA	A: 0	X: ff	Y: fa	SP: ff
c7bb	0	DEY	A: 0	X: ff	Y: fa	SP: ff
c7bc	c7b9	BNE	A: 0	X: ff	Y: f9	SP: ff
c7b9	1f9	STA	A: 0	X: ff	Y: f9	SP: ff
c7bb	0	DEY	A: 0	X: ff	Y: f9	SP: ff
c7bc	c7b9	BNE	A: 0	X: ff	Y: f8	SP: ff
c7b9	1f8	STA	A: 0	X: ff	Y: f8	SP: ff
c7bb	0	DEY	A: 0	X: ff	Y: f8	SP: ff
c7bc	c7b9	BNE	A: 0	X: ff	Y: f7	SP: ff
c7b9	1f7	STA	A: 0	X: ff	Y: f7	SP: ff
c7bb	0	DEY	A: 0	X: ff	Y: f7	SP: ff
c7bc	c7b9	BNE	A: 0	X: ff	Y: f6	SP: ff
c7b9	1f6	STA	A: 0	X: ff	Y: f6	SP: ff
c7bb	0	DEY	A: 0	X: ff	Y: f6	SP: ff
c7bc	c7b9	BNE	A: 0	X: ff	Y: f5	SP: ff
c7b9	1f5	STA	A: 0	X: ff	Y: f5	SP: ff
c7bb	0	DEY	A: 0	X: ff	Y: f5	SP: ff
c7bc	c7b9	BNE	A: 0	X: ff	Y: f4	SP: ff
c7b9	1f4	STA	A: 0	X: ff	Y: f4	SP: ff
c7bb	0	DEY	A: 0	X: ff	Y: f4	SP: ff
c7bc	c7b9	BNE	A: 0	X: ff	Y: f3	SP: ff
c7b9	1f3	STA	A: 0	X: ff	Y: f3	SP: ff
c7bb	0	DEY	A: 0	X: ff	Y: f3	SP: ff
c7bc	c7b9	BNE	A: 0	X: ff	Y: f2	SP: ff
c7b9	1f2	STA	A: 0	X: ff	Y: f2	SP: ff
c7bb	0	DEY	A: 0	X: ff	Y: f2	SP: ff
c7bc	c7b9	BNE	A: 0	X: ff	Y: f1	SP: ff
c7b9	1f1	STA	A: 0	X: ff	Y: f1	SP: ff
c7bb	0	DEY	A: 0	X: ff	Y: f1	SP: ff
c7bc	c7b9	BNE	A: 0	X: ff	Y: f0	SP: ff
c7b9	1f0	STA	A: 0	X: ff	Y: f0	SP: ff
c7bb	0	DEY	A: 0	X: ff	Y: f0	SP: ff
c7bc	c7b9	BNE	A: 0	X: ff	Y: ef	SP: ff
c7b9	1ef	STA	A: 0	X: ff	Y: ef	SP: ff
c7bb	0	DEY	A: 0	X: ff	Y: ef	SP: ff
c7bc	c7b9	BNE	A: 0	X: ff	Y: ee	SP: ff
c7b9	1ee	STA	A: 0	X: ff	Y: ee	SP: ff
c7bb	0	DEY	A: 0	X: ff	Y: ee	SP: ff
c7bc	c7b9	BNE	A: 0	X: ff	Y: ed	SP: ff
c7b9	1ed	STA	A: 0	X: ff	Y: ed	SP: ff
c7bb	0	DEY	A: 0	X: ff	Y: ed	SP: ff
c7bc	c7b9	BNE	A: 0	X: ff	Y: ec	SP: ff
c7b9	1ec	STA	A: 0	X: ff	Y: ec	SP: ff
c7bb	0	DEY	A: 0	X: ff	Y: ec	SP: ff
c7bc	c7b9	BNE	A: 0	X: ff	Y: eb	SP: ff
c7b9	1eb	STA	A: 0	X: ff	Y: eb	SP: ff
c7bb	0	DEY	A: 0	X: ff	Y: eb	SP: ff
c7bc	c7b9	BNE	A: 0	X: ff	Y: ea	SP: ff
c7b9	1ea	STA	A: 0	X: ff	Y: ea	SP: ff
c7bb	0	DEY	A: 0	X: ff	Y: ea	SP: ff
c7bc	c7b9	BNE	A: 0	X: ff	Y: e9	SP: ff
c7b9	1e9	STA	A: 0	X: ff	Y: e9	SP: ff
c7bb	0	DEY	A: 0	X: ff	Y: e9	SP: ff
c7bc	c7b9	BNE	A: 0	X: ff	Y: e8	SP: ff
c7b9	1e8	STA	A: 0	X: ff	Y: e8	SP: ff
c7bb	0	DEY	A: 0	X: ff	Y: e8	SP: ff
c7bc	c7b9	BNE	A: 0	X: ff	Y: e7	SP: ff
c7b9	1e7	STA	A: 0	X: ff	Y: e7	SP: ff
c7bb	0	DEY	A: 0	X: ff	Y: e7	SP: ff
c7bc	c7b9	BNE	A: 0	X: ff	Y: e6	SP: ff
c7b9	1e6	STA	A: 0	X: ff	Y: e6	SP: ff
c7bb	0	DEY	A: 0	X: ff	Y: e6	SP: ff
c7bc	c7b9	BNE	A: 0	X: ff	Y: e5	SP: ff
c7b9	1e5	STA	A: 0	X: ff	Y: e5	SP: ff
c7bb	0	DEY	A: 0	X: ff	Y: e5	SP: ff
c7bc	c7b9	BNE	A: 0	X: ff	Y: e4	SP: ff
c7b9	1e4	STA	A: 0	X: ff	Y: e4	SP: ff
c7bb	0	DEY	A: 0	X: ff	Y: e4	SP: ff
c7bc	c7b9	BNE	A: 0	X: ff	Y: e3	SP: ff
c7b9	1e3	STA	A: 0	X: ff	Y: e3	SP: ff
c7bb	0	DEY	A: 0	X: ff	Y: e3	SP: ff
c7bc	c7b9	BNE	A: 0	X: ff	Y: e2	SP: ff
c7b9	1e2	STA	A: 0	X: ff	Y: e2	SP: ff
c7bb	0	DEY	A: 0	X: ff	Y: e2	SP: ff
c7bc	c7b9	BNE	A: 0	X: ff	Y: e1	SP: ff
c7b9	1e1	STA	A: 0	X: ff	Y: e1	SP: ff
c7bb	0	DEY	A: 0	X: ff	Y: e1	SP: ff
c7bc	c7b9	BNE	A: 0	X: ff	Y: e0	SP: ff
c7b9	1e0	STA	A: 0	X: ff	Y: e0	SP: ff
c7bb	0	DEY	A: 0	X: ff	Y: e0	SP: ff
c7bc	c7b9	BNE	A: 0	X: ff	Y: df	SP: ff
c7b9	1df	STA	A: 0	X: ff	Y: df	SP: ff
c7bb	0	DEY	A: 0	X: ff	Y: df	SP: ff
c7bc	c7b9	BNE	A: 0	X: ff	Y: de	SP: ff
c7b9	1de	STA	A: 0	X: ff	Y: de	SP: ff
c7bb	0	DEY	A: 0	X: ff	Y: de	SP: ff
c7bc	c7b9	BNE	A: 0	X: ff	Y: dd	SP: ff
c7b9	1dd	STA	A: 0	X: ff	Y: dd	SP: ff
c7bb	0	DEY	A: 0	X: ff	Y: dd	SP: ff
c7bc	c7b9	BNE	A: 0	X: ff	Y: dc	SP: ff
c7b9	1dc	STA	A: 0	X: ff	Y: dc	SP: ff
c7bb	0	DEY	A: 0	X: ff	Y: dc	SP: ff
c7bc	c7b9	BNE	A: 0	X: ff	Y: db	SP: ff
c7b9	1db	STA	A: 0	X: ff	Y: db	SP: ff
c7bb	0	DEY	A: 0	X: ff	Y: db	SP: ff
c7bc	c7b9	BNE	A: 0	X: ff	Y: da	SP: ff
c7b9	1da	STA	A: 0	X: ff	Y: da	SP: ff
c7bb	0	DEY	A: 0	X: ff	Y: da	SP: ff
c7bc	c7b9	BNE	A: 0	X: ff	Y: d9	SP: ff
c7b9	1d9	STA	A: 0	X: ff	Y: d9	SP: ff
c7bb	0	DEY	A: 0	X: ff	Y: d9	SP: ff
c7bc	c7b9	BNE	A: 0	X: ff	Y: d8	SP: ff
c7b9	1d8	STA	A: 0	X: ff	Y: d8	SP: ff
c7bb	0	DEY	A: 0	X: ff	Y: d8	SP: ff
c7bc	c7b9	BNE	A: 0	X: ff	Y: d7	SP: ff
c7b9	1d7	STA	A: 0	X: ff	Y: d7	SP: ff
c7bb	0	DEY	A: 0	X: ff	Y: d7	SP: ff
c7bc	c7b9	BNE	A: 0	X: ff	Y: d6	SP: ff
c7b9	1d6	STA	A: 0	X: ff	Y: d6	SP: ff
c7bb	0	DEY	A: 0	X: ff	Y: d6	SP: ff
c7bc	c7b9	BNE	A: 0	X: ff	Y: d5	SP: ff
c7b9	1d5	STA	A: 0	X: ff	Y: d5	SP: ff
c7bb	0	DEY	A: 0	X: ff	Y: d5	SP: ff
c7bc	c7b9	BNE	A: 0	X: ff	Y: d4	SP: ff
c7b9	1d4	STA	A: 0	X: ff	Y: d4	SP: ff
c7bb	0	DEY	A: 0	X: ff	Y: d4	SP: ff
c7bc	c7b9	BNE	A: 0	X: ff	Y: d3	SP: ff
c7b9	1d3	STA	A: 0	X: ff	Y: d3	SP: ff
c7bb	0	DEY	A: 0	X: ff	Y: d3	SP: ff
c7bc	c7b9	BNE	A: 0	X: ff	Y: d2	SP: ff
c7b9	1d2	STA	A: 0	X: ff	Y: d2	SP: ff
c7bb	0	DEY	A: 0	X: ff	Y: d2	SP: ff
c7bc	c7b9	BNE	A: 0	X: ff	Y: d1	SP: ff
c7b9	1d1	STA	A: 0	X: ff	Y: d1	SP: ff
c7bb	0	DEY	A: 0	X: ff	Y: d1	SP: ff
c7bc	c7b9	BNE	A: 0	X: ff	Y: d0	SP: ff
c7b9	1d0	STA	A: 0	X: ff	Y: d0	SP: ff
c7bb	0	DEY	A: 0	X: ff	Y: d0	SP: ff
c7bc	c7b9	BNE	A: 0	X: ff	Y: cf	SP: ff
c7b9	1cf	STA	A: 0	X: ff	Y: cf	SP: ff
c7bb	0	DEY	A: 0	X: ff	Y: cf	SP: ff
c7bc	c7b9	BNE	A: 0	X: ff	Y: ce	SP: ff
c7b9	1ce	STA	A: 0	X: ff	Y: ce	SP: ff
c7bb	0	DEY	A: 0	X: ff	Y: ce	SP: ff
c7bc	c7b9	BNE	A: 0	X: ff	Y: cd	SP: ff
c7b9	1cd	STA	A: 0	X: ff	Y: cd	SP: ff
c7bb	0	DEY	A: 0	X: ff	Y: cd	SP: ff
c7bc	c7b9	BNE	A: 0	X: ff	Y: cc	SP: ff
c7b9	1cc	STA	A: 0	X: ff	Y: cc	SP: ff
c7bb	0	DEY	A: 0	X: ff	Y: cc	SP: ff
c7bc	c7b9	BNE	A: 0	X: ff	Y: cb	SP: ff
c7b9	1cb	STA	A: 0	X: ff	Y: cb	SP: ff
c7bb	0	DEY	A: 0	X: ff	Y: cb	SP: ff
c7bc	c7b9	BNE	A: 0	X: ff	Y: ca	SP: ff
c7b9	1ca	STA	A: 0	X: ff	Y: ca	SP: ff
c7bb	0	DEY	A: 0	X: ff	Y: ca	SP: ff
c7bc	c7b9	BNE	A: 0	X: ff	Y: c9	SP: ff
c7b9	1c9	STA	A: 0	X: ff	Y: c9	SP: ff
c7bb	0	DEY	A: 0	X: ff	Y: c9	SP: ff
c7bc	c7b9	BNE	A: 0	X: ff	Y: c8	SP: ff
c7b9	1c8	STA	A: 0	X: ff	Y: c8	SP: ff
c7bb	0	DEY	A: 0	X: ff	Y: c8	SP: ff
c7bc	c7b9	BNE	A: 0	X: ff	Y: c7	SP: ff
c7b9	1c7	STA	A: 0	X: ff	Y: c7	SP: ff
c7bb	0	DEY	A: 0	X: ff	Y: c7	SP: ff
c7bc	c7b9	BNE	A: 0	X: ff	Y: c6	SP: ff
c7b9	1c6	STA	A: 0	X: ff	Y: c6	SP: ff
c7bb	0	DEY	A: 0	X: ff	Y: c6	SP: ff
c7bc	c7b9	BNE	A: 0	X: ff	Y: c5	SP: ff
c7b9	1c5	STA	A: 0	X: ff	Y: c5	SP: ff
c7bb	0	DEY	A: 0	X: ff	Y: c5	SP: ff
c7bc	c7b9	BNE	A: 0	X: ff	Y: c4	SP: ff
c7b9	1c4	STA	A: 0	X: ff	Y: c4	SP: ff
c7bb	0	DEY	A: 0	X: ff	Y: c4	SP: ff
c7bc	c7b9	BNE	A: 0	X: ff	Y: c3	SP: ff
c7b9	1c3	STA	A: 0	X: ff	Y: c3	SP: ff
c7bb	0	DEY	A: 0	X: ff	Y: c3	SP: ff
c7bc	c7b9	BNE	A: 0	X: ff	Y: c2	SP: ff
c7b9	1c2	STA	A: 0	X: ff	Y: c2	SP: ff
c7bb	0	DEY	A: 0	X: ff	Y: c2	SP: ff
c7bc	c7b9	BNE	A: 0	X: ff	Y: c1	SP: ff
c7b9	1c1	STA	A: 0	X: ff	Y: c1	SP: ff
c7bb	0	DEY	A: 0	X: ff	Y: c1	SP: ff
c7bc	c7b9	BNE	A: 0	X: ff	Y: c0	SP: ff
c7b9	1c0	STA	A: 0	X: ff	Y: c0	SP: ff
c7bb	0	DEY	A: 0	X: ff	Y: c0	SP: ff
c7bc	c7b9	BNE	A: 0	X: ff	Y: bf	SP: ff
c7b9	1bf	STA	A: 0	X: ff	Y: bf	SP: ff
c7bb	0	DEY	A: 0	X: ff	Y: bf	SP: ff
c7bc	c7b9	BNE	A: 0	X: ff	Y: be	SP: ff
c7b9	1be	STA	A: 0	X: ff	Y: be	SP: ff
c7bb	0	DEY	A: 0	X: ff	Y: be	SP: ff
c7bc	c7b9	BNE	A: 0	X: ff	Y: bd	SP: ff
c7b9	1bd	STA	A: 0	X: ff	Y: bd	SP: ff
c7bb	0	DEY	A: 0	X: ff	Y: bd	SP: ff
c7bc	c7b9	BNE	A: 0	X: ff	Y: bc	SP: ff
c7b9	1bc	STA	A: 0	X: ff	Y: bc	SP: ff
c7bb	0	DEY	A: 0	X: ff	Y: bc	SP: ff
c7bc	c7b9	BNE	A: 0	X: ff	Y: bb	SP: ff
c7b9	1bb	STA	A: 0	X: ff	Y: bb	SP: ff
c7bb	0	DEY	A: 0	X: ff	Y: bb	SP: ff
c7bc	c7b9	BNE	A: 0	X: ff	Y: ba	SP: ff
c7b9	1ba	STA	A: 0	X: ff	Y: ba	SP: ff
c7bb	0	DEY	A: 0	X: ff	Y: ba	SP: ff
c7bc	c7b9	BNE	A: 0	X: ff	Y: b9	SP: ff
c7b9	1b9	STA	A: 0	X: ff	Y: b9	SP: ff
c7bb	0	DEY	A: 0	X: ff	Y: b9	SP: ff
c7bc	c7b9	BNE	A: 0	X: ff	Y: b8	SP: ff
c7b9	1b8	STA	A: 0	X: ff	Y: b8	SP: ff
c7bb	0	DEY	A: 0	X: ff	Y: b8	SP: ff
c7bc	c7b9	BNE	A: 0	X: ff	Y: b7	SP: ff
c7b9	1b7	STA	A: 0	X: ff	Y: b7	SP: ff
c7bb	0	DEY	A: 0	X: ff	Y: b7	SP: ff
c7bc	c7b9	BNE	A: 0	X: ff	Y: b6	SP: ff
c7b9	1b6	STA	A: 0	X: ff	Y: b6	SP: ff
c7bb	0	DEY	A: 0	X: ff	Y: b6	SP: ff
c7bc	c7b9	BNE	A: 0	X: ff	Y: b5	SP: ff
c7b9	1b5	STA	A: 0	X: ff	Y: b5	SP: ff
c7bb	0	DEY	A: 0	X: ff	Y: b5	SP: ff
c7bc	c7b9	BNE	A: 0	X: ff	Y: b4	SP: ff
c7b9	1b4	STA	A: 0	X: ff	Y: b4	SP: ff
c7bb	0	DEY	A: 0	X: ff	Y: b4	SP: ff
c7bc	c7b9	BNE	A: 0	X: ff	Y: b3	SP: ff
c7b9	1b3	STA	A: 0	X: ff	Y: b3	SP: ff
c7bb	0	DEY	A: 0	X: ff	Y: b3	SP: ff
c7bc	c7b9	BNE	A: 0	X: ff	Y: b2	SP: ff
c7b9	1b2	STA	A: 0	X: ff	Y: b2	SP: ff
c7bb	0	DEY	A: 0	X: ff	Y: b2	SP: ff
c7bc	c7b9	BNE	A: 0	X: ff	Y: b1	SP: ff
c7b9	1b1	STA	A: 0	X: ff	Y: b1	SP: ff
c7bb	0	DEY	A: 0	X: ff	Y: b1	SP: ff
c7bc	c7b9	BNE	A: 0	X: ff	Y: b0	SP: ff
c7b9	1b0	STA	A: 0	X: ff	Y: b0	SP: ff
c7bb	0	DEY	A: 0	X: ff	Y: b0	SP: ff
c7bc	c7b9	BNE	A: 0	X: ff	Y: af	SP: ff
c7b9	1af	STA	A: 0	X: ff	Y: af	SP: ff
c7bb	0	DEY	A: 0	X: ff	Y: af	SP: ff
c7bc	c7b9	BNE	A: 0	X: ff	Y: ae	SP: ff
c7b9	1ae	STA	A: 0	X: ff	Y: ae	SP: ff
c7bb	0	DEY	A: 0	X: ff	Y: ae	SP: ff
c7bc	c7b9	BNE	A: 0	X: ff	Y: ad	SP: ff
c7b9	1ad	STA	A: 0	X: ff	Y: ad	SP: ff
c7bb	0	DEY	A: 0	X: ff	Y: ad	SP: ff
c7bc	c7b9	BNE	A: 0	X: ff	Y: ac	SP: ff
c7b9	1ac	STA	A: 0	X: ff	Y: ac	SP: ff
c7bb	0	DEY	A: 0	X: ff	Y: ac	SP: ff
c7bc	c7b9	BNE	A: 0	X: ff	Y: ab	SP: ff
c7b9	1ab	STA	A: 0	X: ff	Y: ab	SP: ff
c7bb	0	DEY	A: 0	X: ff	Y: ab	SP: ff
c7bc	c7b9	BNE	A: 0	X: ff	Y: aa	SP: ff
c7b9	1aa	STA	A: 0	X: ff	Y: aa	SP: ff
c7bb	0	DEY	A: 0	X: ff	Y: aa	SP: ff
c7bc	c7b9	BNE	A: 0	X: ff	Y: a9	SP: ff
c7b9	1a9	STA	A: 0	X: ff	Y: a9	SP: ff
c7bb	0	DEY	A: 0	X: ff	Y: a9	SP: ff
c7bc	c7b9	BNE	A: 0	X: ff	Y: a8	SP: ff
c7b9	1a8	STA	A: 0	X: ff	Y: a8	SP: ff
c7bb	0	DEY	A: 0	X: ff	Y: a8	SP: ff
c7bc	c7b9	BNE	A: 0	X: ff	Y: a7	SP: ff
c7b9	1a7	STA	A: 0	X: ff	Y: a7	SP: ff
c7bb	0	DEY	A: 0	X: ff	Y: a7	SP: ff
c7bc	c7b9	BNE	A: 0	X: ff	Y: a6	SP: ff
c7b9	1a6	STA	A: 0	X: ff	Y: a6	SP: ff
c7bb	0	DEY	A: 0	X: ff	Y: a6	SP: ff
c7bc	c7b9	BNE	A: 0	X: ff	Y: a5	SP: ff
c7b9	1a5	STA	A: 0	X: ff	Y: a5	SP: ff
c7bb	0	DEY	A: 0	X: ff	Y: a5	SP: ff
c7bc	c7b9	BNE	A: 0	X: ff	Y: a4	SP: ff
c7b9	1a4	STA	A: 0	X: ff	Y: a4	SP: ff
c7bb	0	DEY	A: 0	X: ff	Y: a4	SP: ff
c7bc	c7b9	BNE	A: 0	X: ff	Y: a3	SP: ff
c7b9	1a3	STA	A: 0	X: ff	Y: a3	SP: ff
c7bb	0	DEY	A: 0	X: ff	Y: a3	SP: ff
c7bc	c7b9	BNE	A: 0	X: ff	Y: a2	SP: ff
c7b9	1a2	STA	A: 0	X: ff	Y: a2	SP: ff
c7bb	0	DEY	A: 0	X: ff	Y: a2	SP: ff
c7bc	c7b9	BNE	A: 0	X: ff	Y: a1	SP: ff
c7b9	1a1	STA	A: 0	X: ff	Y: a1	SP: ff
c7bb	0	DEY	A: 0	X: ff	Y: a1	SP: ff
c7bc	c7b9	BNE	A: 0	X: ff	Y: a0	SP: ff
c7b9	1a0	STA	A: 0	X: ff	Y: a0	SP: ff
c7bb	0	DEY	A: 0	X: ff	Y: a0	SP: ff
c7bc	c7b9	BNE	A: 0	X: ff	Y: 9f	SP: ff
c7b9	19f	STA	A: 0	X: ff	Y: 9f	SP: ff
c7bb	0	DEY	A: 0	X: ff	Y: 9f	SP: ff
c7bc	c7b9	BNE	A: 0	X: ff	Y: 9e	SP: ff
c7b9	19e	STA	A: 0	X: ff	Y: 9e	SP: ff
c7bb	0	DEY	A: 0	X: ff	Y: 9e	SP: ff
c7bc	c7b9	BNE	A: 0	X: ff	Y: 9d	SP: ff
c7b9	19d	STA	A: 0	X: ff	Y: 9d	SP: ff
c7bb	0	DEY	A: 0	X: ff	Y: 9d	SP: ff
c7bc	c7b9	BNE	A: 0	X: ff	Y: 9c	SP: ff
c7b9	19c	STA	A: 0	X: ff	Y: 9c	SP: ff
c7bb	0	DEY	A: 0	X: ff	Y: 9c	SP: ff
c7bc	c7b9	BNE	A: 0	X: ff	Y: 9b	SP: ff
c7b9	19b	STA	A: 0	X: ff	Y: 9b	SP: ff
c7bb	0	DEY	A: 0	X: ff	Y: 9b	SP: ff
c7bc	c7b9	BNE	A: 0	X: ff	Y: 9a	SP: ff
c7b9	19a	STA	A: 0	X: ff	Y: 9a	SP: ff
c7bb	0	DEY	A: 0	X: ff	Y: 9a	SP: ff
c7bc	c7b9	BNE	A: 0	X: ff	Y: 99	SP: ff
c7b9	199	STA	A: 0	X: ff	Y: 99	SP: ff
c7bb	0	DEY	A: 0	X: ff	Y: 99	SP: ff
c7bc	c7b9	BNE	A: 0	X: ff	Y: 98	SP: ff
c7b9	198	STA	A: 0	X: ff	Y: 98	SP: ff
c7bb	0	DEY	A: 0	X: ff	Y: 98	SP: ff
c7bc	c7b9	BNE	A: 0	X: ff	Y: 97	SP: ff
c7b9	197	STA	A: 0	X: ff	Y: 97	SP: ff
c7bb	0	DEY	A: 0	X: ff	Y: 97	SP: ff
c7bc	c7b9	BNE	A: 0	X: ff	Y: 96	SP: ff
c7b9	196	STA	A: 0	X: ff	Y: 96	SP: ff
c7bb	0	DEY	A: 0	X: ff	Y: 96	SP: ff
c7bc	c7b9	BNE	A: 0	X: ff	Y: 95	SP: ff
c7b9	195	STA	A: 0	X: ff	Y: 95	SP: ff
c7bb	0	DEY	A: 0	X: ff	Y: 95	SP: ff
c7bc	c7b9	BNE	A: 0	X: ff	Y: 94	SP: ff
c7b9	194	STA	A: 0	X: ff	Y: 94	SP: ff
c7bb	0	DEY	A: 0	X: ff	Y: 94	SP: ff
c7bc	c7b9	BNE	A: 0	X: ff	Y: 93	SP: ff
c7b9	193	STA	A: 0	X: ff	Y: 93	SP: ff
c7bb	0	DEY	A: 0	X: ff	Y: 93	SP: ff
c7bc	c7b9	BNE	A: 0	X: ff	Y: 92	SP: ff
c7b9	192	STA	A: 0	X: ff	Y: 92	SP: ff
c7bb	0	DEY	A: 0	X: ff	Y: 92	SP: ff
c7bc	c7b9	BNE	A: 0	X: ff	Y: 91	SP: ff
c7b9	191	STA	A: 0	X: ff	Y: 91	SP: ff
c7bb	0	DEY	A: 0	X: ff	Y: 91	SP: ff
c7bc	c7b9	BNE	A: 0	X: ff	Y: 90	SP: ff
c7b9	190	STA	A: 0	X: ff	Y: 90	SP: ff
c7bb	0	DEY	A: 0	X: ff	Y: 90	SP: ff
c7bc	c7b9	BNE	A: 0	X: ff	Y: 8f	SP: ff
c7b9	18f	STA	A: 0	X: ff	Y: 8f	SP: ff
c7bb	0	DEY	A: 0	X: ff	Y: 8f	SP: ff
c7bc	c7b9	BNE	A: 0	X: ff	Y: 8e	SP: ff
c7b9	18e	STA	A: 0	X: ff	Y: 8e	SP: ff
c7bb	0	DEY	A: 0	X: ff	Y: 8e	SP: ff
c7bc	c7b9	BNE	A: 0	X: ff	Y: 8d	SP: ff
c7b9	18d	STA	A: 0	X: ff	Y: 8d	SP: ff
c7bb	0	DEY	A: 0	X: ff	Y: 8d	SP: ff
c7bc	c7b9	BNE	A: 0	X: ff	Y: 8c	SP: ff
c7b9	18c	STA	A: 0	X: ff	Y: 8c	SP: ff
c7bb	0	DEY	A: 0	X: ff	Y: 8c	SP: ff
c7bc	c7b9	BNE	A: 0	X: ff	Y: 8b	SP: ff
c7b9	18b	STA	A: 0	X: ff	Y: 8b	SP: ff
c7bb	0	DEY	A: 0	X: ff	Y: 8b	SP: ff
c7bc	c7b9	BNE	A: 0	X: ff	Y: 8a	SP: ff
c7b9	18a	STA	A: 0	X: ff	Y: 8a	SP: ff
c7bb	0	DEY	A: 0	X: ff	Y: 8a	SP: ff
c7bc	c7b9	BNE	A: 0	X: ff	Y: 89	SP: ff
c7b9	189	STA	A: 0	X: ff	Y: 89	SP: ff
c7bb	0	DEY	A: 0	X: ff	Y: 89	SP: ff
c7bc	c7b9	BNE	A: 0	X: ff	Y: 88	SP: ff
c7b9	188	STA	A: 0	X: ff	Y: 88	SP: ff
c7bb	0	DEY	A: 0	X: ff	Y: 88	SP: ff
c7bc	c7b9	BNE	A: 0	X: ff	Y: 87	SP: ff
c7b9	187	STA	A: 0	X: ff	Y: 87	SP: ff
c7bb	0	DEY	A: 0	X: ff	Y: 87	SP: ff
c7bc	c7b9	BNE	A: 0	X: ff	Y: 86	SP: ff
c7b9	186	STA	A: 0	X: ff	Y: 86	SP: ff
c7bb	0	DEY	A: 0	X: ff	Y: 86	SP: ff
c7bc	c7b9	BNE	A: 0	X: ff	Y: 85	SP: ff
c7b9	185	STA	A: 0	X: ff	Y: 85	SP: ff
c7bb	0	DEY	A: 0	X: ff	Y: 85	SP: ff
c7bc	c7b9	BNE	A: 0	X: ff	Y: 84	SP: ff
c7b9	184	STA	A: 0	X: ff	Y: 84	SP: ff
c7bb	0	DEY	A: 0	X: ff	Y: 84	SP: ff
c7bc	c7b9	BNE	A: 0	X: ff	Y: 83	SP: ff
c7b9	183	STA	A: 0	X: ff	Y: 83	SP: ff
c7bb	0	DEY	A: 0	X: ff	Y: 83	SP: ff
c7bc	c7b9	BNE	A: 0	X: ff	Y: 82	SP: ff
c7b9	182	STA	A: 0	X: ff	Y: 82	SP: ff
c7bb	0	DEY	A: 0	X: ff	Y: 82	SP: ff
c7bc	c7b9	BNE	A: 0	X: ff	Y: 81	SP: ff
c7b9	181	STA	A: 0	X: ff	Y: 81	SP: ff
c7bb	0	DEY	A: 0	X: ff	Y: 81	SP: ff
c7bc	c7b9	BNE	A: 0	X: ff	Y: 80	SP: ff
c7b9	180	STA	A: 0	X: ff	Y: 80	SP: ff
c7bb	0	DEY	A: 0	X: ff	Y: 80	SP: ff
c7bc	c7b9	BNE	A: 0	X: ff	Y: 7f	SP: ff
c7b9	17f	STA	A: 0	X: ff	Y: 7f	SP: ff
c7bb	0	DEY	A: 0	X: ff	Y: 7f	SP: ff
c7bc	c7b9	BNE	A: 0	X: ff	Y: 7e	SP: ff
c7b9	17e	STA	A: 0	X: ff	Y: 7e	SP: ff
c7bb	0	DEY	A: 0	X: ff	Y: 7e	SP: ff
c7bc	c7b9	BNE	A: 0	X: ff	Y: 7d	SP: ff
c7b9	17d	STA	A: 0	X: ff	Y: 7d	SP: ff
c7bb	0	DEY	A: 0	X: ff	Y: 7d	SP: ff
c7bc	c7b9	BNE	A: 0	X: ff	Y: 7c	SP: ff
c7b9	17c	STA	A: 0	X: ff	Y: 7c	SP: ff
c7bb	0	DEY	A: 0	X: ff	Y: 7c	SP: ff
c7bc	c7b9	BNE	A: 0	X: ff	Y: 7b	SP: ff
c7b9	17b	STA	A: 0	X: ff	Y: 7b	SP: ff
c7bb	0	DEY	A: 0	X: ff	Y: 7b	SP: ff
c7bc	c7b9	BNE	A: 0	X: ff	Y: 7a	SP: ff
c7b9	17a	STA	A: 0	X: ff	Y: 7a	SP: ff
c7bb	0	DEY	A: 0	X: ff	Y: 7a	SP: ff
c7bc	c7b9	BNE	A: 0	X: ff	Y: 79	SP: ff
c7b9	179	STA	A: 0	X: ff	Y: 79	SP: ff
c7bb	0	DEY	A: 0	X: ff	Y: 79	SP: ff
c7bc	c7b9	BNE	A: 0	X: ff	Y: 78	SP: ff
c7b9	178	STA	A: 0	X: ff	Y: 78	SP: ff
c7bb	0	DEY	A: 0	X: ff	Y: 78	SP: ff
c7bc	c7b9	BNE	A: 0	X: ff	Y: 77	SP: ff
c7b9	177	STA	A: 0	X: ff	Y: 77	SP: ff
c7bb	0	DEY	A: 0	X: ff	Y: 77	SP: ff
c7bc	c7b9	BNE	A: 0	X: ff	Y: 76	SP: ff
c7b9	176	STA	A: 0	X: ff	Y: 76	SP: ff
c7bb	0	DEY	A: 0	X: ff	Y: 76	SP: ff
c7bc	c7b9	BNE	A: 0	X: ff	Y: 75	SP: ff
c7b9	175	STA	A: 0	X: ff	Y: 75	SP: ff
c7bb	0	DEY	A: 0	X: ff	Y: 75	SP: ff
c7bc	c7b9	BNE	A: 0	X: ff	Y: 74	SP: ff
c7b9	174	STA	A: 0	X: ff	Y: 74	SP: ff
c7bb	0	DEY	A: 0	X: ff	Y: 74	SP: ff
c7bc	c7b9	BNE	A: 0	X: ff	Y: 73	SP: ff
c7b9	173	STA	A: 0	X: ff	Y: 73	SP: ff
c7bb	0	DEY	A: 0	X: ff	Y: 73	SP: ff
c7bc	c7b9	BNE	A: 0	X: ff	Y: 72	SP: ff
c7b9	172	STA	A: 0	X: ff	Y: 72	SP: ff
c7bb	0	DEY	A: 0	X: ff	Y: 72	SP: ff
c7bc	c7b9	BNE	A: 0	X: ff	Y: 71	SP: ff
c7b9	171	STA	A: 0	X: ff	Y: 71	SP: ff
c7bb	0	DEY	A: 0	X: ff	Y: 71	SP: ff
c7bc	c7b9	BNE	A: 0	X: ff	Y: 70	SP: ff
c7b9	170	STA	A: 0	X: ff	Y: 70	SP: ff
c7bb	0	DEY	A: 0	X: ff	Y: 70	SP: ff
c7bc	c7b9	BNE	A: 0	X: ff	Y: 6f	SP: ff
c7b9	16f	STA	A: 0	X: ff	Y: 6f	SP: ff
c7bb	0	DEY	A: 0	X: ff	Y: 6f	SP: ff
c7bc	c7b9	BNE	A: 0	X: ff	Y: 6e	SP: ff
c7b9	16e	STA	A: 0	X: ff	Y: 6e	SP: ff
c7bb	0	DEY	A: 0	X: ff	Y: 6e	SP: ff
c7bc	c7b9	BNE	A: 0	X: ff	Y: 6d	SP: ff
c7b9	16d	STA	A: 0	X: ff	Y: 6d	SP: ff
c7bb	0	DEY	A: 0	X: ff	Y: 6d	SP: ff
c7bc	c7b9	BNE	A: 0	X: ff	Y: 6c	SP: ff
c7b9	16c	STA	A: 0	X: ff	Y: 6c	SP: ff
c7bb	0	DEY	A: 0	X: ff	Y: 6c	SP: ff
c7bc	c7b9	BNE	A: 0	X: ff	Y: 6b	SP: ff
c7b9	16b	STA	A: 0	X: ff	Y: 6b	SP: ff
c7bb	0	DEY	A: 0	X: ff	Y: 6b	SP: ff
c7bc	c7b9	BNE	A: 0	X: ff	Y: 6a	SP: ff
c7b9	16a	STA	A: 0	X: ff	Y: 6a	SP: ff
c7bb	0	DEY	A: 0	X: ff	Y: 6a	SP: ff
c7bc	c7b9	BNE	A: 0	X: ff	Y: 69	SP: ff
c7b9	169	STA	A: 0	X: ff	Y: 69	SP: ff
c7bb	0	DEY	A: 0	X: ff	Y: 69	SP: ff
c7bc	c7b9	BNE	A: 0	X: ff	Y: 68	SP: ff
c7b9	168	STA	A: 0	X: ff	Y: 68	SP: ff
c7bb	0	DEY	A: 0	X: ff	Y: 68	SP: ff
c7bc	c7b9	BNE	A: 0	X: ff	Y: 67	SP: ff
c7b9	167	STA	A: 0	X: ff	Y: 67	SP: ff
c7bb	0	DEY	A: 0	X: ff	Y: 67	SP: ff
c7bc	c7b9	BNE	A: 0	X: ff	Y: 66	SP: ff
c7b9	166	STA	A: 0	X: ff	Y: 66	SP: ff
c7bb	0	DEY	A: 0	X: ff	Y: 66	SP: ff
c7bc	c7b9	BNE	A: 0	X: ff	Y: 65	SP: ff
c7b9	165	STA	A: 0	X: ff	Y: 65	SP: ff
c7bb	0	DEY	A: 0	X: ff	Y: 65	SP: ff
c7bc	c7b9	BNE	A: 0	X: ff	Y: 64	SP: ff
c7b9	164	STA	A: 0	X: ff	Y: 64	SP: ff
c7bb	0	DEY	A: 0	X: ff	Y: 64	SP: ff
c7bc	c7b9	BNE	A: 0	X: ff	Y: 63	SP: ff
c7b9	163	STA	A: 0	X: ff	Y: 63	SP: ff
c7bb	0	DEY	A: 0	X: ff	Y: 63	SP: ff
c7bc	c7b9	BNE	A: 0	X: ff	Y: 62	SP: ff
c7b9	162	STA	A: 0	X: ff	Y: 62	SP: ff
c7bb	0	DEY	A: 0	X: ff	Y: 62	SP: ff
c7bc	c7b9	BNE	A: 0	X: ff	Y: 61	SP: ff
c7b9	161	STA	A: 0	X: ff	Y: 61	SP: ff
c7bb	0	DEY	A: 0	X: ff	Y: 61	SP: ff
c7bc	c7b9	BNE	A: 0	X: ff	Y: 60	SP: ff
c7b9	160	STA	A: 0	X: ff	Y: 60	SP: ff
c7bb	0	DEY	A: 0	X: ff	Y: 60	SP: ff
c7bc	c7b9	BNE	A: 0	X: ff	Y: 5f	SP: ff
c7b9	15f	STA	A: 0	X: ff	Y: 5f	SP: ff
c7bb	0	DEY	A: 0	X: ff	Y: 5f	SP: ff
c7bc	c7b9	BNE	A: 0	X: ff	Y: 5e	SP: ff
c7b9	15e	STA	A: 0	X: ff	Y: 5e	SP: ff
c7bb	0	DEY	A: 0	X: ff	Y: 5e	SP: ff
c7bc	c7b9	BNE	A: 0	X: ff	Y: 5d	SP: ff
c7b9	15d	STA	A: 0	X: ff	Y: 5d	SP: ff
c7bb	0	DEY	A: 0	X: ff	Y: 5d	SP: ff
c7bc	c7b9	BNE	A: 0	X: ff	Y: 5c	SP: ff
c7b9	15c	STA	A: 0	X: ff	Y: 5c	SP: ff
c7bb	0	DEY	A: 0	X: ff	Y: 5c	SP: ff
c7bc	c7b9	BNE	A: 0	X: ff	Y: 5b	SP: ff
c7b9	15b	STA	A: 0	X: ff	Y: 5b	SP: ff
c7bb	0	DEY	A: 0	X: ff	Y: 5b	SP: ff
c7bc	c7b9	BNE	A: 0	X: ff	Y: 5a	SP: ff
c7b9	15a	STA	A: 0	X: ff	Y: 5a	SP: ff
c7bb	0	DEY	A: 0	X: ff	Y: 5a	SP: ff
c7bc	c7b9	BNE	A: 0	X: ff	Y: 59	SP: ff
c7b9	159	STA	A: 0	X: ff	Y: 59	SP: ff
c7bb	0	DEY	A: 0	X: ff	Y: 59	SP: ff
c7bc	c7b9	BNE	A: 0	X: ff	Y: 58	SP: ff
c7b9	158	STA	A: 0	X: ff	Y: 58	SP: ff
c7bb	0	DEY	A: 0	X: ff	Y: 58	SP: ff
c7bc	c7b9	BNE	A: 0	X: ff	Y: 57	SP: ff
c7b9	157	STA	A: 0	X: ff	Y: 57	SP: ff
c7bb	0	DEY	A: 0	X: ff	Y: 57	SP: ff
c7bc	c7b9	BNE	A: 0	X: ff	Y: 56	SP: ff
c7b9	156	STA	A: 0	X: ff	Y: 56	SP: ff
c7bb	0	DEY	A: 0	X: ff	Y: 56	SP: ff
c7bc	c7b9	BNE	A: 0	X: ff	Y: 55	SP: ff
c7b9	155	STA	A: 0	X: ff	Y: 55	SP: ff
c7bb	0	DEY	A: 0	X: ff	Y: 55	SP: ff
c7bc	c7b9	BNE	A: 0	X: ff	Y: 54	SP: ff
c7b9	154	STA	A: 0	X: ff	Y: 54	SP: ff
c7bb	0	DEY	A: 0	X: ff	Y: 54	SP: ff
c7bc	c7b9	BNE	A: 0	X: ff	Y: 53	SP: ff
c7b9	153	STA	A: 0	X: ff	Y: 53	SP: ff
c7bb	0	DEY	A: 0	X: ff	Y: 53	SP: ff
c7bc	c7b9	BNE	A: 0	X: ff	Y: 52	SP: ff
c7b9	152	STA	A: 0	X: ff	Y: 52	SP: ff
c7bb	0	DEY	A: 0	X: ff	Y: 52	SP: ff
c7bc	c7b9	BNE	A: 0	X: ff	Y: 51	SP: ff
c7b9	151	STA	A: 0	X: ff	Y: 51	SP: ff
c7bb	0	DEY	A: 0	X: ff	Y: 51	SP: ff
c7bc	c7b9	BNE	A: 0	X: ff	Y: 50	SP: ff
c7b9	150	STA	A: 0	X: ff	Y: 50	SP: ff
c7bb	0	DEY	A: 0	X: ff	Y: 50	SP: ff
c7bc	c7b9	BNE	A: 0	X: ff	Y: 4f	SP: ff
c7b9	14f	STA	A: 0	X: ff	Y: 4f	SP: ff
c7bb	0	DEY	A: 0	X: ff	Y: 4f	SP: ff
c7bc	c7b9	BNE	A: 0	X: ff	Y: 4e	SP: ff
c7b9	14e	STA	A: 0	X: ff	Y: 4e	SP: ff
c7bb	0	DEY	A: 0	X: ff	Y: 4e	SP: ff
c7bc	c7b9	BNE	A: 0	X: ff	Y: 4d	SP: ff
c7b9	14d	STA	A: 0	X: ff	Y: 4d	SP: ff
c7bb	0	DEY	A: 0	X: ff	Y: 4d	SP: ff
c7bc	c7b9	BNE	A: 0	X: ff	Y: 4c	SP: ff
c7b9	14c	STA	A: 0	X: ff	Y: 4c	SP: ff
c7bb	0	DEY	A: 0	X: ff	Y: 4c	SP: ff
c7bc	c7b9	BNE	A: 0	X: ff	Y: 4b	SP: ff
c7b9	14b	STA	A: 0	X: ff	Y: 4b	SP: ff
c7bb	0	DEY	A: 0	X: ff	Y: 4b	SP: ff
c7bc	c7b9	BNE	A: 0	X: ff	Y: 4a	SP: ff
c7b9	14a	STA	A: 0	X: ff	Y: 4a	SP: ff
c7bb	0	DEY	A: 0	X: ff	Y: 4a	SP: ff
c7bc	c7b9	BNE	A: 0	X: ff	Y: 49	SP: ff
c7b9	149	STA	A: 0	X: ff	Y: 49	SP: ff
c7bb	0	DEY	A: 0	X: ff	Y: 49	SP: ff
c7bc	c7b9	BNE	A: 0	X: ff	Y: 48	SP: ff
c7b9	148	STA	A: 0	X: ff	Y: 48	SP: ff
c7bb	0	DEY	A: 0	X: ff	Y: 48	SP: ff
c7bc	c7b9	BNE	A: 0	X: ff	Y: 47	SP: ff
c7b9	147	STA	A: 0	X: ff	Y: 47	SP: ff
c7bb	0	DEY	A: 0	X: ff	Y: 47	SP: ff
c7bc	c7b9	BNE	A: 0	X: ff	Y: 46	SP: ff
c7b9	146	STA	A: 0	X: ff	Y: 46	SP: ff
c7bb	0	DEY	A: 0	X: ff	Y: 46	SP: ff
c7bc	c7b9	BNE	A: 0	X: ff	Y: 45	SP: ff
c7b9	145	STA	A: 0	X: ff	Y: 45	SP: ff
c7bb	0	DEY	A: 0	X: ff	Y: 45	SP: ff
c7bc	c7b9	BNE	A: 0	X: ff	Y: 44	SP: ff
c7b9	144	STA	A: 0	X: ff	Y: 44	SP: ff
c7bb	0	DEY	A: 0	X: ff	Y: 44	SP: ff
c7bc	c7b9	BNE	A: 0	X: ff	Y: 43	SP: ff
c7b9	143	STA	A: 0	X: ff	Y: 43	SP: ff
c7bb	0	DEY	A: 0	X: ff	Y: 43	SP: ff
c7bc	c7b9	BNE	A: 0	X: ff	Y: 42	SP: ff
c7b9	142	STA	A: 0	X: ff	Y: 42	SP: ff
c7bb	0	DEY	A: 0	X: ff	Y: 42	SP: ff
c7bc	c7b9	BNE	A: 0	X: ff	Y: 41	SP: ff
c7b9	141	STA	A: 0	X: ff	Y: 41	SP: ff
c7bb	0	DEY	A: 0	X: ff	Y: 41	SP: ff
c7bc	c7b9	BNE	A: 0	X: ff	Y: 40	SP: ff
c7b9	140	STA	A: 0	X: ff	Y: 40	SP: ff
c7bb	0	DEY	A: 0	X: ff	Y: 40	SP: ff
c7bc	c7b9	BNE	A: 0	X: ff	Y: 3f	SP: ff
c7b9	13f	STA	A: 0	X: ff	Y: 3f	SP: ff
c7bb	0	DEY	A: 0	X: ff	Y: 3f	SP: ff
c7bc	c7b9	BNE	A: 0	X: ff	Y: 3e	SP: ff
c7b9	13e	STA	A: 0	X: ff	Y: 3e	SP: ff
c7bb	0	DEY	A: 0	X: ff	Y: 3e	SP: ff
c7bc	c7b9	BNE	A: 0	X: ff	Y: 3d	SP: ff
c7b9	13d	STA	A: 0	X: ff	Y: 3d	SP: ff
c7bb	0	DEY	A: 0	X: ff	Y: 3d	SP: ff
c7bc	c7b9	BNE	A: 0	X: ff	Y: 3c	SP: ff
c7b9	13c	STA	A: 0	X: ff	Y: 3c	SP: ff
c7bb	0	DEY	A: 0	X: ff	Y: 3c	SP: ff
c7bc	c7b9	BNE	A: 0	X: ff	Y: 3b	SP: ff
c7b9	13b	STA	A: 0	X: ff	Y: 3b	SP: ff
c7bb	0	DEY	A: 0	X: ff	Y: 3b	SP: ff
c7bc	c7b9	BNE	A: 0	X: ff	Y: 3a	SP: ff
c7b9	13a	STA	A: 0	X: ff	Y: 3a	SP: ff
c7bb	0	DEY	A: 0	X: ff	Y: 3a	SP: ff
c7bc	c7b9	BNE	A: 0	X: ff	Y: 39	SP: ff
c7b9	139	STA	A: 0	X: ff	Y: 39	SP: ff
c7bb	0	DEY	A: 0	X: ff	Y: 39	SP: ff
c7bc	c7b9	BNE	A: 0	X: ff	Y: 38	SP: ff
c7b9	138	STA	A: 0	X: ff	Y: 38	SP: ff
c7bb	0	DEY	A: 0	X: ff	Y: 38	SP: ff
c7bc	c7b9	BNE	A: 0	X: ff	Y: 37	SP: ff
c7b9	137	STA	A: 0	X: ff	Y: 37	SP: ff
c7bb	0	DEY	A: 0	X: ff	Y: 37	SP: ff
c7bc	c7b9	BNE	A: 0	X: ff	Y: 36	SP: ff
c7b9	136	STA	A: 0	X: ff	Y: 36	SP: ff
c7bb	0	DEY	A: 0	X: ff	Y: 36	SP: ff
c7bc	c7b9	BNE	A: 0	X: ff	Y: 35	SP: ff
c7b9	135	STA	A: 0	X: ff	Y: 35	SP: ff
c7bb	0	DEY	A: 0	X: ff	Y: 35	SP: ff
c7bc	c7b9	BNE	A: 0	X: ff	Y: 34	SP: ff
c7b9	134	STA	A: 0	X: ff	Y: 34	SP: ff
c7bb	0	DEY	A: 0	X: ff	Y: 34	SP: ff
c7bc	c7b9	BNE	A: 0	X: ff	Y: 33	SP: ff
c7b9	133	STA	A: 0	X: ff	Y: 33	SP: ff
c7bb	0	DEY	A: 0	X: ff	Y: 33	SP: ff
c7bc	c7b9	BNE	A: 0	X: ff	Y: 32	SP: ff
c7b9	132	STA	A: 0	X: ff	Y: 32	SP: ff
c7bb	0	DEY	A: 0	X: ff	Y: 32	SP: ff
c7bc	c7b9	BNE	A: 0	X: ff	Y: 31	SP: ff
c7b9	131	STA	A: 0	X: ff	Y: 31	SP: ff
c7bb	0	DEY	A: 0	X: ff	Y: 31	SP: ff
c7bc	c7b9	BNE	A: 0	X: ff	Y: 30	SP: ff
c7b9	130	STA	A: 0	X: ff	Y: 30	SP: ff
c7bb	0	DEY	A: 0	X: ff	Y: 30	SP: ff
c7bc	c7b9	BNE	A: 0	X: ff	Y: 2f	SP: ff
c7b9	12f	STA	A: 0	X: ff	Y: 2f	SP: ff
c7bb	0	DEY	A: 0	X: ff	Y: 2f	SP: ff
c7bc	c7b9	BNE	A: 0	X: ff	Y: 2e	SP: ff
c7b9	12e	STA	A: 0	X: ff	Y: 2e	SP: ff
c7bb	0	DEY	A: 0	X: ff	Y: 2e	SP: ff
c7bc	c7b9	BNE	A: 0	X: ff	Y: 2d	SP: ff
c7b9	12d	STA	A: 0	X: ff	Y: 2d	SP: ff
c7bb	0	DEY	A: 0	X: ff	Y: 2d	SP: ff
c7bc	c7b9	BNE	A: 0	X: ff	Y: 2c	SP: ff
c7b9	12c	STA	A: 0	X: ff	Y: 2c	SP: ff
c7bb	0	DEY	A: 0	X: ff	Y: 2c	SP: ff
c7bc	c7b9	BNE	A: 0	X: ff	Y: 2b	SP: ff
c7b9	12b	STA	A: 0	X: ff	Y: 2b	SP: ff
c7bb	0	DEY	A: 0	X: ff	Y: 2b	SP: ff
c7bc	c7b9	BNE	A: 0	X: ff	Y: 2a	SP: ff
c7b9	12a	STA	A: 0	X: ff	Y: 2a	SP: ff
c7bb	0	DEY	A: 0	X: ff	Y: 2a	SP: ff
c7bc	c7b9	BNE	A: 0	X: ff	Y: 29	SP: ff
c7b9	129	STA	A: 0	X: ff	Y: 29	SP: ff
c7bb	0	DEY	A: 0	X: ff	Y: 29	SP: ff
c7bc	c7b9	BNE	A: 0	X: ff	Y: 28	SP: ff
c7b9	128	STA	A: 0	X: ff	Y: 28	SP: ff
c7bb	0	DEY	A: 0	X: ff	Y: 28	SP: ff
c7bc	c7b9	BNE	A: 0	X: ff	Y: 27	SP: ff
c7b9	127	STA	A: 0	X: ff	Y: 27	SP: ff
c7bb	0	DEY	A: 0	X: ff	Y: 27	SP: ff
c7bc	c7b9	BNE	A: 0	X: ff	Y: 26	SP: ff
c7b9	126	STA	A: 0	X: ff	Y: 26	SP: ff
c7bb	0	DEY	A: 0	X: ff	Y: 26	SP: ff
c7bc	c7b9	BNE	A: 0	X: ff	Y: 25	SP: ff
c7b9	125	STA	A: 0	X: ff	Y: 25	SP: ff
c7bb	0	DEY	A: 0	X: ff	Y: 25	SP: ff
c7bc	c7b9	BNE	A: 0	X: ff	Y: 24	SP: ff
c7b9	124	STA	A: 0	X: ff	Y: 24	SP: ff
c7bb	0	DEY	A: 0	X: ff	Y: 24	SP: ff
c7bc	c7b9	BNE	A: 0	X: ff	Y: 23	SP: ff
c7b9	123	STA	A: 0	X: ff	Y: 23	SP: ff
c7bb	0	DEY	A: 0	X: ff	Y: 23	SP: ff
c7bc	c7b9	BNE	A: 0	X: ff	Y: 22	SP: ff
c7b9	122	STA	A: 0	X: ff	Y: 22	SP: ff
c7bb	0	DEY	A: 0	X: ff	Y: 22	SP: ff
c7bc	c7b9	BNE	A: 0	X: ff	Y: 21	SP: ff
c7b9	121	STA	A: 0	X: ff	Y: 21	SP: ff
c7bb	0	DEY	A: 0	X: ff	Y: 21	SP: ff
c7bc	c7b9	BNE	A: 0	X: ff	Y: 20	SP: ff
c7b9	120	STA	A: 0	X: ff	Y: 20	SP: ff
c7bb	0	DEY	A: 0	X: ff	Y: 20	SP: ff
c7bc	c7b9	BNE	A: 0	X: ff	Y: 1f	SP: ff
c7b9	11f	STA	A: 0	X: ff	Y: 1f	SP: ff
c7bb	0	DEY	A: 0	X: ff	Y: 1f	SP: ff
c7bc	c7b9	BNE	A: 0	X: ff	Y: 1e	SP: ff
c7b9	11e	STA	A: 0	X: ff	Y: 1e	SP: ff
c7bb	0	DEY	A: 0	X: ff	Y: 1e	SP: ff
c7bc	c7b9	BNE	A: 0	X: ff	Y: 1d	SP: ff
c7b9	11d	STA	A: 0	X: ff	Y: 1d	SP: ff
c7bb	0	DEY	A: 0	X: ff	Y: 1d	SP: ff
c7bc	c7b9	BNE	A: 0	X: ff	Y: 1c	SP: ff
c7b9	11c	STA	A: 0	X: ff	Y: 1c	SP: ff
c7bb	0	DEY	A: 0	X: ff	Y: 1c	SP: ff
c7bc	c7b9	BNE	A: 0	X: ff	Y: 1b	SP: ff
c7b9	11b	STA	A: 0	X: ff	Y: 1b	SP: ff
c7bb	0	DEY	A: 0	X: ff	Y: 1b	SP: ff
c7bc	c7b9	BNE	A: 0	X: ff	Y: 1a	SP: ff
c7b9	11a	STA	A: 0	X: ff	Y: 1a	SP: ff
c7bb	0	DEY	A: 0	X: ff	Y: 1a	SP: ff
c7bc	c7b9	BNE	A: 0	X: ff	Y: 19	SP: ff
c7b9	119	STA	A: 0	X: ff	Y: 19	SP: ff
c7bb	0	DEY	A: 0	X: ff	Y: 19	SP: ff
c7bc	c7b9	BNE	A: 0	X: ff	Y: 18	SP: ff
c7b9	118	STA	A: 0	X: ff	Y: 18	SP: ff
c7bb	0	DEY	A: 0	X: ff	Y: 18	SP: ff
c7bc	c7b9	BNE	A: 0	X: ff	Y: 17	SP: ff
c7b9	117	STA	A: 0	X: ff	Y: 17	SP: ff
c7bb	0	DEY	A: 0	X: ff	Y: 17	SP: ff
c7bc	c7b9	BNE	A: 0	X: ff	Y: 16	SP: ff
c7b9	116	STA	A: 0	X: ff	Y: 16	SP: ff
c7bb	0	DEY	A: 0	X: ff	Y: 16	SP: ff
c7bc	c7b9	BNE	A: 0	X: ff	Y: 15	SP: ff
c7b9	115	STA	A: 0	X: ff	Y: 15	SP: ff
c7bb	0	DEY	A: 0	X: ff	Y: 15	SP: ff
c7bc	c7b9	BNE	A: 0	X: ff	Y: 14	SP: ff
c7b9	114	STA	A: 0	X: ff	Y: 14	SP: ff
c7bb	0	DEY	A: 0	X: ff	Y: 14	SP: ff
c7bc	c7b9	BNE	A: 0	X: ff	Y: 13	SP: ff
c7b9	113	STA	A: 0	X: ff	Y: 13	SP: ff
c7bb	0	DEY	A: 0	X: ff	Y: 13	SP: ff
c7bc	c7b9	BNE	A: 0	X: ff	Y: 12	SP: ff
c7b9	112	STA	A: 0	X: ff	Y: 12	SP: ff
c7bb	0	DEY	A: 0	X: ff	Y: 12	SP: ff
c7bc	c7b9	BNE	A: 0	X: ff	Y: 11	SP: ff
c7b9	111	STA	A: 0	X: ff	Y: 11	SP: ff
c7bb	0	DEY	A: 0	X: ff	Y: 11	SP: ff
c7bc	c7b9	BNE	A: 0	X: ff	Y: 10	SP: ff
c7b9	110	STA	A: 0	X: ff	Y: 10	SP: ff
c7bb	0	DEY	A: 0	X: ff	Y: 10	SP: ff
c7bc	c7b9	BNE	A: 0	X: ff	Y: f	SP: ff
c7b9	10f	STA	A: 0	X: ff	Y: f	SP: ff
c7bb	0	DEY	A: 0	X: ff	Y: f	SP: ff
c7bc	c7b9	BNE	A: 0	X: ff	Y: e	SP: ff
c7b9	10e	STA	A: 0	X: ff	Y: e	SP: ff
c7bb	0	DEY	A: 0	X: ff	Y: e	SP: ff
c7bc	c7b9	BNE	A: 0	X: ff	Y: d	SP: ff
c7b9	10d	STA	A: 0	X: ff	Y: d	SP: ff
c7bb	0	DEY	A: 0	X: ff	Y: d	SP: ff
c7bc	c7b9	BNE	A: 0	X: ff	Y: c	SP: ff
c7b9	10c	STA	A: 0	X: ff	Y: c	SP: ff
c7bb	0	DEY	A: 0	X: ff	Y: c	SP: ff
c7bc	c7b9	BNE	A: 0	X: ff	Y: b	SP: ff
c7b9	10b	STA	A: 0	X: ff	Y: b	SP: ff
c7bb	0	DEY	A: 0	X: ff	Y: b	SP: ff
c7bc	c7b9	BNE	A: 0	X: ff	Y: a	SP: ff
c7b9	10a	STA	A: 0	X: ff	Y: a	SP: ff
c7bb	0	DEY	A: 0	X: ff	Y: a	SP: ff
c7bc	c7b9	BNE	A: 0	X: ff	Y: 9	SP: ff
c7b9	109	STA	A: 0	X: ff	Y: 9	SP: ff
c7bb	0	DEY	A: 0	X: ff	Y: 9	SP: ff
c7bc	c7b9	BNE	A: 0	X: ff	Y: 8	SP: ff
c7b9	108	STA	A: 0	X: ff	Y: 8	SP: ff
c7bb	0	DEY	A: 0	X: ff	Y: 8	SP: ff
c7bc	c7b9	BNE	A: 0	X: ff	Y: 7	SP: ff
c7b9	107	STA	A: 0	X: ff	Y: 7	SP: ff
c7bb	0	DEY	A: 0	X: ff	Y: 7	SP: ff
c7bc	c7b9	BNE	A: 0	X: ff	Y: 6	SP: ff
c7b9	106	STA	A: 0	X: ff	Y: 6	SP: ff
c7bb	0	DEY	A: 0	X: ff	Y: 6	SP: ff
c7bc	c7b9	BNE	A: 0	X: ff	Y: 5	SP: ff
c7b9	105	STA	A: 0	X: ff	Y: 5	SP: ff
c7bb	0	DEY	A: 0	X: ff	Y: 5	SP: ff
c7bc	c7b9	BNE	A: 0	X: ff	Y: 4	SP: ff
c7b9	104	STA	A: 0	X: ff	Y: 4	SP: ff
c7bb	0	DEY	A: 0	X: ff	Y: 4	SP: ff
c7bc	c7b9	BNE	A: 0	X: ff	Y: 3	SP: ff
c7b9	103	STA	A: 0	X: ff	Y: 3	SP: ff
c7bb	0	DEY	A: 0	X: ff	Y: 3	SP: ff
c7bc	c7b9	BNE	A: 0	X: ff	Y: 2	SP: ff
c7b9	102	STA	A: 0	X: ff	Y: 2	SP: ff
c7bb	0	DEY	A: 0	X: ff	Y: 2	SP: ff
c7bc	c7b9	BNE	A: 0	X: ff	Y: 1	SP: ff
c7b9	101	STA	A: 0	X: ff	Y: 1	SP: ff
c7bb	0	DEY	A: 0	X: ff	Y: 1	SP: ff
c7bc	c7b9	BNE	A: 0	X: ff	Y: 0	SP: ff
c7be	1	DEC	A: 0	X: ff	Y: 0	SP: ff
c7c0	c7b9	BPL	A: 0	X: ff	Y: 0	SP: ff
c7b9	0	STA	A: 0	X: ff	Y: 0	SP: ff
c7bb	0	DEY	A: 0	X: ff	Y: 0	SP: ff
c7bc	c7b9	BNE	A: 0	X: ff	Y: ff	SP: ff
c7b9	ff	STA	A: 0	X: ff	Y: ff	SP: ff
c7bb	0	DEY	A: 0	X: ff	Y: ff	SP: ff
c7bc	c7b9	BNE	A: 0	X: ff	Y: fe	SP: ff
c7b9	fe	STA	A: 0	X: ff	Y: fe	SP: ff
c7bb	0	DEY	A: 0	X: ff	Y: fe	SP: ff
c7bc	c7b9	BNE	A: 0	X: ff	Y: fd	SP: ff
c7b9	fd	STA	A: 0	X: ff	Y: fd	SP: ff
c7bb	0	DEY	A: 0	X: ff	Y: fd	SP: ff
c7bc	c7b9	BNE	A: 0	X: ff	Y: fc	SP: ff
c7b9	fc	STA	A: 0	X: ff	Y: fc	SP: ff
c7bb	0	DEY	A: 0	X: ff	Y: fc	SP: ff
c7bc	c7b9	BNE	A: 0	X: ff	Y: fb	SP: ff
c7b9	fb	STA	A: 0	X: ff	Y: fb	SP: ff
c7bb	0	DEY	A: 0	X: ff	Y: fb	SP: ff
c7bc	c7b9	BNE	A: 0	X: ff	Y: fa	SP: ff
c7b9	fa	STA	A: 0	X: ff	Y: fa	SP: ff
c7bb	0	DEY	A: 0	X: ff	Y: fa	SP: ff
c7bc	c7b9	BNE	A: 0	X: ff	Y: f9	SP: ff
c7b9	f9	STA	A: 0	X: ff	Y: f9	SP: ff
c7bb	0	DEY	A: 0	X: ff	Y: f9	SP: ff
c7bc	c7b9	BNE	A: 0	X: ff	Y: f8	SP: ff
c7b9	f8	STA	A: 0	X: ff	Y: f8	SP: ff
c7bb	0	DEY	A: 0	X: ff	Y: f8	SP: ff
c7bc	c7b9	BNE	A: 0	X: ff	Y: f7	SP: ff
c7b9	f7	STA	A: 0	X: ff	Y: f7	SP: ff
c7bb	0	DEY	A: 0	X: ff	Y: f7	SP: ff
c7bc	c7b9	BNE	A: 0	X: ff	Y: f6	SP: ff
c7b9	f6	STA	A: 0	X: ff	Y: f6	SP: ff
c7bb	0	DEY	A: 0	X: ff	Y: f6	SP: ff
c7bc	c7b9	BNE	A: 0	X: ff	Y: f5	SP: ff
c7b9	f5	STA	A: 0	X: ff	Y: f5	SP: ff
c7bb	0	DEY	A: 0	X: ff	Y: f5	SP: ff
c7bc	c7b9	BNE	A: 0	X: ff	Y: f4	SP: ff
c7b9	f4	STA	A: 0	X: ff	Y: f4	SP: ff
c7bb	0	DEY	A: 0	X: ff	Y: f4	SP: ff
c7bc	c7b9	BNE	A: 0	X: ff	Y: f3	SP: ff
c7b9	f3	STA	A: 0	X: ff	Y: f3	SP: ff
c7bb	0	DEY	A: 0	X: ff	Y: f3	SP: ff
c7bc	c7b9	BNE	A: 0	X: ff	Y: f2	SP: ff
c7b9	f2	STA	A: 0	X: ff	Y: f2	SP: ff
c7bb	0	DEY	A: 0	X: ff	Y: f2	SP: ff
c7bc	c7b9	BNE	A: 0	X: ff	Y: f1	SP: ff
c7b9	f1	STA	A: 0	X: ff	Y: f1	SP: ff
c7bb	0	DEY	A: 0	X: ff	Y: f1	SP: ff
c7bc	c7b9	BNE	A: 0	X: ff	Y: f0	SP: ff
c7b9	f0	STA	A: 0	X: ff	Y: f0	SP: ff
c7bb	0	DEY	A: 0	X: ff	Y: f0	SP: ff
c7bc	c7b9	BNE	A: 0	X: ff	Y: ef	SP: ff
c7b9	ef	STA	A: 0	X: ff	Y: ef	SP: ff
c7bb	0	DEY	A: 0	X: ff	Y: ef	SP: ff
c7bc	c7b9	BNE	A: 0	X: ff	Y: ee	SP: ff
c7b9	ee	STA	A: 0	X: ff	Y: ee	SP: ff
c7bb	0	DEY	A: 0	X: ff	Y: ee	SP: ff
c7bc	c7b9	BNE	A: 0	X: ff	Y: ed	SP: ff
c7b9	ed	STA	A: 0	X: ff	Y: ed	SP: ff
c7bb	0	DEY	A: 0	X: ff	Y: ed	SP: ff
c7bc	c7b9	BNE	A: 0	X: ff	Y: ec	SP: ff
c7b9	ec	STA	A: 0	X: ff	Y: ec	SP: ff
c7bb	0	DEY	A: 0	X: ff	Y: ec	SP: ff
c7bc	c7b9	BNE	A: 0	X: ff	Y: eb	SP: ff
c7b9	eb	STA	A: 0	X: ff	Y: eb	SP: ff
c7bb	0	DEY	A: 0	X: ff	Y: eb	SP: ff
c7bc	c7b9	BNE	A: 0	X: ff	Y: ea	SP: ff
c7b9	ea	STA	A: 0	X: ff	Y: ea	SP: ff
c7bb	0	DEY	A: 0	X: ff	Y: ea	SP: ff
c7bc	c7b9	BNE	A: 0	X: ff	Y: e9	SP: ff
c7b9	e9	STA	A: 0	X: ff	Y: e9	SP: ff
c7bb	0	DEY	A: 0	X: ff	Y: e9	SP: ff
c7bc	c7b9	BNE	A: 0	X: ff	Y: e8	SP: ff
c7b9	e8	STA	A: 0	X: ff	Y: e8	SP: ff
c7bb	0	DEY	A: 0	X: ff	Y: e8	SP: ff
c7bc	c7b9	BNE	A: 0	X: ff	Y: e7	SP: ff
c7b9	e7	STA	A: 0	X: ff	Y: e7	SP: ff
c7bb	0	DEY	A: 0	X: ff	Y: e7	SP: ff
c7bc	c7b9	BNE	A: 0	X: ff	Y: e6	SP: ff
c7b9	e6	STA	A: 0	X: ff	Y: e6	SP: ff
c7bb	0	DEY	A: 0	X: ff	Y: e6	SP: ff
c7bc	c7b9	BNE	A: 0	X: ff	Y: e5	SP: ff
c7b9	e5	STA	A: 0	X: ff	Y: e5	SP: ff
c7bb	0	DEY	A: 0	X: ff	Y: e5	SP: ff
c7bc	c7b9	BNE	A: 0	X: ff	Y: e4	SP: ff
c7b9	e4	STA	A: 0	X: ff	Y: e4	SP: ff
c7bb	0	DEY	A: 0	X: ff	Y: e4	SP: ff
c7bc	c7b9	BNE	A: 0	X: ff	Y: e3	SP: ff
c7b9	e3	STA	A: 0	X: ff	Y: e3	SP: ff
c7bb	0	DEY	A: 0	X: ff	Y: e3	SP: ff
c7bc	c7b9	BNE	A: 0	X: ff	Y: e2	SP: ff
c7b9	e2	STA	A: 0	X: ff	Y: e2	SP: ff
c7bb	0	DEY	A: 0	X: ff	Y: e2	SP: ff
c7bc	c7b9	BNE	A: 0	X: ff	Y: e1	SP: ff
c7b9	e1	STA	A: 0	X: ff	Y: e1	SP: ff
c7bb	0	DEY	A: 0	X: ff	Y: e1	SP: ff
c7bc	c7b9	BNE	A: 0	X: ff	Y: e0	SP: ff
c7b9	e0	STA	A: 0	X: ff	Y: e0	SP: ff
c7bb	0	DEY	A: 0	X: ff	Y: e0	SP: ff
c7bc	c7b9	BNE	A: 0	X: ff	Y: df	SP: ff
c7b9	df	STA	A: 0	X: ff	Y: df	SP: ff
c7bb	0	DEY	A: 0	X: ff	Y: df	SP: ff
c7bc	c7b9	BNE	A: 0	X: ff	Y: de	SP: ff
c7b9	de	STA	A: 0	X: ff	Y: de	SP: ff
c7bb	0	DEY	A: 0	X: ff	Y: de	SP: ff
c7bc	c7b9	BNE	A: 0	X: ff	Y: dd	SP: ff
c7b9	dd	STA	A: 0	X: ff	Y: dd	SP: ff
c7bb	0	DEY	A: 0	X: ff	Y: dd	SP: ff
c7bc	c7b9	BNE	A: 0	X: ff	Y: dc	SP: ff
c7b9	dc	STA	A: 0	X: ff	Y: dc	SP: ff
c7bb	0	DEY	A: 0	X: ff	Y: dc	SP: ff
c7bc	c7b9	BNE	A: 0	X: ff	Y: db	SP: ff
c7b9	db	STA	A: 0	X: ff	Y: db	SP: ff
c7bb	0	DEY	A: 0	X: ff	Y: db	SP: ff
c7bc	c7b9	BNE	A: 0	X: ff	Y: da	SP: ff
c7b9	da	STA	A: 0	X: ff	Y: da	SP: ff
c7bb	0	DEY	A: 0	X: ff	Y: da	SP: ff
c7bc	c7b9	BNE	A: 0	X: ff	Y: d9	SP: ff
c7b9	d9	STA	A: 0	X: ff	Y: d9	SP: ff
c7bb	0	DEY	A: 0	X: ff	Y: d9	SP: ff
c7bc	c7b9	BNE	A: 0	X: ff	Y: d8	SP: ff
c7b9	d8	STA	A: 0	X: ff	Y: d8	SP: ff
c7bb	0	DEY	A: 0	X: ff	Y: d8	SP: ff
c7bc	c7b9	BNE	A: 0	X: ff	Y: d7	SP: ff
c7b9	d7	STA	A: 0	X: ff	Y: d7	SP: ff
c7bb	0	DEY	A: 0	X: ff	Y: d7	SP: ff
c7bc	c7b9	BNE	A: 0	X: ff	Y: d6	SP: ff
c7b9	d6	STA	A: 0	X: ff	Y: d6	SP: ff
c7bb	0	DEY	A: 0	X: ff	Y: d6	SP: ff
c7bc	c7b9	BNE	A: 0	X: ff	Y: d5	SP: ff
c7b9	d5	STA	A: 0	X: ff	Y: d5	SP: ff
c7bb	0	DEY	A: 0	X: ff	Y: d5	SP: ff
c7bc	c7b9	BNE	A: 0	X: ff	Y: d4	SP: ff
c7b9	d4	STA	A: 0	X: ff	Y: d4	SP: ff
c7bb	0	DEY	A: 0	X: ff	Y: d4	SP: ff
c7bc	c7b9	BNE	A: 0	X: ff	Y: d3	SP: ff
c7b9	d3	STA	A: 0	X: ff	Y: d3	SP: ff
c7bb	0	DEY	A: 0	X: ff	Y: d3	SP: ff
c7bc	c7b9	BNE	A: 0	X: ff	Y: d2	SP: ff
c7b9	d2	STA	A: 0	X: ff	Y: d2	SP: ff
c7bb	0	DEY	A: 0	X: ff	Y: d2	SP: ff
c7bc	c7b9	BNE	A: 0	X: ff	Y: d1	SP: ff
c7b9	d1	STA	A: 0	X: ff	Y: d1	SP: ff
c7bb	0	DEY	A: 0	X: ff	Y: d1	SP: ff
c7bc	c7b9	BNE	A: 0	X: ff	Y: d0	SP: ff
c7b9	d0	STA	A: 0	X: ff	Y: d0	SP: ff
c7bb	0	DEY	A: 0	X: ff	Y: d0	SP: ff
c7bc	c7b9	BNE	A: 0	X: ff	Y: cf	SP: ff
c7b9	cf	STA	A: 0	X: ff	Y: cf	SP: ff
c7bb	0	DEY	A: 0	X: ff	Y: cf	SP: ff
c7bc	c7b9	BNE	A: 0	X: ff	Y: ce	SP: ff
c7b9	ce	STA	A: 0	X: ff	Y: ce	SP: ff
c7bb	0	DEY	A: 0	X: ff	Y: ce	SP: ff
c7bc	c7b9	BNE	A: 0	X: ff	Y: cd	SP: ff
c7b9	cd	STA	A: 0	X: ff	Y: cd	SP: ff
c7bb	0	DEY	A: 0	X: ff	Y: cd	SP: ff
c7bc	c7b9	BNE	A: 0	X: ff	Y: cc	SP: ff
c7b9	cc	STA	A: 0	X: ff	Y: cc	SP: ff
c7bb	0	DEY	A: 0	X: ff	Y: cc	SP: ff
c7bc	c7b9	BNE	A: 0	X: ff	Y: cb	SP: ff
c7b9	cb	STA	A: 0	X: ff	Y: cb	SP: ff
c7bb	0	DEY	A: 0	X: ff	Y: cb	SP: ff
c7bc	c7b9	BNE	A: 0	X: ff	Y: ca	SP: ff
c7b9	ca	STA	A: 0	X: ff	Y: ca	SP: ff
c7bb	0	DEY	A: 0	X: ff	Y: ca	SP: ff
c7bc	c7b9	BNE	A: 0	X: ff	Y: c9	SP: ff
c7b9	c9	STA	A: 0	X: ff	Y: c9	SP: ff
c7bb	0	DEY	A: 0	X: ff	Y: c9	SP: ff
c7bc	c7b9	BNE	A: 0	X: ff	Y: c8	SP: ff
c7b9	c8	STA	A: 0	X: ff	Y: c8	SP: ff
c7bb	0	DEY	A: 0	X: ff	Y: c8	SP: ff
c7bc	c7b9	BNE	A: 0	X: ff	Y: c7	SP: ff
c7b9	c7	STA	A: 0	X: ff	Y: c7	SP: ff
c7bb	0	DEY	A: 0	X: ff	Y: c7	SP: ff
c7bc	c7b9	BNE	A: 0	X: ff	Y: c6	SP: ff
c7b9	c6	STA	A: 0	X: ff	Y: c6	SP: ff
c7bb	0	DEY	A: 0	X: ff	Y: c6	SP: ff
c7bc	c7b9	BNE	A: 0	X: ff	Y: c5	SP: ff
c7b9	c5	STA	A: 0	X: ff	Y: c5	SP: ff
c7bb	0	DEY	A: 0	X: ff	Y: c5	SP: ff
c7bc	c7b9	BNE	A: 0	X: ff	Y: c4	SP: ff
c7b9	c4	STA	A: 0	X: ff	Y: c4	SP: ff
c7bb	0	DEY	A: 0	X: ff	Y: c4	SP: ff
c7bc	c7b9	BNE	A: 0	X: ff	Y: c3	SP: ff
c7b9	c3	STA	A: 0	X: ff	Y: c3	SP: ff
c7bb	0	DEY	A: 0	X: ff	Y: c3	SP: ff
c7bc	c7b9	BNE	A: 0	X: ff	Y: c2	SP: ff
c7b9	c2	STA	A: 0	X: ff	Y: c2	SP: ff
c7bb	0	DEY	A: 0	X: ff	Y: c2	SP: ff
c7bc	c7b9	BNE	A: 0	X: ff	Y: c1	SP: ff
c7b9	c1	STA	A: 0	X: ff	Y: c1	SP: ff
c7bb	0	DEY	A: 0	X: ff	Y: c1	SP: ff
c7bc	c7b9	BNE	A: 0	X: ff	Y: c0	SP: ff
c7b9	c0	STA	A: 0	X: ff	Y: c0	SP: ff
c7bb	0	DEY	A: 0	X: ff	Y: c0	SP: ff
c7bc	c7b9	BNE	A: 0	X: ff	Y: bf	SP: ff
c7b9	bf	STA	A: 0	X: ff	Y: bf	SP: ff
c7bb	0	DEY	A: 0	X: ff	Y: bf	SP: ff
c7bc	c7b9	BNE	A: 0	X: ff	Y: be	SP: ff
c7b9	be	STA	A: 0	X: ff	Y: be	SP: ff
c7bb	0	DEY	A: 0	X: ff	Y: be	SP: ff
c7bc	c7b9	BNE	A: 0	X: ff	Y: bd	SP: ff
c7b9	bd	STA	A: 0	X: ff	Y: bd	SP: ff
c7bb	0	DEY	A: 0	X: ff	Y: bd	SP: ff
c7bc	c7b9	BNE	A: 0	X: ff	Y: bc	SP: ff
c7b9	bc	STA	A: 0	X: ff	Y: bc	SP: ff
c7bb	0	DEY	A: 0	X: ff	Y: bc	SP: ff
c7bc	c7b9	BNE	A: 0	X: ff	Y: bb	SP: ff
c7b9	bb	STA	A: 0	X: ff	Y: bb	SP: ff
c7bb	0	DEY	A: 0	X: ff	Y: bb	SP: ff
c7bc	c7b9	BNE	A: 0	X: ff	Y: ba	SP: ff
c7b9	ba	STA	A: 0	X: ff	Y: ba	SP: ff
c7bb	0	DEY	A: 0	X: ff	Y: ba	SP: ff
c7bc	c7b9	BNE	A: 0	X: ff	Y: b9	SP: ff
c7b9	b9	STA	A: 0	X: ff	Y: b9	SP: ff
c7bb	0	DEY	A: 0	X: ff	Y: b9	SP: ff
c7bc	c7b9	BNE	A: 0	X: ff	Y: b8	SP: ff
c7b9	b8	STA	A: 0	X: ff	Y: b8	SP: ff
c7bb	0	DEY	A: 0	X: ff	Y: b8	SP: ff
c7bc	c7b9	BNE	A: 0	X: ff	Y: b7	SP: ff
c7b9	b7	STA	A: 0	X: ff	Y: b7	SP: ff
c7bb	0	DEY	A: 0	X: ff	Y: b7	SP: ff
c7bc	c7b9	BNE	A: 0	X: ff	Y: b6	SP: ff
c7b9	b6	STA	A: 0	X: ff	Y: b6	SP: ff
c7bb	0	DEY	A: 0	X: ff	Y: b6	SP: ff
c7bc	c7b9	BNE	A: 0	X: ff	Y: b5	SP: ff
c7b9	b5	STA	A: 0	X: ff	Y: b5	SP: ff
c7bb	0	DEY	A: 0	X: ff	Y: b5	SP: ff
c7bc	c7b9	BNE	A: 0	X: ff	Y: b4	SP: ff
c7b9	b4	STA	A: 0	X: ff	Y: b4	SP: ff
c7bb	0	DEY	A: 0	X: ff	Y: b4	SP: ff
c7bc	c7b9	BNE	A: 0	X: ff	Y: b3	SP: ff
c7b9	b3	STA	A: 0	X: ff	Y: b3	SP: ff
c7bb	0	DEY	A: 0	X: ff	Y: b3	SP: ff
c7bc	c7b9	BNE	A: 0	X: ff	Y: b2	SP: ff
c7b9	b2	STA	A: 0	X: ff	Y: b2	SP: ff
c7bb	0	DEY	A: 0	X: ff	Y: b2	SP: ff
c7bc	c7b9	BNE	A: 0	X: ff	Y: b1	SP: ff
c7b9	b1	STA	A: 0	X: ff	Y: b1	SP: ff
c7bb	0	DEY	A: 0	X: ff	Y: b1	SP: ff
c7bc	c7b9	BNE	A: 0	X: ff	Y: b0	SP: ff
c7b9	b0	STA	A: 0	X: ff	Y: b0	SP: ff
c7bb	0	DEY	A: 0	X: ff	Y: b0	SP: ff
c7bc	c7b9	BNE	A: 0	X: ff	Y: af	SP: ff
c7b9	af	STA	A: 0	X: ff	Y: af	SP: ff
c7bb	0	DEY	A: 0	X: ff	Y: af	SP: ff
c7bc	c7b9	BNE	A: 0	X: ff	Y: ae	SP: ff
c7b9	ae	STA	A: 0	X: ff	Y: ae	SP: ff
c7bb	0	DEY	A: 0	X: ff	Y: ae	SP: ff
c7bc	c7b9	BNE	A: 0	X: ff	Y: ad	SP: ff
c7b9	ad	STA	A: 0	X: ff	Y: ad	SP: ff
c7bb	0	DEY	A: 0	X: ff	Y: ad	SP: ff
c7bc	c7b9	BNE	A: 0	X: ff	Y: ac	SP: ff
c7b9	ac	STA	A: 0	X: ff	Y: ac	SP: ff
c7bb	0	DEY	A: 0	X: ff	Y: ac	SP: ff
c7bc	c7b9	BNE	A: 0	X: ff	Y: ab	SP: ff
c7b9	ab	STA	A: 0	X: ff	Y: ab	SP: ff
c7bb	0	DEY	A: 0	X: ff	Y: ab	SP: ff
c7bc	c7b9	BNE	A: 0	X: ff	Y: aa	SP: ff
c7b9	aa	STA	A: 0	X: ff	Y: aa	SP: ff
c7bb	0	DEY	A: 0	X: ff	Y: aa	SP: ff
c7bc	c7b9	BNE	A: 0	X: ff	Y: a9	SP: ff
c7b9	a9	STA	A: 0	X: ff	Y: a9	SP: ff
c7bb	0	DEY	A: 0	X: ff	Y: a9	SP: ff
c7bc	c7b9	BNE	A: 0	X: ff	Y: a8	SP: ff
c7b9	a8	STA	A: 0	X: ff	Y: a8	SP: ff
c7bb	0	DEY	A: 0	X: ff	Y: a8	SP: ff
c7bc	c7b9	BNE	A: 0	X: ff	Y: a7	SP: ff
c7b9	a7	STA	A: 0	X: ff	Y: a7	SP: ff
c7bb	0	DEY	A: 0	X: ff	Y: a7	SP: ff
c7bc	c7b9	BNE	A: 0	X: ff	Y: a6	SP: ff
c7b9	a6	STA	A: 0	X: ff	Y: a6	SP: ff
c7bb	0	DEY	A: 0	X: ff	Y: a6	SP: ff
c7bc	c7b9	BNE	A: 0	X: ff	Y: a5	SP: ff
c7b9	a5	STA	A: 0	X: ff	Y: a5	SP: ff
c7bb	0	DEY	A: 0	X: ff	Y: a5	SP: ff
c7bc	c7b9	BNE	A: 0	X: ff	Y: a4	SP: ff
c7b9	a4	STA	A: 0	X: ff	Y: a4	SP: ff
c7bb	0	DEY	A: 0	X: ff	Y: a4	SP: ff
c7bc	c7b9	BNE	A: 0	X: ff	Y: a3	SP: ff
c7b9	a3	STA	A: 0	X: ff	Y: a3	SP: ff
c7bb	0	DEY	A: 0	X: ff	Y: a3	SP: ff
c7bc	c7b9	BNE	A: 0	X: ff	Y: a2	SP: ff
c7b9	a2	STA	A: 0	X: ff	Y: a2	SP: ff
c7bb	0	DEY	A: 0	X: ff	Y: a2	SP: ff
c7bc	c7b9	BNE	A: 0	X: ff	Y: a1	SP: ff
c7b9	a1	STA	A: 0	X: ff	Y: a1	SP: ff
c7bb	0	DEY	A: 0	X: ff	Y: a1	SP: ff
c7bc	c7b9	BNE	A: 0	X: ff	Y: a0	SP: ff
c7b9	a0	STA	A: 0	X: ff	Y: a0	SP: ff
c7bb	0	DEY	A: 0	X: ff	Y: a0	SP: ff
c7bc	c7b9	BNE	A: 0	X: ff	Y: 9f	SP: ff
c7b9	9f	STA	A: 0	X: ff	Y: 9f	SP: ff
c7bb	0	DEY	A: 0	X: ff	Y: 9f	SP: ff
c7bc	c7b9	BNE	A: 0	X: ff	Y: 9e	SP: ff
c7b9	9e	STA	A: 0	X: ff	Y: 9e	SP: ff
c7bb	0	DEY	A: 0	X: ff	Y: 9e	SP: ff
c7bc	c7b9	BNE	A: 0	X: ff	Y: 9d	SP: ff
c7b9	9d	STA	A: 0	X: ff	Y: 9d	SP: ff
c7bb	0	DEY	A: 0	X: ff	Y: 9d	SP: ff
c7bc	c7b9	BNE	A: 0	X: ff	Y: 9c	SP: ff
c7b9	9c	STA	A: 0	X: ff	Y: 9c	SP: ff
c7bb	0	DEY	A: 0	X: ff	Y: 9c	SP: ff
c7bc	c7b9	BNE	A: 0	X: ff	Y: 9b	SP: ff
c7b9	9b	STA	A: 0	X: ff	Y: 9b	SP: ff
c7bb	0	DEY	A: 0	X: ff	Y: 9b	SP: ff
c7bc	c7b9	BNE	A: 0	X: ff	Y: 9a	SP: ff
c7b9	9a	STA	A: 0	X: ff	Y: 9a	SP: ff
c7bb	0	DEY	A: 0	X: ff	Y: 9a	SP: ff
c7bc	c7b9	BNE	A: 0	X: ff	Y: 99	SP: ff
c7b9	99	STA	A: 0	X: ff	Y: 99	SP: ff
c7bb	0	DEY	A: 0	X: ff	Y: 99	SP: ff
c7bc	c7b9	BNE	A: 0	X: ff	Y: 98	SP: ff
c7b9	98	STA	A: 0	X: ff	Y: 98	SP: ff
c7bb	0	DEY	A: 0	X: ff	Y: 98	SP: ff
c7bc	c7b9	BNE	A: 0	X: ff	Y: 97	SP: ff
c7b9	97	STA	A: 0	X: ff	Y: 97	SP: ff
c7bb	0	DEY	A: 0	X: ff	Y: 97	SP: ff
c7bc	c7b9	BNE	A: 0	X: ff	Y: 96	SP: ff
c7b9	96	STA	A: 0	X: ff	Y: 96	SP: ff
c7bb	0	DEY	A: 0	X: ff	Y: 96	SP: ff
c7bc	c7b9	BNE	A: 0	X: ff	Y: 95	SP: ff
c7b9	95	STA	A: 0	X: ff	Y: 95	SP: ff
c7bb	0	DEY	A: 0	X: ff	Y: 95	SP: ff
c7bc	c7b9	BNE	A: 0	X: ff	Y: 94	SP: ff
c7b9	94	STA	A: 0	X: ff	Y: 94	SP: ff
c7bb	0	DEY	A: 0	X: ff	Y: 94	SP: ff
c7bc	c7b9	BNE	A: 0	X: ff	Y: 93	SP: ff
c7b9	93	STA	A: 0	X: ff	Y: 93	SP: ff
c7bb	0	DEY	A: 0	X: ff	Y: 93	SP: ff
c7bc	c7b9	BNE	A: 0	X: ff	Y: 92	SP: ff
c7b9	92	STA	A: 0	X: ff	Y: 92	SP: ff
c7bb	0	DEY	A: 0	X: ff	Y: 92	SP: ff
c7bc	c7b9	BNE	A: 0	X: ff	Y: 91	SP: ff
c7b9	91	STA	A: 0	X: ff	Y: 91	SP: ff
c7bb	0	DEY	A: 0	X: ff	Y: 91	SP: ff
c7bc	c7b9	BNE	A: 0	X: ff	Y: 90	SP: ff
c7b9	90	STA	A: 0	X: ff	Y: 90	SP: ff
c7bb	0	DEY	A: 0	X: ff	Y: 90	SP: ff
c7bc	c7b9	BNE	A: 0	X: ff	Y: 8f	SP: ff
c7b9	8f	STA	A: 0	X: ff	Y: 8f	SP: ff
c7bb	0	DEY	A: 0	X: ff	Y: 8f	SP: ff
c7bc	c7b9	BNE	A: 0	X: ff	Y: 8e	SP: ff
c7b9	8e	STA	A: 0	X: ff	Y: 8e	SP: ff
c7bb	0	DEY	A: 0	X: ff	Y: 8e	SP: ff
c7bc	c7b9	BNE	A: 0	X: ff	Y: 8d	SP: ff
c7b9	8d	STA	A: 0	X: ff	Y: 8d	SP: ff
c7bb	0	DEY	A: 0	X: ff	Y: 8d	SP: ff
c7bc	c7b9	BNE	A: 0	X: ff	Y: 8c	SP: ff
c7b9	8c	STA	A: 0	X: ff	Y: 8c	SP: ff
c7bb	0	DEY	A: 0	X: ff	Y: 8c	SP: ff
c7bc	c7b9	BNE	A: 0	X: ff	Y: 8b	SP: ff
c7b9	8b	STA	A: 0	X: ff	Y: 8b	SP: ff
c7bb	0	DEY	A: 0	X: ff	Y: 8b	SP: ff
c7bc	c7b9	BNE	A: 0	X: ff	Y: 8a	SP: ff
c7b9	8a	STA	A: 0	X: ff	Y: 8a	SP: ff
c7bb	0	DEY	A: 0	X: ff	Y: 8a	SP: ff
c7bc	c7b9	BNE	A: 0	X: ff	Y: 89	SP: ff
c7b9	89	STA	A: 0	X: ff	Y: 89	SP: ff
c7bb	0	DEY	A: 0	X: ff	Y: 89	SP: ff
c7bc	c7b9	BNE	A: 0	X: ff	Y: 88	SP: ff
c7b9	88	STA	A: 0	X: ff	Y: 88	SP: ff
c7bb	0	DEY	A: 0	X: ff	Y: 88	SP: ff
c7bc	c7b9	BNE	A: 0	X: ff	Y: 87	SP: ff
c7b9	87	STA	A: 0	X: ff	Y: 87	SP: ff
c7bb	0	DEY	A: 0	X: ff	Y: 87	SP: ff
c7bc	c7b9	BNE	A: 0	X: ff	Y: 86	SP: ff
c7b9	86	STA	A: 0	X: ff	Y: 86	SP: ff
c7bb	0	DEY	A: 0	X: ff	Y: 86	SP: ff
c7bc	c7b9	BNE	A: 0	X: ff	Y: 85	SP: ff
c7b9	85	STA	A: 0	X: ff	Y: 85	SP: ff
c7bb	0	DEY	A: 0	X: ff	Y: 85	SP: ff
c7bc	c7b9	BNE	A: 0	X: ff	Y: 84	SP: ff
c7b9	84	STA	A: 0	X: ff	Y: 84	SP: ff
c7bb	0	DEY	A: 0	X: ff	Y: 84	SP: ff
c7bc	c7b9	BNE	A: 0	X: ff	Y: 83	SP: ff
c7b9	83	STA	A: 0	X: ff	Y: 83	SP: ff
c7bb	0	DEY	A: 0	X: ff	Y: 83	SP: ff
c7bc	c7b9	BNE	A: 0	X: ff	Y: 82	SP: ff
c7b9	82	STA	A: 0	X: ff	Y: 82	SP: ff
c7bb	0	DEY	A: 0	X: ff	Y: 82	SP: ff
c7bc	c7b9	BNE	A: 0	X: ff	Y: 81	SP: ff
c7b9	81	STA	A: 0	X: ff	Y: 81	SP: ff
c7bb	0	DEY	A: 0	X: ff	Y: 81	SP: ff
c7bc	c7b9	BNE	A: 0	X: ff	Y: 80	SP: ff
c7b9	80	STA	A: 0	X: ff	Y: 80	SP: ff
c7bb	0	DEY	A: 0	X: ff	Y: 80	SP: ff
c7bc	c7b9	BNE	A: 0	X: ff	Y: 7f	SP: ff
c7b9	7f	STA	A: 0	X: ff	Y: 7f	SP: ff
c7bb	0	DEY	A: 0	X: ff	Y: 7f	SP: ff
c7bc	c7b9	BNE	A: 0	X: ff	Y: 7e	SP: ff
c7b9	7e	STA	A: 0	X: ff	Y: 7e	SP: ff
c7bb	0	DEY	A: 0	X: ff	Y: 7e	SP: ff
c7bc	c7b9	BNE	A: 0	X: ff	Y: 7d	SP: ff
c7b9	7d	STA	A: 0	X: ff	Y: 7d	SP: ff
c7bb	0	DEY	A: 0	X: ff	Y: 7d	SP: ff
c7bc	c7b9	BNE	A: 0	X: ff	Y: 7c	SP: ff
c7b9	7c	STA	A: 0	X: ff	Y: 7c	SP: ff
c7bb	0	DEY	A: 0	X: ff	Y: 7c	SP: ff
c7bc	c7b9	BNE	A: 0	X: ff	Y: 7b	SP: ff
c7b9	7b	STA	A: 0	X: ff	Y: 7b	SP: ff
c7bb	0	DEY	A: 0	X: ff	Y: 7b	SP: ff
c7bc	c7b9	BNE	A: 0	X: ff	Y: 7a	SP: ff
c7b9	7a	STA	A: 0	X: ff	Y: 7a	SP: ff
c7bb	0	DEY	A: 0	X: ff	Y: 7a	SP: ff
c7bc	c7b9	BNE	A: 0	X: ff	Y: 79	SP: ff
c7b9	79	STA	A: 0	X: ff	Y: 79	SP: ff
c7bb	0	DEY	A: 0	X: ff	Y: 79	SP: ff
c7bc	c7b9	BNE	A: 0	X: ff	Y: 78	SP: ff
c7b9	78	STA	A: 0	X: ff	Y: 78	SP: ff
c7bb	0	DEY	A: 0	X: ff	Y: 78	SP: ff
c7bc	c7b9	BNE	A: 0	X: ff	Y: 77	SP: ff
c7b9	77	STA	A: 0	X: ff	Y: 77	SP: ff
c7bb	0	DEY	A: 0	X: ff	Y: 77	SP: ff
c7bc	c7b9	BNE	A: 0	X: ff	Y: 76	SP: ff
c7b9	76	STA	A: 0	X: ff	Y: 76	SP: ff
c7bb	0	DEY	A: 0	X: ff	Y: 76	SP: ff
c7bc	c7b9	BNE	A: 0	X: ff	Y: 75	SP: ff
c7b9	75	STA	A: 0	X: ff	Y: 75	SP: ff
c7bb	0	DEY	A: 0	X: ff	Y: 75	SP: ff
c7bc	c7b9	BNE	A: 0	X: ff	Y: 74	SP: ff
c7b9	74	STA	A: 0	X: ff	Y: 74	SP: ff
c7bb	0	DEY	A: 0	X: ff	Y: 74	SP: ff
c7bc	c7b9	BNE	A: 0	X: ff	Y: 73	SP: ff
c7b9	73	STA	A: 0	X: ff	Y: 73	SP: ff
c7bb	0	DEY	A: 0	X: ff	Y: 73	SP: ff
c7bc	c7b9	BNE	A: 0	X: ff	Y: 72	SP: ff
c7b9	72	STA	A: 0	X: ff	Y: 72	SP: ff
c7bb	0	DEY	A: 0	X: ff	Y: 72	SP: ff
c7bc	c7b9	BNE	A: 0	X: ff	Y: 71	SP: ff
c7b9	71	STA	A: 0	X: ff	Y: 71	SP: ff
c7bb	0	DEY	A: 0	X: ff	Y: 71	SP: ff
c7bc	c7b9	BNE	A: 0	X: ff	Y: 70	SP: ff
c7b9	70	STA	A: 0	X: ff	Y: 70	SP: ff
c7bb	0	DEY	A: 0	X: ff	Y: 70	SP: ff
c7bc	c7b9	BNE	A: 0	X: ff	Y: 6f	SP: ff
c7b9	6f	STA	A: 0	X: ff	Y: 6f	SP: ff
c7bb	0	DEY	A: 0	X: ff	Y: 6f	SP: ff
c7bc	c7b9	BNE	A: 0	X: ff	Y: 6e	SP: ff
c7b9	6e	STA	A: 0	X: ff	Y: 6e	SP: ff
c7bb	0	DEY	A: 0	X: ff	Y: 6e	SP: ff
c7bc	c7b9	BNE	A: 0	X: ff	Y: 6d	SP: ff
c7b9	6d	STA	A: 0	X: ff	Y: 6d	SP: ff
c7bb	0	DEY	A: 0	X: ff	Y: 6d	SP: ff
c7bc	c7b9	BNE	A: 0	X: ff	Y: 6c	SP: ff
c7b9	6c	STA	A: 0	X: ff	Y: 6c	SP: ff
c7bb	0	DEY	A: 0	X: ff	Y: 6c	SP: ff
c7bc	c7b9	BNE	A: 0	X: ff	Y: 6b	SP: ff
c7b9	6b	STA	A: 0	X: ff	Y: 6b	SP: ff
c7bb	0	DEY	A: 0	X: ff	Y: 6b	SP: ff
c7bc	c7b9	BNE	A: 0	X: ff	Y: 6a	SP: ff
c7b9	6a	STA	A: 0	X: ff	Y: 6a	SP: ff
c7bb	0	DEY	A: 0	X: ff	Y: 6a	SP: ff
c7bc	c7b9	BNE	A: 0	X: ff	Y: 69	SP: ff
c7b9	69	STA	A: 0	X: ff	Y: 69	SP: ff
c7bb	0	DEY	A: 0	X: ff	Y: 69	SP: ff
c7bc	c7b9	BNE	A: 0	X: ff	Y: 68	SP: ff
c7b9	68	STA	A: 0	X: ff	Y: 68	SP: ff
c7bb	0	DEY	A: 0	X: ff	Y: 68	SP: ff
c7bc	c7b9	BNE	A: 0	X: ff	Y: 67	SP: ff
c7b9	67	STA	A: 0	X: ff	Y: 67	SP: ff
c7bb	0	DEY	A: 0	X: ff	Y: 67	SP: ff
c7bc	c7b9	BNE	A: 0	X: ff	Y: 66	SP: ff
c7b9	66	STA	A: 0	X: ff	Y: 66	SP: ff
c7bb	0	DEY	A: 0	X: ff	Y: 66	SP: ff
c7bc	c7b9	BNE	A: 0	X: ff	Y: 65	SP: ff
c7b9	65	STA	A: 0	X: ff	Y: 65	SP: ff
c7bb	0	DEY	A: 0	X: ff	Y: 65	SP: ff
c7bc	c7b9	BNE	A: 0	X: ff	Y: 64	SP: ff
c7b9	64	STA	A: 0	X: ff	Y: 64	SP: ff
c7bb	0	DEY	A: 0	X: ff	Y: 64	SP: ff
c7bc	c7b9	BNE	A: 0	X: ff	Y: 63	SP: ff
c7b9	63	STA	A: 0	X: ff	Y: 63	SP: ff
c7bb	0	DEY	A: 0	X: ff	Y: 63	SP: ff
c7bc	c7b9	BNE	A: 0	X: ff	Y: 62	SP: ff
c7b9	62	STA	A: 0	X: ff	Y: 62	SP: ff
c7bb	0	DEY	A: 0	X: ff	Y: 62	SP: ff
c7bc	c7b9	BNE	A: 0	X: ff	Y: 61	SP: ff
c7b9	61	STA	A: 0	X: ff	Y: 61	SP: ff
c7bb	0	DEY	A: 0	X: ff	Y: 61	SP: ff
c7bc	c7b9	BNE	A: 0	X: ff	Y: 60	SP: ff
c7b9	60	STA	A: 0	X: ff	Y: 60	SP: ff
c7bb	0	DEY	A: 0	X: ff	Y: 60	SP: ff
c7bc	c7b9	BNE	A: 0	X: ff	Y: 5f	SP: ff
c7b9	5f	STA	A: 0	X: ff	Y: 5f	SP: ff
c7bb	0	DEY	A: 0	X: ff	Y: 5f	SP: ff
c7bc	c7b9	BNE	A: 0	X: ff	Y: 5e	SP: ff
c7b9	5e	STA	A: 0	X: ff	Y: 5e	SP: ff
c7bb	0	DEY	A: 0	X: ff	Y: 5e	SP: ff
c7bc	c7b9	BNE	A: 0	X: ff	Y: 5d	SP: ff
c7b9	5d	STA	A: 0	X: ff	Y: 5d	SP: ff
c7bb	0	DEY	A: 0	X: ff	Y: 5d	SP: ff
c7bc	c7b9	BNE	A: 0	X: ff	Y: 5c	SP: ff
c7b9	5c	STA	A: 0	X: ff	Y: 5c	SP: ff
c7bb	0	DEY	A: 0	X: ff	Y: 5c	SP: ff
c7bc	c7b9	BNE	A: 0	X: ff	Y: 5b	SP: ff
c7b9	5b	STA	A: 0	X: ff	Y: 5b	SP: ff
c7bb	0	DEY	A: 0	X: ff	Y: 5b	SP: ff
c7bc	c7b9	BNE	A: 0	X: ff	Y: 5a	SP: ff
c7b9	5a	STA	A: 0	X: ff	Y: 5a	SP: ff
c7bb	0	DEY	A: 0	X: ff	Y: 5a	SP: ff
c7bc	c7b9	BNE	A: 0	X: ff	Y: 59	SP: ff
c7b9	59	STA	A: 0	X: ff	Y: 59	SP: ff
c7bb	0	DEY	A: 0	X: ff	Y: 59	SP: ff
c7bc	c7b9	BNE	A: 0	X: ff	Y: 58	SP: ff
c7b9	58	STA	A: 0	X: ff	Y: 58	SP: ff
c7bb	0	DEY	A: 0	X: ff	Y: 58	SP: ff
c7bc	c7b9	BNE	A: 0	X: ff	Y: 57	SP: ff
c7b9	57	STA	A: 0	X: ff	Y: 57	SP: ff
c7bb	0	DEY	A: 0	X: ff	Y: 57	SP: ff
c7bc	c7b9	BNE	A: 0	X: ff	Y: 56	SP: ff
c7b9	56	STA	A: 0	X: ff	Y: 56	SP: ff
c7bb	0	DEY	A: 0	X: ff	Y: 56	SP: ff
c7bc	c7b9	BNE	A: 0	X: ff	Y: 55	SP: ff
c7b9	55	STA	A: 0	X: ff	Y: 55	SP: ff
c7bb	0	DEY	A: 0	X: ff	Y: 55	SP: ff
c7bc	c7b9	BNE	A: 0	X: ff	Y: 54	SP: ff
c7b9	54	STA	A: 0	X: ff	Y: 54	SP: ff
c7bb	0	DEY	A: 0	X: ff	Y: 54	SP: ff
c7bc	c7b9	BNE	A: 0	X: ff	Y: 53	SP: ff
c7b9	53	STA	A: 0	X: ff	Y: 53	SP: ff
c7bb	0	DEY	A: 0	X: ff	Y: 53	SP: ff
c7bc	c7b9	BNE	A: 0	X: ff	Y: 52	SP: ff
c7b9	52	STA	A: 0	X: ff	Y: 52	SP: ff
c7bb	0	DEY	A: 0	X: ff	Y: 52	SP: ff
c7bc	c7b9	BNE	A: 0	X: ff	Y: 51	SP: ff
c7b9	51	STA	A: 0	X: ff	Y: 51	SP: ff
c7bb	0	DEY	A: 0	X: ff	Y: 51	SP: ff
c7bc	c7b9	BNE	A: 0	X: ff	Y: 50	SP: ff
c7b9	50	STA	A: 0	X: ff	Y: 50	SP: ff
c7bb	0	DEY	A: 0	X: ff	Y: 50	SP: ff
c7bc	c7b9	BNE	A: 0	X: ff	Y: 4f	SP: ff
c7b9	4f	STA	A: 0	X: ff	Y: 4f	SP: ff
c7bb	0	DEY	A: 0	X: ff	Y: 4f	SP: ff
c7bc	c7b9	BNE	A: 0	X: ff	Y: 4e	SP: ff
c7b9	4e	STA	A: 0	X: ff	Y: 4e	SP: ff
c7bb	0	DEY	A: 0	X: ff	Y: 4e	SP: ff
c7bc	c7b9	BNE	A: 0	X: ff	Y: 4d	SP: ff
c7b9	4d	STA	A: 0	X: ff	Y: 4d	SP: ff
c7bb	0	DEY	A: 0	X: ff	Y: 4d	SP: ff
c7bc	c7b9	BNE	A: 0	X: ff	Y: 4c	SP: ff
c7b9	4c	STA	A: 0	X: ff	Y: 4c	SP: ff
c7bb	0	DEY	A: 0	X: ff	Y: 4c	SP: ff
c7bc	c7b9	BNE	A: 0	X: ff	Y: 4b	SP: ff
c7b9	4b	STA	A: 0	X: ff	Y: 4b	SP: ff
c7bb	0	DEY	A: 0	X: ff	Y: 4b	SP: ff
c7bc	c7b9	BNE	A: 0	X: ff	Y: 4a	SP: ff
c7b9	4a	STA	A: 0	X: ff	Y: 4a	SP: ff
c7bb	0	DEY	A: 0	X: ff	Y: 4a	SP: ff
c7bc	c7b9	BNE	A: 0	X: ff	Y: 49	SP: ff
c7b9	49	STA	A: 0	X: ff	Y: 49	SP: ff
c7bb	0	DEY	A: 0	X: ff	Y: 49	SP: ff
c7bc	c7b9	BNE	A: 0	X: ff	Y: 48	SP: ff
c7b9	48	STA	A: 0	X: ff	Y: 48	SP: ff
c7bb	0	DEY	A: 0	X: ff	Y: 48	SP: ff
c7bc	c7b9	BNE	A: 0	X: ff	Y: 47	SP: ff
c7b9	47	STA	A: 0	X: ff	Y: 47	SP: ff
c7bb	0	DEY	A: 0	X: ff	Y: 47	SP: ff
c7bc	c7b9	BNE	A: 0	X: ff	Y: 46	SP: ff
c7b9	46	STA	A: 0	X: ff	Y: 46	SP: ff
c7bb	0	DEY	A: 0	X: ff	Y: 46	SP: ff
c7bc	c7b9	BNE	A: 0	X: ff	Y: 45	SP: ff
c7b9	45	STA	A: 0	X: ff	Y: 45	SP: ff
c7bb	0	DEY	A: 0	X: ff	Y: 45	SP: ff
c7bc	c7b9	BNE	A: 0	X: ff	Y: 44	SP: ff
c7b9	44	STA	A: 0	X: ff	Y: 44	SP: ff
c7bb	0	DEY	A: 0	X: ff	Y: 44	SP: ff
c7bc	c7b9	BNE	A: 0	X: ff	Y: 43	SP: ff
c7b9	43	STA	A: 0	X: ff	Y: 43	SP: ff
c7bb	0	DEY	A: 0	X: ff	Y: 43	SP: ff
c7bc	c7b9	BNE	A: 0	X: ff	Y: 42	SP: ff
c7b9	42	STA	A: 0	X: ff	Y: 42	SP: ff
c7bb	0	DEY	A: 0	X: ff	Y: 42	SP: ff
c7bc	c7b9	BNE	A: 0	X: ff	Y: 41	SP: ff
c7b9	41	STA	A: 0	X: ff	Y: 41	SP: ff
c7bb	0	DEY	A: 0	X: ff	Y: 41	SP: ff
c7bc	c7b9	BNE	A: 0	X: ff	Y: 40	SP: ff
c7b9	40	STA	A: 0	X: ff	Y: 40	SP: ff
c7bb	0	DEY	A: 0	X: ff	Y: 40	SP: ff
c7bc	c7b9	BNE	A: 0	X: ff	Y: 3f	SP: ff
c7b9	3f	STA	A: 0	X: ff	Y: 3f	SP: ff
c7bb	0	DEY	A: 0	X: ff	Y: 3f	SP: ff
c7bc	c7b9	BNE	A: 0	X: ff	Y: 3e	SP: ff
c7b9	3e	STA	A: 0	X: ff	Y: 3e	SP: ff
c7bb	0	DEY	A: 0	X: ff	Y: 3e	SP: ff
c7bc	c7b9	BNE	A: 0	X: ff	Y: 3d	SP: ff
c7b9	3d	STA	A: 0	X: ff	Y: 3d	SP: ff
c7bb	0	DEY	A: 0	X: ff	Y: 3d	SP: ff
c7bc	c7b9	BNE	A: 0	X: ff	Y: 3c	SP: ff
c7b9	3c	STA	A: 0	X: ff	Y: 3c	SP: ff
c7bb	0	DEY	A: 0	X: ff	Y: 3c	SP: ff
c7bc	c7b9	BNE	A: 0	X: ff	Y: 3b	SP: ff
c7b9	3b	STA	A: 0	X: ff	Y: 3b	SP: ff
c7bb	0	DEY	A: 0	X: ff	Y: 3b	SP: ff
c7bc	c7b9	BNE	A: 0	X: ff	Y: 3a	SP: ff
c7b9	3a	STA	A: 0	X: ff	Y: 3a	SP: ff
c7bb	0	DEY	A: 0	X: ff	Y: 3a	SP: ff
c7bc	c7b9	BNE	A: 0	X: ff	Y: 39	SP: ff
c7b9	39	STA	A: 0	X: ff	Y: 39	SP: ff
c7bb	0	DEY	A: 0	X: ff	Y: 39	SP: ff
c7bc	c7b9	BNE	A: 0	X: ff	Y: 38	SP: ff
c7b9	38	STA	A: 0	X: ff	Y: 38	SP: ff
c7bb	0	DEY	A: 0	X: ff	Y: 38	SP: ff
c7bc	c7b9	BNE	A: 0	X: ff	Y: 37	SP: ff
c7b9	37	STA	A: 0	X: ff	Y: 37	SP: ff
c7bb	0	DEY	A: 0	X: ff	Y: 37	SP: ff
c7bc	c7b9	BNE	A: 0	X: ff	Y: 36	SP: ff
c7b9	36	STA	A: 0	X: ff	Y: 36	SP: ff
c7bb	0	DEY	A: 0	X: ff	Y: 36	SP: ff
c7bc	c7b9	BNE	A: 0	X: ff	Y: 35	SP: ff
c7b9	35	STA	A: 0	X: ff	Y: 35	SP: ff
c7bb	0	DEY	A: 0	X: ff	Y: 35	SP: ff
c7bc	c7b9	BNE	A: 0	X: ff	Y: 34	SP: ff
c7b9	34	STA	A: 0	X: ff	Y: 34	SP: ff
c7bb	0	DEY	A: 0	X: ff	Y: 34	SP: ff
c7bc	c7b9	BNE	A: 0	X: ff	Y: 33	SP: ff
c7b9	33	STA	A: 0	X: ff	Y: 33	SP: ff
c7bb	0	DEY	A: 0	X: ff	Y: 33	SP: ff
c7bc	c7b9	BNE	A: 0	X: ff	Y: 32	SP: ff
c7b9	32	STA	A: 0	X: ff	Y: 32	SP: ff
c7bb	0	DEY	A: 0	X: ff	Y: 32	SP: ff
c7bc	c7b9	BNE	A: 0	X: ff	Y: 31	SP: ff
c7b9	31	STA	A: 0	X: ff	Y: 31	SP: ff
c7bb	0	DEY	A: 0	X: ff	Y: 31	SP: ff
c7bc	c7b9	BNE	A: 0	X: ff	Y: 30	SP: ff
c7b9	30	STA	A: 0	X: ff	Y: 30	SP: ff
c7bb	0	DEY	A: 0	X: ff	Y: 30	SP: ff
c7bc	c7b9	BNE	A: 0	X: ff	Y: 2f	SP: ff
c7b9	2f	STA	A: 0	X: ff	Y: 2f	SP: ff
c7bb	0	DEY	A: 0	X: ff	Y: 2f	SP: ff
c7bc	c7b9	BNE	A: 0	X: ff	Y: 2e	SP: ff
c7b9	2e	STA	A: 0	X: ff	Y: 2e	SP: ff
c7bb	0	DEY	A: 0	X: ff	Y: 2e	SP: ff
c7bc	c7b9	BNE	A: 0	X: ff	Y: 2d	SP: ff
c7b9	2d	STA	A: 0	X: ff	Y: 2d	SP: ff
c7bb	0	DEY	A: 0	X: ff	Y: 2d	SP: ff
c7bc	c7b9	BNE	A: 0	X: ff	Y: 2c	SP: ff
c7b9	2c	STA	A: 0	X: ff	Y: 2c	SP: ff
c7bb	0	DEY	A: 0	X: ff	Y: 2c	SP: ff
c7bc	c7b9	BNE	A: 0	X: ff	Y: 2b	SP: ff
c7b9	2b	STA	A: 0	X: ff	Y: 2b	SP: ff
c7bb	0	DEY	A: 0	X: ff	Y: 2b	SP: ff
c7bc	c7b9	BNE	A: 0	X: ff	Y: 2a	SP: ff
c7b9	2a	STA	A: 0	X: ff	Y: 2a	SP: ff
c7bb	0	DEY	A: 0	X: ff	Y: 2a	SP: ff
c7bc	c7b9	BNE	A: 0	X: ff	Y: 29	SP: ff
c7b9	29	STA	A: 0	X: ff	Y: 29	SP: ff
c7bb	0	DEY	A: 0	X: ff	Y: 29	SP: ff
c7bc	c7b9	BNE	A: 0	X: ff	Y: 28	SP: ff
c7b9	28	STA	A: 0	X: ff	Y: 28	SP: ff
c7bb	0	DEY	A: 0	X: ff	Y: 28	SP: ff
c7bc	c7b9	BNE	A: 0	X: ff	Y: 27	SP: ff
c7b9	27	STA	A: 0	X: ff	Y: 27	SP: ff
c7bb	0	DEY	A: 0	X: ff	Y: 27	SP: ff
c7bc	c7b9	BNE	A: 0	X: ff	Y: 26	SP: ff
c7b9	26	STA	A: 0	X: ff	Y: 26	SP: ff
c7bb	0	DEY	A: 0	X: ff	Y: 26	SP: ff
c7bc	c7b9	BNE	A: 0	X: ff	Y: 25	SP: ff
c7b9	25	STA	A: 0	X: ff	Y: 25	SP: ff
c7bb	0	DEY	A: 0	X: ff	Y: 25	SP: ff
c7bc	c7b9	BNE	A: 0	X: ff	Y: 24	SP: ff
c7b9	24	STA	A: 0	X: ff	Y: 24	SP: ff
c7bb	0	DEY	A: 0	X: ff	Y: 24	SP: ff
c7bc	c7b9	BNE	A: 0	X: ff	Y: 23	SP: ff
c7b9	23	STA	A: 0	X: ff	Y: 23	SP: ff
c7bb	0	DEY	A: 0	X: ff	Y: 23	SP: ff
c7bc	c7b9	BNE	A: 0	X: ff	Y: 22	SP: ff
c7b9	22	STA	A: 0	X: ff	Y: 22	SP: ff
c7bb	0	DEY	A: 0	X: ff	Y: 22	SP: ff
c7bc	c7b9	BNE	A: 0	X: ff	Y: 21	SP: ff
c7b9	21	STA	A: 0	X: ff	Y: 21	SP: ff
c7bb	0	DEY	A: 0	X: ff	Y: 21	SP: ff
c7bc	c7b9	BNE	A: 0	X: ff	Y: 20	SP: ff
c7b9	20	STA	A: 0	X: ff	Y: 20	SP: ff
c7bb	0	DEY	A: 0	X: ff	Y: 20	SP: ff
c7bc	c7b9	BNE	A: 0	X: ff	Y: 1f	SP: ff
c7b9	1f	STA	A: 0	X: ff	Y: 1f	SP: ff
c7bb	0	DEY	A: 0	X: ff	Y: 1f	SP: ff
c7bc	c7b9	BNE	A: 0	X: ff	Y: 1e	SP: ff
c7b9	1e	STA	A: 0	X: ff	Y: 1e	SP: ff
c7bb	0	DEY	A: 0	X: ff	Y: 1e	SP: ff
c7bc	c7b9	BNE	A: 0	X: ff	Y: 1d	SP: ff
c7b9	1d	STA	A: 0	X: ff	Y: 1d	SP: ff
c7bb	0	DEY	A: 0	X: ff	Y: 1d	SP: ff
c7bc	c7b9	BNE	A: 0	X: ff	Y: 1c	SP: ff
c7b9	1c	STA	A: 0	X: ff	Y: 1c	SP: ff
c7bb	0	DEY	A: 0	X: ff	Y: 1c	SP: ff
c7bc	c7b9	BNE	A: 0	X: ff	Y: 1b	SP: ff
c7b9	1b	STA	A: 0	X: ff	Y: 1b	SP: ff
c7bb	0	DEY	A: 0	X: ff	Y: 1b	SP: ff
c7bc	c7b9	BNE	A: 0	X: ff	Y: 1a	SP: ff
c7b9	1a	STA	A: 0	X: ff	Y: 1a	SP: ff
c7bb	0	DEY	A: 0	X: ff	Y: 1a	SP: ff
c7bc	c7b9	BNE	A: 0	X: ff	Y: 19	SP: ff
c7b9	19	STA	A: 0	X: ff	Y: 19	SP: ff
c7bb	0	DEY	A: 0	X: ff	Y: 19	SP: ff
c7bc	c7b9	BNE	A: 0	X: ff	Y: 18	SP: ff
c7b9	18	STA	A: 0	X: ff	Y: 18	SP: ff
c7bb	0	DEY	A: 0	X: ff	Y: 18	SP: ff
c7bc	c7b9	BNE	A: 0	X: ff	Y: 17	SP: ff
c7b9	17	STA	A: 0	X: ff	Y: 17	SP: ff
c7bb	0	DEY	A: 0	X: ff	Y: 17	SP: ff
c7bc	c7b9	BNE	A: 0	X: ff	Y: 16	SP: ff
c7b9	16	STA	A: 0	X: ff	Y: 16	SP: ff
c7bb	0	DEY	A: 0	X: ff	Y: 16	SP: ff
c7bc	c7b9	BNE	A: 0	X: ff	Y: 15	SP: ff
c7b9	15	STA	A: 0	X: ff	Y: 15	SP: ff
c7bb	0	DEY	A: 0	X: ff	Y: 15	SP: ff
c7bc	c7b9	BNE	A: 0	X: ff	Y: 14	SP: ff
c7b9	14	STA	A: 0	X: ff	Y: 14	SP: ff
c7bb	0	DEY	A: 0	X: ff	Y: 14	SP: ff
c7bc	c7b9	BNE	A: 0	X: ff	Y: 13	SP: ff
c7b9	13	STA	A: 0	X: ff	Y: 13	SP: ff
c7bb	0	DEY	A: 0	X: ff	Y: 13	SP: ff
c7bc	c7b9	BNE	A: 0	X: ff	Y: 12	SP: ff
c7b9	12	STA	A: 0	X: ff	Y: 12	SP: ff
c7bb	0	DEY	A: 0	X: ff	Y: 12	SP: ff
c7bc	c7b9	BNE	A: 0	X: ff	Y: 11	SP: ff
c7b9	11	STA	A: 0	X: ff	Y: 11	SP: ff
c7bb	0	DEY	A: 0	X: ff	Y: 11	SP: ff
c7bc	c7b9	BNE	A: 0	X: ff	Y: 10	SP: ff
c7b9	10	STA	A: 0	X: ff	Y: 10	SP: ff
c7bb	0	DEY	A: 0	X: ff	Y: 10	SP: ff
c7bc	c7b9	BNE	A: 0	X: ff	Y: f	SP: ff
c7b9	f	STA	A: 0	X: ff	Y: f	SP: ff
c7bb	0	DEY	A: 0	X: ff	Y: f	SP: ff
c7bc	c7b9	BNE	A: 0	X: ff	Y: e	SP: ff
c7b9	e	STA	A: 0	X: ff	Y: e	SP: ff
c7bb	0	DEY	A: 0	X: ff	Y: e	SP: ff
c7bc	c7b9	BNE	A: 0	X: ff	Y: d	SP: ff
c7b9	d	STA	A: 0	X: ff	Y: d	SP: ff
c7bb	0	DEY	A: 0	X: ff	Y: d	SP: ff
c7bc	c7b9	BNE	A: 0	X: ff	Y: c	SP: ff
c7b9	c	STA	A: 0	X: ff	Y: c	SP: ff
c7bb	0	DEY	A: 0	X: ff	Y: c	SP: ff
c7bc	c7b9	BNE	A: 0	X: ff	Y: b	SP: ff
c7b9	b	STA	A: 0	X: ff	Y: b	SP: ff
c7bb	0	DEY	A: 0	X: ff	Y: b	SP: ff
c7bc	c7b9	BNE	A: 0	X: ff	Y: a	SP: ff
c7b9	a	STA	A: 0	X: ff	Y: a	SP: ff
c7bb	0	DEY	A: 0	X: ff	Y: a	SP: ff
c7bc	c7b9	BNE	A: 0	X: ff	Y: 9	SP: ff
c7b9	9	STA	A: 0	X: ff	Y: 9	SP: ff
c7bb	0	DEY	A: 0	X: ff	Y: 9	SP: ff
c7bc	c7b9	BNE	A: 0	X: ff	Y: 8	SP: ff
c7b9	8	STA	A: 0	X: ff	Y: 8	SP: ff
c7bb	0	DEY	A: 0	X: ff	Y: 8	SP: ff
c7bc	c7b9	BNE	A: 0	X: ff	Y: 7	SP: ff
c7b9	7	STA	A: 0	X: ff	Y: 7	SP: ff
c7bb	0	DEY	A: 0	X: ff	Y: 7	SP: ff
c7bc	c7b9	BNE	A: 0	X: ff	Y: 6	SP: ff
c7b9	6	STA	A: 0	X: ff	Y: 6	SP: ff
c7bb	0	DEY	A: 0	X: ff	Y: 6	SP: ff
c7bc	c7b9	BNE	A: 0	X: ff	Y: 5	SP: ff
c7b9	5	STA	A: 0	X: ff	Y: 5	SP: ff
c7bb	0	DEY	A: 0	X: ff	Y: 5	SP: ff
c7bc	c7b9	BNE	A: 0	X: ff	Y: 4	SP: ff
c7b9	4	STA	A: 0	X: ff	Y: 4	SP: ff
c7bb	0	DEY	A: 0	X: ff	Y: 4	SP: ff
c7bc	c7b9	BNE	A: 0	X: ff	Y: 3	SP: ff
c7b9	3	STA	A: 0	X: ff	Y: 3	SP: ff
c7bb	0	DEY	A: 0	X: ff	Y: 3	SP: ff
c7bc	c7b9	BNE	A: 0	X: ff	Y: 2	SP: ff
c7b9	2	STA	A: 0	X: ff	Y: 2	SP: ff
c7bb	0	DEY	A: 0	X: ff	Y: 2	SP: ff
c7bc	c7b9	BNE	A: 0	X: ff	Y: 1	SP: ff
c7b9	1	STA	A: 0	X: ff	Y: 1	SP: ff
c7bb	0	DEY	A: 0	X: ff	Y: 1	SP: ff
c7bc	c7b9	BNE	A: 0	X: ff	Y: 0	SP: ff
c7be	1	DEC	A: 0	X: ff	Y: 0	SP: ff
c7c0	c7b9	BPL	A: 0	X: ff	Y: 0	SP: ff
c7c2	c7e7	JSR	A: 0	X: ff	Y: 0	SP: ff
c7e7	c7e8	LDA	A: 0	X: ff	Y: 0	SP: fd
c7e9	2000	STA	A: 10	X: ff	Y: 0	SP: fd
c7ec	10	STA	A: 10	X: ff	Y: 0	SP: fd
c7ee	c7ef	LDA	A: 10	X: ff	Y: 0	SP: fd
c7f0	2001	STA	A: 6	X: ff	Y: 0	SP: fd
c7f3	11	STA	A: 6	X: ff	Y: 0	SP: fd
c7f5	c7f6	LDA	A: 6	X: ff	Y: 0	SP: fd
c7f7	2005	STA	A: 0	X: ff	Y: 0	SP: fd
c7fa	12	STA	A: 0	X: ff	Y: 0	SP: fd
c7fc	2005	STA	A: 0	X: ff	Y: 0	SP: fd
c7ff	13	STA	A: 0	X: ff	Y: 0	SP: fd
c801	cbaa	JSR	A: 0	X: ff	Y: 0	SP: fd
cbaa	cbab	LDA	A: 0	X: ff	Y: 0	SP: fb
cbac	4	STA	A: 0	X: ff	Y: 0	SP: fb
cbae	cbaf	LDA	A: 0	X: ff	Y: 0	SP: fb
cbb0	f0a1	JMP	A: ff	X: ff	Y: 0	SP: fb
f0a1	3	STA	A: ff	X: ff	Y: 0	SP: fb
f0a3	f0a4	LDA	A: ff	X: ff	Y: 0	SP: fb
f0a5	0	PHA	A: f	X: ff	Y: 0	SP: fb
f0a6	f	STA	A: f	X: ff	Y: 0	SP: fa
f0a8	0	TXA	A: f	X: ff	Y: 0	SP: fa
f0a9	0	PHA	A: ff	X: ff	Y: 0	SP: fa
f0aa	0	TYA	A: ff	X: ff	Y: 0	SP: f9
f0ab	0	PHA	A: 0	X: ff	Y: 0	SP: f9
f0ac	0	LDA	A: 0	X: ff	Y: 0	SP: f8
f0ae	0	PHA	A: 0	X: ff	Y: 0	SP: f8
f0af	5	LDA	A: 0	X: ff	Y: 0	SP: f7
f0b1	0	PHA	A: 0	X: ff	Y: 0	SP: f7
f0b2	6	LDA	A: 0	X: ff	Y: 0	SP: f6
f0b4	0	PHA	A: 0	X: ff	Y: 0	SP: f6
f0b5	7	LDA	A: 0	X: ff	Y: 0	SP: f5
f0b7	0	PHA	A: 0	X: ff	Y: 0	SP: f5
f0b8	8	LDA	A: 0	X: ff	Y: 0	SP: f4
f0ba	0	PHA	A: 0	X: ff	Y: 0	SP: f4
f0bb	9	LDA	A: 0	X: ff	Y: 0	SP: f3
f0bd	0	PHA	A: 0	X: ff	Y: 0	SP: f3
f0be	f0bf	LDA	A: 0	X: ff	Y: 0	SP: f2
f0c0	5	STA	A: 2	X: ff	Y: 0	SP: f2
f0c2	f	LDA	A: 2	X: ff	Y: 0	SP: f2
f0c4	f0c5	CMP	A: f	X: ff	Y: 0	SP: f2
f0c6	f0fe	BEQ	A: f	X: ff	Y: 0	SP: f2
f0c8	f0c9	LDA	A: f	X: ff	Y: 0	SP: f2
f0ca	3	AND	A: f	X: ff	Y: 0	SP: f2
f0cc	7	STA	A: f	X: ff	Y: 0	SP: f2
f0ce	3	LDA	A: f	X: ff	Y: 0	SP: f2
f0d0	0	LSR	A: ff	X: ff	Y: 0	SP: f2
f0d1	0	LSR	A: 7f	X: ff	Y: 0	SP: f2
f0d2	0	LSR	A: 3f	X: ff	Y: 0	SP: f2
f0d3	0	LSR	A: 1f	X: ff	Y: 0	SP: f2
f0d4	6	STA	A: f	X: ff	Y: 0	SP: f2
f0d6	0	TAX	A: f	X: ff	Y: 0	SP: f2
f0d7	f0d8	LDA	A: f	X: f	Y: 0	SP: f2
f0d9	0	CLC	A: 0	X: f	Y: 0	SP: f2
f0da	7	ADC	A: 0	X: f	Y: 0	SP: f2
f0dc	0	DEX	A: f	X: f	Y: 0	SP: f2
f0dd	f0da	BNE	A: f	X: e	Y: 0	SP: f2
f0da	7	ADC	A: f	X: e	Y: 0	SP: f2
f0dc	0	DEX	A: 1e	X: e	Y: 0	SP: f2
f0dd	f0da	BNE	A: 1e	X: d	Y: 0	SP: f2
f0da	7	ADC	A: 1e	X: d	Y: 0	SP: f2
f0dc	0	DEX	A: 2d	X: d	Y: 0	SP: f2
f0dd	f0da	BNE	A: 2d	X: c	Y: 0	SP: f2
f0da	7	ADC	A: 2d	X: c	Y: 0	SP: f2
f0dc	0	DEX	A: 3c	X: c	Y: 0	SP: f2
f0dd	f0da	BNE	A: 3c	X: b	Y: 0	SP: f2
f0da	7	ADC	A: 3c	X: b	Y: 0	SP: f2
f0dc	0	DEX	A: 4b	X: b	Y: 0	SP: f2
f0dd	f0da	BNE	A: 4b	X: a	Y: 0	SP: f2
f0da	7	ADC	A: 4b	X: a	Y: 0	SP: f2
f0dc	0	DEX	A: 5a	X: a	Y: 0	SP: f2
f0dd	f0da	BNE	A: 5a	X: 9	Y: 0	SP: f2
f0da	7	ADC	A: 5a	X: 9	Y: 0	SP: f2
f0dc	0	DEX	A: 69	X: 9	Y: 0	SP: f2
f0dd	f0da	BNE	A: 69	X: 8	Y: 0	SP: f2
f0da	7	ADC	A: 69	X: 8	Y: 0	SP: f2
f0dc	0	DEX	A: 78	X: 8	Y: 0	SP: f2
f0dd	f0da	BNE	A: 78	X: 7	Y: 0	SP: f2
f0da	7	ADC	A: 78	X: 7	Y: 0	SP: f2
f0dc	0	DEX	A: 87	X: 7	Y: 0	SP: f2
f0dd	f0da	BNE	A: 87	X: 6	Y: 0	SP: f2
f0da	7	ADC	A: 87	X: 6	Y: 0	SP: f2
f0dc	0	DEX	A: 96	X: 6	Y: 0	SP: f2
f0dd	f0da	BNE	A: 96	X: 5	Y: 0	SP: f2
f0da	7	ADC	A: 96	X: 5	Y: 0	SP: f2
f0dc	0	DEX	A: a5	X: 5	Y: 0	SP: f2
f0dd	f0da	BNE	A: a5	X: 4	Y: 0	SP: f2
f0da	7	ADC	A: a5	X: 4	Y: 0	SP: f2
f0dc	0	DEX	A: b4	X: 4	Y: 0	SP: f2
f0dd	f0da	BNE	A: b4	X: 3	Y: 0	SP: f2
f0da	7	ADC	A: b4	X: 3	Y: 0	SP: f2
f0dc	0	DEX	A: c3	X: 3	Y: 0	SP: f2
f0dd	f0da	BNE	A: c3	X: 2	Y: 0	SP: f2
f0da	7	ADC	A: c3	X: 2	Y: 0	SP: f2
f0dc	0	DEX	A: d2	X: 2	Y: 0	SP: f2
f0dd	f0da	BNE	A: d2	X: 1	Y: 0	SP: f2
f0da	7	ADC	A: d2	X: 1	Y: 0	SP: f2
f0dc	0	DEX	A: e1	X: 1	Y: 0	SP: f2
f0dd	f0da	BNE	A: e1	X: 0	Y: 0	SP: f2
f0df	8	STA	A: e1	X: 0	Y: 0	SP: f2
f0e1	f	LDA	A: e1	X: 0	Y: 0	SP: f2
f0e3	f0eb	BNE	A: f	X: 0	Y: 0	SP: f2
f0eb	f0ec	CMP	A: f	X: 0	Y: 0	SP: f2
f0ed	f0f5	BEQ	A: f	X: 0	Y: 0	SP: f2
f0ef	f1a4	JSR	A: f	X: 0	Y: 0	SP: f2
f1a4	f1a5	LDY	A: f	X: 0	Y: 0	SP: f0
f1a6	6	LDX	A: f	X: 0	Y: 0	SP: f0
f1a8	1	LDA	A: f	X: f	Y: 0	SP: f0
f1aa	9	STA	A: ff	X: f	Y: 0	SP: f0
f1ac	f1ad	LDA	A: ff	X: f	Y: 0	SP: f0
f1ae	200	STA	A: ff	X: f	Y: 0	SP: f0
f1b0	0	INY	A: ff	X: f	Y: 0	SP: f0
f1b1	0	INY	A: ff	X: f	Y: 1	SP: f0
f1b2	0	INY	A: ff	X: f	Y: 2	SP: f0
f1b3	0	INY	A: ff	X: f	Y: 3	SP: f0
f1b4	0	DEX	A: ff	X: f	Y: 4	SP: f0
f1b5	f1ae	BNE	A: ff	X: e	Y: 4	SP: f0
f1ae	204	STA	A: ff	X: e	Y: 4	SP: f0
f1b0	0	INY	A: ff	X: e	Y: 4	SP: f0
f1b1	0	INY	A: ff	X: e	Y: 5	SP: f0
f1b2	0	INY	A: ff	X: e	Y: 6	SP: f0
f1b3	0	INY	A: ff	X: e	Y: 7	SP: f0
f1b4	0	DEX	A: ff	X: e	Y: 8	SP: f0
f1b5	f1ae	BNE	A: ff	X: d	Y: 8	SP: f0
f1ae	208	STA	A: ff	X: d	Y: 8	SP: f0
f1b0	0	INY	A: ff	X: d	Y: 8	SP: f0
f1b1	0	INY	A: ff	X: d	Y: 9	SP: f0
f1b2	0	INY	A: ff	X: d	Y: a	SP: f0
f1b3	0	INY	A: ff	X: d	Y: b	SP: f0
f1b4	0	DEX	A: ff	X: d	Y: c	SP: f0
f1b5	f1ae	BNE	A: ff	X: c	Y: c	SP: f0
f1ae	20c	STA	A: ff	X: c	Y: c	SP: f0
f1b0	0	INY	A: ff	X: c	Y: c	SP: f0
f1b1	0	INY	A: ff	X: c	Y: d	SP: f0
f1b2	0	INY	A: ff	X: c	Y: e	SP: f0
f1b3	0	INY	A: ff	X: c	Y: f	SP: f0
f1b4	0	DEX	A: ff	X: c	Y: 10	SP: f0
f1b5	f1ae	BNE	A: ff	X: b	Y: 10	SP: f0
f1ae	210	STA	A: ff	X: b	Y: 10	SP: f0
f1b0	0	INY	A: ff	X: b	Y: 10	SP: f0
f1b1	0	INY	A: ff	X: b	Y: 11	SP: f0
f1b2	0	INY	A: ff	X: b	Y: 12	SP: f0
f1b3	0	INY	A: ff	X: b	Y: 13	SP: f0
f1b4	0	DEX	A: ff	X: b	Y: 14	SP: f0
f1b5	f1ae	BNE	A: ff	X: a	Y: 14	SP: f0
f1ae	214	STA	A: ff	X: a	Y: 14	SP: f0
f1b0	0	INY	A: ff	X: a	Y: 14	SP: f0
f1b1	0	INY	A: ff	X: a	Y: 15	SP: f0
f1b2	0	INY	A: ff	X: a	Y: 16	SP: f0
f1b3	0	INY	A: ff	X: a	Y: 17	SP: f0
f1b4	0	DEX	A: ff	X: a	Y: 18	SP: f0
f1b5	f1ae	BNE	A: ff	X: 9	Y: 18	SP: f0
f1ae	218	STA	A: ff	X: 9	Y: 18	SP: f0
f1b0	0	INY	A: ff	X: 9	Y: 18	SP: f0
f1b1	0	INY	A: ff	X: 9	Y: 19	SP: f0
f1b2	0	INY	A: ff	X: 9	Y: 1a	SP: f0
f1b3	0	INY	A: ff	X: 9	Y: 1b	SP: f0
f1b4	0	DEX	A: ff	X: 9	Y: 1c	SP: f0
f1b5	f1ae	BNE	A: ff	X: 8	Y: 1c	SP: f0
f1ae	21c	STA	A: ff	X: 8	Y: 1c	SP: f0
f1b0	0	INY	A: ff	X: 8	Y: 1c	SP: f0
f1b1	0	INY	A: ff	X: 8	Y: 1d	SP: f0
f1b2	0	INY	A: ff	X: 8	Y: 1e	SP: f0
f1b3	0	INY	A: ff	X: 8	Y: 1f	SP: f0
f1b4	0	DEX	A: ff	X: 8	Y: 20	SP: f0
f1b5	f1ae	BNE	A: ff	X: 7	Y: 20	SP: f0
f1ae	220	STA	A: ff	X: 7	Y: 20	SP: f0
f1b0	0	INY	A: ff	X: 7	Y: 20	SP: f0
f1b1	0	INY	A: ff	X: 7	Y: 21	SP: f0
f1b2	0	INY	A: ff	X: 7	Y: 22	SP: f0
f1b3	0	INY	A: ff	X: 7	Y: 23	SP: f0
f1b4	0	DEX	A: ff	X: 7	Y: 24	SP: f0
f1b5	f1ae	BNE	A: ff	X: 6	Y: 24	SP: f0
f1ae	224	STA	A: ff	X: 6	Y: 24	SP: f0
f1b0	0	INY	A: ff	X: 6	Y: 24	SP: f0
f1b1	0	INY	A: ff	X: 6	Y: 25	SP: f0
f1b2	0	INY	A: ff	X: 6	Y: 26	SP: f0
f1b3	0	INY	A: ff	X: 6	Y: 27	SP: f0
f1b4	0	DEX	A: ff	X: 6	Y: 28	SP: f0
f1b5	f1ae	BNE	A: ff	X: 5	Y: 28	SP: f0
f1ae	228	STA	A: ff	X: 5	Y: 28	SP: f0
f1b0	0	INY	A: ff	X: 5	Y: 28	SP: f0
f1b1	0	INY	A: ff	X: 5	Y: 29	SP: f0
f1b2	0	INY	A: ff	X: 5	Y: 2a	SP: f0
f1b3	0	INY	A: ff	X: 5	Y: 2b	SP: f0
f1b4	0	DEX	A: ff	X: 5	Y: 2c	SP: f0
f1b5	f1ae	BNE	A: ff	X: 4	Y: 2c	SP: f0
f1ae	22c	STA	A: ff	X: 4	Y: 2c	SP: f0
f1b0	0	INY	A: ff	X: 4	Y: 2c	SP: f0
f1b1	0	INY	A: ff	X: 4	Y: 2d	SP: f0
f1b2	0	INY	A: ff	X: 4	Y: 2e	SP: f0
f1b3	0	INY	A: ff	X: 4	Y: 2f	SP: f0
f1b4	0	DEX	A: ff	X: 4	Y: 30	SP: f0
f1b5	f1ae	BNE	A: ff	X: 3	Y: 30	SP: f0
f1ae	230	STA	A: ff	X: 3	Y: 30	SP: f0
f1b0	0	INY	A: ff	X: 3	Y: 30	SP: f0
f1b1	0	INY	A: ff	X: 3	Y: 31	SP: f0
f1b2	0	INY	A: ff	X: 3	Y: 32	SP: f0
f1b3	0	INY	A: ff	X: 3	Y: 33	SP: f0
f1b4	0	DEX	A: ff	X: 3	Y: 34	SP: f0
f1b5	f1ae	BNE	A: ff	X: 2	Y: 34	SP: f0
f1ae	234	STA	A: ff	X: 2	Y: 34	SP: f0
f1b0	0	INY	A: ff	X: 2	Y: 34	SP: f0
f1b1	0	INY	A: ff	X: 2	Y: 35	SP: f0
f1b2	0	INY	A: ff	X: 2	Y: 36	SP: f0
f1b3	0	INY	A: ff	X: 2	Y: 37	SP: f0
f1b4	0	DEX	A: ff	X: 2	Y: 38	SP: f0
f1b5	f1ae	BNE	A: ff	X: 1	Y: 38	SP: f0
f1ae	238	STA	A: ff	X: 1	Y: 38	SP: f0
f1b0	0	INY	A: ff	X: 1	Y: 38	SP: f0
f1b1	0	INY	A: ff	X: 1	Y: 39	SP: f0
f1b2	0	INY	A: ff	X: 1	Y: 3a	SP: f0
f1b3	0	INY	A: ff	X: 1	Y: 3b	SP: f0
f1b4	0	DEX	A: ff	X: 1	Y: 3c	SP: f0
f1b5	f1ae	BNE	A: ff	X: 0	Y: 3c	SP: f0
f1b7	0	LDA	A: ff	X: 0	Y: 3c	SP: f0
f1b9	0	CLC	A: 0	X: 0	Y: 3c	SP: f0
f1ba	f1bb	ADC	A: 0	X: 0	Y: 3c	SP: f0
f1bc	0	STA	A: 8	X: 0	Y: 3c	SP: f0
f1be	7	DEC	A: 8	X: 0	Y: 3c	SP: f0
f1c0	f1a6	BNE	A: 8	X: 0	Y: 3c	SP: f0
f1a6	6	LDX	A: 8	X: 0	Y: 3c	SP: f0
f1a8	1	LDA	A: 8	X: f	Y: 3c	SP: f0
f1aa	9	STA	A: ff	X: f	Y: 3c	SP: f0
f1ac	f1ad	LDA	A: ff	X: f	Y: 3c	SP: f0
f1ae	23c	STA	A: ff	X: f	Y: 3c	SP: f0
f1b0	0	INY	A: ff	X: f	Y: 3c	SP: f0
f1b1	0	INY	A: ff	X: f	Y: 3d	SP: f0
f1b2	0	INY	A: ff	X: f	Y: 3e	SP: f0
f1b3	0	INY	A: ff	X: f	Y: 3f	SP: f0
f1b4	0	DEX	A: ff	X: f	Y: 40	SP: f0
f1b5	f1ae	BNE	A: ff	X: e	Y: 40	SP: f0
f1ae	240	STA	A: ff	X: e	Y: 40	SP: f0
f1b0	0	INY	A: ff	X: e	Y: 40	SP: f0
f1b1	0	INY	A: ff	X: e	Y: 41	SP: f0
f1b2	0	INY	A: ff	X: e	Y: 42	SP: f0
f1b3	0	INY	A: ff	X: e	Y: 43	SP: f0
f1b4	0	DEX	A: ff	X: e	Y: 44	SP: f0
f1b5	f1ae	BNE	A: ff	X: d	Y: 44	SP: f0
f1ae	244	STA	A: ff	X: d	Y: 44	SP: f0
f1b0	0	INY	A: ff	X: d	Y: 44	SP: f0
f1b1	0	INY	A: ff	X: d	Y: 45	SP: f0
f1b2	0	INY	A: ff	X: d	Y: 46	SP: f0
f1b3	0	INY	A: ff	X: d	Y: 47	SP: f0
f1b4	0	DEX	A: ff	X: d	Y: 48	SP: f0
f1b5	f1ae	BNE	A: ff	X: c	Y: 48	SP: f0
f1ae	248	STA	A: ff	X: c	Y: 48	SP: f0
f1b0	0	INY	A: ff	X: c	Y: 48	SP: f0
f1b1	0	INY	A: ff	X: c	Y: 49	SP: f0
f1b2	0	INY	A: ff	X: c	Y: 4a	SP: f0
f1b3	0	INY	A: ff	X: c	Y: 4b	SP: f0
f1b4	0	DEX	A: ff	X: c	Y: 4c	SP: f0
f1b5	f1ae	BNE	A: ff	X: b	Y: 4c	SP: f0
f1ae	24c	STA	A: ff	X: b	Y: 4c	SP: f0
f1b0	0	INY	A: ff	X: b	Y: 4c	SP: f0
f1b1	0	INY	A: ff	X: b	Y: 4d	SP: f0
f1b2	0	INY	A: ff	X: b	Y: 4e	SP: f0
f1b3	0	INY	A: ff	X: b	Y: 4f	SP: f0
f1b4	0	DEX	A: ff	X: b	Y: 50	SP: f0
f1b5	f1ae	BNE	A: ff	X: a	Y: 50	SP: f0
f1ae	250	STA	A: ff	X: a	Y: 50	SP: f0
f1b0	0	INY	A: ff	X: a	Y: 50	SP: f0
f1b1	0	INY	A: ff	X: a	Y: 51	SP: f0
f1b2	0	INY	A: ff	X: a	Y: 52	SP: f0
f1b3	0	INY	A: ff	X: a	Y: 53	SP: f0
f1b4	0	DEX	A: ff	X: a	Y: 54	SP: f0
f1b5	f1ae	BNE	A: ff	X: 9	Y: 54	SP: f0
f1ae	254	STA	A: ff	X: 9	Y: 54	SP: f0
f1b0	0	INY	A: ff	X: 9	Y: 54	SP: f0
f1b1	0	INY	A: ff	X: 9	Y: 55	SP: f0
f1b2	0	INY	A: ff	X: 9	Y: 56	SP: f0
f1b3	0	INY	A: ff	X: 9	Y: 57	SP: f0
f1b4	0	DEX	A: ff	X: 9	Y: 58	SP: f0
f1b5	f1ae	BNE	A: ff	X: 8	Y: 58	SP: f0
f1ae	258	STA	A: ff	X: 8	Y: 58	SP: f0
f1b0	0	INY	A: ff	X: 8	Y: 58	SP: f0
f1b1	0	INY	A: ff	X: 8	Y: 59	SP: f0
f1b2	0	INY	A: ff	X: 8	Y: 5a	SP: f0
f1b3	0	INY	A: ff	X: 8	Y: 5b	SP: f0
f1b4	0	DEX	A: ff	X: 8	Y: 5c	SP: f0
f1b5	f1ae	BNE	A: ff	X: 7	Y: 5c	SP: f0
f1ae	25c	STA	A: ff	X: 7	Y: 5c	SP: f0
f1b0	0	INY	A: ff	X: 7	Y: 5c	SP: f0
f1b1	0	INY	A: ff	X: 7	Y: 5d	SP: f0
f1b2	0	INY	A: ff	X: 7	Y: 5e	SP: f0
f1b3	0	INY	A: ff	X: 7	Y: 5f	SP: f0
f1b4	0	DEX	A: ff	X: 7	Y: 60	SP: f0
f1b5	f1ae	BNE	A: ff	X: 6	Y: 60	SP: f0
f1ae	260	STA	A: ff	X: 6	Y: 60	SP: f0
f1b0	0	INY	A: ff	X: 6	Y: 60	SP: f0
f1b1	0	INY	A: ff	X: 6	Y: 61	SP: f0
f1b2	0	INY	A: ff	X: 6	Y: 62	SP: f0
f1b3	0	INY	A: ff	X: 6	Y: 63	SP: f0
f1b4	0	DEX	A: ff	X: 6	Y: 64	SP: f0
f1b5	f1ae	BNE	A: ff	X: 5	Y: 64	SP: f0
f1ae	264	STA	A: ff	X: 5	Y: 64	SP: f0
f1b0	0	INY	A: ff	X: 5	Y: 64	SP: f0
f1b1	0	INY	A: ff	X: 5	Y: 65	SP: f0
f1b2	0	INY	A: ff	X: 5	Y: 66	SP: f0
f1b3	0	INY	A: ff	X: 5	Y: 67	SP: f0
f1b4	0	DEX	A: ff	X: 5	Y: 68	SP: f0
f1b5	f1ae	BNE	A: ff	X: 4	Y: 68	SP: f0
f1ae	268	STA	A: ff	X: 4	Y: 68	SP: f0
f1b0	0	INY	A: ff	X: 4	Y: 68	SP: f0
f1b1	0	INY	A: ff	X: 4	Y: 69	SP: f0
f1b2	0	INY	A: ff	X: 4	Y: 6a	SP: f0
f1b3	0	INY	A: ff	X: 4	Y: 6b	SP: f0
f1b4	0	DEX	A: ff	X: 4	Y: 6c	SP: f0
f1b5	f1ae	BNE	A: ff	X: 3	Y: 6c	SP: f0
f1ae	26c	STA	A: ff	X: 3	Y: 6c	SP: f0
f1b0	0	INY	A: ff	X: 3	Y: 6c	SP: f0
f1b1	0	INY	A: ff	X: 3	Y: 6d	SP: f0
f1b2	0	INY	A: ff	X: 3	Y: 6e	SP: f0
f1b3	0	INY	A: ff	X: 3	Y: 6f	SP: f0
f1b4	0	DEX	A: ff	X: 3	Y: 70	SP: f0
f1b5	f1ae	BNE	A: ff	X: 2	Y: 70	SP: f0
f1ae	270	STA	A: ff	X: 2	Y: 70	SP: f0
f1b0	0	INY	A: ff	X: 2	Y: 70	SP: f0
f1b1	0	INY	A: ff	X: 2	Y: 71	SP: f0
f1b2	0	INY	A: ff	X: 2	Y: 72	SP: f0
f1b3	0	INY	A: ff	X: 2	Y: 73	SP: f0
f1b4	0	DEX	A: ff	X: 2	Y: 74	SP: f0
f1b5	f1ae	BNE	A: ff	X: 1	Y: 74	SP: f0
f1ae	274	STA	A: ff	X: 1	Y: 74	SP: f0
f1b0	0	INY	A: ff	X: 1	Y: 74	SP: f0
f1b1	0	INY	A: ff	X: 1	Y: 75	SP: f0
f1b2	0	INY	A: ff	X: 1	Y: 76	SP: f0
f1b3	0	INY	A: ff	X: 1	Y: 77	SP: f0
f1b4	0	DEX	A: ff	X: 1	Y: 78	SP: f0
f1b5	f1ae	BNE	A: ff	X: 0	Y: 78	SP: f0
f1b7	0	LDA	A: ff	X: 0	Y: 78	SP: f0
f1b9	0	CLC	A: 8	X: 0	Y: 78	SP: f0
f1ba	f1bb	ADC	A: 8	X: 0	Y: 78	SP: f0
f1bc	0	STA	A: 10	X: 0	Y: 78	SP: f0
f1be	7	DEC	A: 10	X: 0	Y: 78	SP: f0
f1c0	f1a6	BNE	A: 10	X: 0	Y: 78	SP: f0
f1a6	6	LDX	A: 10	X: 0	Y: 78	SP: f0
f1a8	1	LDA	A: 10	X: f	Y: 78	SP: f0
f1aa	9	STA	A: ff	X: f	Y: 78	SP: f0
f1ac	f1ad	LDA	A: ff	X: f	Y: 78	SP: f0
f1ae	278	STA	A: ff	X: f	Y: 78	SP: f0
f1b0	0	INY	A: ff	X: f	Y: 78	SP: f0
f1b1	0	INY	A: ff	X: f	Y: 79	SP: f0
f1b2	0	INY	A: ff	X: f	Y: 7a	SP: f0
f1b3	0	INY	A: ff	X: f	Y: 7b	SP: f0
f1b4	0	DEX	A: ff	X: f	Y: 7c	SP: f0
f1b5	f1ae	BNE	A: ff	X: e	Y: 7c	SP: f0
f1ae	27c	STA	A: ff	X: e	Y: 7c	SP: f0
f1b0	0	INY	A: ff	X: e	Y: 7c	SP: f0
f1b1	0	INY	A: ff	X: e	Y: 7d	SP: f0
f1b2	0	INY	A: ff	X: e	Y: 7e	SP: f0
f1b3	0	INY	A: ff	X: e	Y: 7f	SP: f0
f1b4	0	DEX	A: ff	X: e	Y: 80	SP: f0
f1b5	f1ae	BNE	A: ff	X: d	Y: 80	SP: f0
f1ae	280	STA	A: ff	X: d	Y: 80	SP: f0
f1b0	0	INY	A: ff	X: d	Y: 80	SP: f0
f1b1	0	INY	A: ff	X: d	Y: 81	SP: f0
f1b2	0	INY	A: ff	X: d	Y: 82	SP: f0
f1b3	0	INY	A: ff	X: d	Y: 83	SP: f0
f1b4	0	DEX	A: ff	X: d	Y: 84	SP: f0
f1b5	f1ae	BNE	A: ff	X: c	Y: 84	SP: f0
f1ae	284	STA	A: ff	X: c	Y: 84	SP: f0
f1b0	0	INY	A: ff	X: c	Y: 84	SP: f0
f1b1	0	INY	A: ff	X: c	Y: 85	SP: f0
f1b2	0	INY	A: ff	X: c	Y: 86	SP: f0
f1b3	0	INY	A: ff	X: c	Y: 87	SP: f0
f1b4	0	DEX	A: ff	X: c	Y: 88	SP: f0
f1b5	f1ae	BNE	A: ff	X: b	Y: 88	SP: f0
f1ae	288	STA	A: ff	X: b	Y: 88	SP: f0
f1b0	0	INY	A: ff	X: b	Y: 88	SP: f0
f1b1	0	INY	A: ff	X: b	Y: 89	SP: f0
f1b2	0	INY	A: ff	X: b	Y: 8a	SP: f0
f1b3	0	INY	A: ff	X: b	Y: 8b	SP: f0
f1b4	0	DEX	A: ff	X: b	Y: 8c	SP: f0
f1b5	f1ae	BNE	A: ff	X: a	Y: 8c	SP: f0
f1ae	28c	STA	A: ff	X: a	Y: 8c	SP: f0
f1b0	0	INY	A: ff	X: a	Y: 8c	SP: f0
f1b1	0	INY	A: ff	X: a	Y: 8d	SP: f0
f1b2	0	INY	A: ff	X: a	Y: 8e	SP: f0
f1b3	0	INY	A: ff	X: a	Y: 8f	SP: f0
f1b4	0	DEX	A: ff	X: a	Y: 90	SP: f0
f1b5	f1ae	BNE	A: ff	X: 9	Y: 90	SP: f0
f1ae	290	STA	A: ff	X: 9	Y: 90	SP: f0
f1b0	0	INY	A: ff	X: 9	Y: 90	SP: f0
f1b1	0	INY	A: ff	X: 9	Y: 91	SP: f0
f1b2	0	INY	A: ff	X: 9	Y: 92	SP: f0
f1b3	0	INY	A: ff	X: 9	Y: 93	SP: f0
f1b4	0	DEX	A: ff	X: 9	Y: 94	SP: f0
f1b5	f1ae	BNE	A: ff	X: 8	Y: 94	SP: f0
f1ae	294	STA	A: ff	X: 8	Y: 94	SP: f0
f1b0	0	INY	A: ff	X: 8	Y: 94	SP: f0
f1b1	0	INY	A: ff	X: 8	Y: 95	SP: f0
f1b2	0	INY	A: ff	X: 8	Y: 96	SP: f0
f1b3	0	INY	A: ff	X: 8	Y: 97	SP: f0
f1b4	0	DEX	A: ff	X: 8	Y: 98	SP: f0
f1b5	f1ae	BNE	A: ff	X: 7	Y: 98	SP: f0
f1ae	298	STA	A: ff	X: 7	Y: 98	SP: f0
f1b0	0	INY	A: ff	X: 7	Y: 98	SP: f0
f1b1	0	INY	A: ff	X: 7	Y: 99	SP: f0
f1b2	0	INY	A: ff	X: 7	Y: 9a	SP: f0
f1b3	0	INY	A: ff	X: 7	Y: 9b	SP: f0
f1b4	0	DEX	A: ff	X: 7	Y: 9c	SP: f0
f1b5	f1ae	BNE	A: ff	X: 6	Y: 9c	SP: f0
f1ae	29c	STA	A: ff	X: 6	Y: 9c	SP: f0
f1b0	0	INY	A: ff	X: 6	Y: 9c	SP: f0
f1b1	0	INY	A: ff	X: 6	Y: 9d	SP: f0
f1b2	0	INY	A: ff	X: 6	Y: 9e	SP: f0
f1b3	0	INY	A: ff	X: 6	Y: 9f	SP: f0
f1b4	0	DEX	A: ff	X: 6	Y: a0	SP: f0
f1b5	f1ae	BNE	A: ff	X: 5	Y: a0	SP: f0
f1ae	2a0	STA	A: ff	X: 5	Y: a0	SP: f0
f1b0	0	INY	A: ff	X: 5	Y: a0	SP: f0
f1b1	0	INY	A: ff	X: 5	Y: a1	SP: f0
f1b2	0	INY	A: ff	X: 5	Y: a2	SP: f0
f1b3	0	INY	A: ff	X: 5	Y: a3	SP: f0
f1b4	0	DEX	A: ff	X: 5	Y: a4	SP: f0
f1b5	f1ae	BNE	A: ff	X: 4	Y: a4	SP: f0
f1ae	2a4	STA	A: ff	X: 4	Y: a4	SP: f0
f1b0	0	INY	A: ff	X: 4	Y: a4	SP: f0
f1b1	0	INY	A: ff	X: 4	Y: a5	SP: f0
f1b2	0	INY	A: ff	X: 4	Y: a6	SP: f0
f1b3	0	INY	A: ff	X: 4	Y: a7	SP: f0
f1b4	0	DEX	A: ff	X: 4	Y: a8	SP: f0
f1b5	f1ae	BNE	A: ff	X: 3	Y: a8	SP: f0
f1ae	2a8	STA	A: ff	X: 3	Y: a8	SP: f0
f1b0	0	INY	A: ff	X: 3	Y: a8	SP: f0
f1b1	0	INY	A: ff	X: 3	Y: a9	SP: f0
f1b2	0	INY	A: ff	X: 3	Y: aa	SP: f0
f1b3	0	INY	A: ff	X: 3	Y: ab	SP: f0
f1b4	0	DEX	A: ff	X: 3	Y: ac	SP: f0
f1b5	f1ae	BNE	A: ff	X: 2	Y: ac	SP: f0
f1ae	2ac	STA	A: ff	X: 2	Y: ac	SP: f0
f1b0	0	INY	A: ff	X: 2	Y: ac	SP: f0
f1b1	0	INY	A: ff	X: 2	Y: ad	SP: f0
f1b2	0	INY	A: ff	X: 2	Y: ae	SP: f0
f1b3	0	INY	A: ff	X: 2	Y: af	SP: f0
f1b4	0	DEX	A: ff	X: 2	Y: b0	SP: f0
f1b5	f1ae	BNE	A: ff	X: 1	Y: b0	SP: f0
f1ae	2b0	STA	A: ff	X: 1	Y: b0	SP: f0
f1b0	0	INY	A: ff	X: 1	Y: b0	SP: f0
f1b1	0	INY	A: ff	X: 1	Y: b1	SP: f0
f1b2	0	INY	A: ff	X: 1	Y: b2	SP: f0
f1b3	0	INY	A: ff	X: 1	Y: b3	SP: f0
f1b4	0	DEX	A: ff	X: 1	Y: b4	SP: f0
f1b5	f1ae	BNE	A: ff	X: 0	Y: b4	SP: f0
f1b7	0	LDA	A: ff	X: 0	Y: b4	SP: f0
f1b9	0	CLC	A: 10	X: 0	Y: b4	SP: f0
f1ba	f1bb	ADC	A: 10	X: 0	Y: b4	SP: f0
f1bc	0	STA	A: 18	X: 0	Y: b4	SP: f0
f1be	7	DEC	A: 18	X: 0	Y: b4	SP: f0
f1c0	f1a6	BNE	A: 18	X: 0	Y: b4	SP: f0
f1a6	6	LDX	A: 18	X: 0	Y: b4	SP: f0
f1a8	1	LDA	A: 18	X: f	Y: b4	SP: f0
f1aa	9	STA	A: ff	X: f	Y: b4	SP: f0
f1ac	f1ad	LDA	A: ff	X: f	Y: b4	SP: f0
f1ae	2b4	STA	A: ff	X: f	Y: b4	SP: f0
f1b0	0	INY	A: ff	X: f	Y: b4	SP: f0
f1b1	0	INY	A: ff	X: f	Y: b5	SP: f0
f1b2	0	INY	A: ff	X: f	Y: b6	SP: f0
f1b3	0	INY	A: ff	X: f	Y: b7	SP: f0
f1b4	0	DEX	A: ff	X: f	Y: b8	SP: f0
f1b5	f1ae	BNE	A: ff	X: e	Y: b8	SP: f0
f1ae	2b8	STA	A: ff	X: e	Y: b8	SP: f0
f1b0	0	INY	A: ff	X: e	Y: b8	SP: f0
f1b1	0	INY	A: ff	X: e	Y: b9	SP: f0
f1b2	0	INY	A: ff	X: e	Y: ba	SP: f0
f1b3	0	INY	A: ff	X: e	Y: bb	SP: f0
f1b4	0	DEX	A: ff	X: e	Y: bc	SP: f0
f1b5	f1ae	BNE	A: ff	X: d	Y: bc	SP: f0
f1ae	2bc	STA	A: ff	X: d	Y: bc	SP: f0
f1b0	0	INY	A: ff	X: d	Y: bc	SP: f0
f1b1	0	INY	A: ff	X: d	Y: bd	SP: f0
f1b2	0	INY	A: ff	X: d	Y: be	SP: f0
f1b3	0	INY	A: ff	X: d	Y: bf	SP: f0
f1b4	0	DEX	A: ff	X: d	Y: c0	SP: f0
f1b5	f1ae	BNE	A: ff	X: c	Y: c0	SP: f0
f1ae	2c0	STA	A: ff	X: c	Y: c0	SP: f0
f1b0	0	INY	A: ff	X: c	Y: c0	SP: f0
f1b1	0	INY	A: ff	X: c	Y: c1	SP: f0
f1b2	0	INY	A: ff	X: c	Y: c2	SP: f0
f1b3	0	INY	A: ff	X: c	Y: c3	SP: f0
f1b4	0	DEX	A: ff	X: c	Y: c4	SP: f0
f1b5	f1ae	BNE	A: ff	X: b	Y: c4	SP: f0
f1ae	2c4	STA	A: ff	X: b	Y: c4	SP: f0
f1b0	0	INY	A: ff	X: b	Y: c4	SP: f0
f1b1	0	INY	A: ff	X: b	Y: c5	SP: f0
f1b2	0	INY	A: ff	X: b	Y: c6	SP: f0
f1b3	0	INY	A: ff	X: b	Y: c7	SP: f0
f1b4	0	DEX	A: ff	X: b	Y: c8	SP: f0
f1b5	f1ae	BNE	A: ff	X: a	Y: c8	SP: f0
f1ae	2c8	STA	A: ff	X: a	Y: c8	SP: f0
f1b0	0	INY	A: ff	X: a	Y: c8	SP: f0
f1b1	0	INY	A: ff	X: a	Y: c9	SP: f0
f1b2	0	INY	A: ff	X: a	Y: ca	SP: f0
f1b3	0	INY	A: ff	X: a	Y: cb	SP: f0
f1b4	0	DEX	A: ff	X: a	Y: cc	SP: f0
f1b5	f1ae	BNE	A: ff	X: 9	Y: cc	SP: f0
f1ae	2cc	STA	A: ff	X: 9	Y: cc	SP: f0
f1b0	0	INY	A: ff	X: 9	Y: cc	SP: f0
f1b1	0	INY	A: ff	X: 9	Y: cd	SP: f0
f1b2	0	INY	A: ff	X: 9	Y: ce	SP: f0
f1b3	0	INY	A: ff	X: 9	Y: cf	SP: f0
f1b4	0	DEX	A: ff	X: 9	Y: d0	SP: f0
f1b5	f1ae	BNE	A: ff	X: 8	Y: d0	SP: f0
f1ae	2d0	STA	A: ff	X: 8	Y: d0	SP: f0
f1b0	0	INY	A: ff	X: 8	Y: d0	SP: f0
f1b1	0	INY	A: ff	X: 8	Y: d1	SP: f0
f1b2	0	INY	A: ff	X: 8	Y: d2	SP: f0
f1b3	0	INY	A: ff	X: 8	Y: d3	SP: f0
f1b4	0	DEX	A: ff	X: 8	Y: d4	SP: f0
f1b5	f1ae	BNE	A: ff	X: 7	Y: d4	SP: f0
f1ae	2d4	STA	A: ff	X: 7	Y: d4	SP: f0
f1b0	0	INY	A: ff	X: 7	Y: d4	SP: f0
f1b1	0	INY	A: ff	X: 7	Y: d5	SP: f0
f1b2	0	INY	A: ff	X: 7	Y: d6	SP: f0
f1b3	0	INY	A: ff	X: 7	Y: d7	SP: f0
f1b4	0	DEX	A: ff	X: 7	Y: d8	SP: f0
f1b5	f1ae	BNE	A: ff	X: 6	Y: d8	SP: f0
f1ae	2d8	STA	A: ff	X: 6	Y: d8	SP: f0
f1b0	0	INY	A: ff	X: 6	Y: d8	SP: f0
f1b1	0	INY	A: ff	X: 6	Y: d9	SP: f0
f1b2	0	INY	A: ff	X: 6	Y: da	SP: f0
f1b3	0	INY	A: ff	X: 6	Y: db	SP: f0
f1b4	0	DEX	A: ff	X: 6	Y: dc	SP: f0
f1b5	f1ae	BNE	A: ff	X: 5	Y: dc	SP: f0
f1ae	2dc	STA	A: ff	X: 5	Y: dc	SP: f0
f1b0	0	INY	A: ff	X: 5	Y: dc	SP: f0
f1b1	0	INY	A: ff	X: 5	Y: dd	SP: f0
f1b2	0	INY	A: ff	X: 5	Y: de	SP: f0
f1b3	0	INY	A: ff	X: 5	Y: df	SP: f0
f1b4	0	DEX	A: ff	X: 5	Y: e0	SP: f0
f1b5	f1ae	BNE	A: ff	X: 4	Y: e0	SP: f0
f1ae	2e0	STA	A: ff	X: 4	Y: e0	SP: f0
f1b0	0	INY	A: ff	X: 4	Y: e0	SP: f0
f1b1	0	INY	A: ff	X: 4	Y: e1	SP: f0
f1b2	0	INY	A: ff	X: 4	Y: e2	SP: f0
f1b3	0	INY	A: ff	X: 4	Y: e3	SP: f0
f1b4	0	DEX	A: ff	X: 4	Y: e4	SP: f0
f1b5	f1ae	BNE	A: ff	X: 3	Y: e4	SP: f0
f1ae	2e4	STA	A: ff	X: 3	Y: e4	SP: f0
f1b0	0	INY	A: ff	X: 3	Y: e4	SP: f0
f1b1	0	INY	A: ff	X: 3	Y: e5	SP: f0
f1b2	0	INY	A: ff	X: 3	Y: e6	SP: f0
f1b3	0	INY	A: ff	X: 3	Y: e7	SP: f0
f1b4	0	DEX	A: ff	X: 3	Y: e8	SP: f0
f1b5	f1ae	BNE	A: ff	X: 2	Y: e8	SP: f0
f1ae	2e8	STA	A: ff	X: 2	Y: e8	SP: f0
f1b0	0	INY	A: ff	X: 2	Y: e8	SP: f0
f1b1	0	INY	A: ff	X: 2	Y: e9	SP: f0
f1b2	0	INY	A: ff	X: 2	Y: ea	SP: f0
f1b3	0	INY	A: ff	X: 2	Y: eb	SP: f0
f1b4	0	DEX	A: ff	X: 2	Y: ec	SP: f0
f1b5	f1ae	BNE	A: ff	X: 1	Y: ec	SP: f0
f1ae	2ec	STA	A: ff	X: 1	Y: ec	SP: f0
f1b0	0	INY	A: ff	X: 1	Y: ec	SP: f0
f1b1	0	INY	A: ff	X: 1	Y: ed	SP: f0
f1b2	0	INY	A: ff	X: 1	Y: ee	SP: f0
f1b3	0	INY	A: ff	X: 1	Y: ef	SP: f0
f1b4	0	DEX	A: ff	X: 1	Y: f0	SP: f0
f1b5	f1ae	BNE	A: ff	X: 0	Y: f0	SP: f0
f1b7	0	LDA	A: ff	X: 0	Y: f0	SP: f0
f1b9	0	CLC	A: 18	X: 0	Y: f0	SP: f0
f1ba	f1bb	ADC	A: 18	X: 0	Y: f0	SP: f0
f1bc	0	STA	A: 20	X: 0	Y: f0	SP: f0
f1be	7	DEC	A: 20	X: 0	Y: f0	SP: f0
f1c0	f1a6	BNE	A: 20	X: 0	Y: f0	SP: f0
f1a6	6	LDX	A: 20	X: 0	Y: f0	SP: f0
f1a8	1	LDA	A: 20	X: f	Y: f0	SP: f0
f1aa	9	STA	A: ff	X: f	Y: f0	SP: f0
f1ac	f1ad	LDA	A: ff	X: f	Y: f0	SP: f0
f1ae	2f0	STA	A: ff	X: f	Y: f0	SP: f0
f1b0	0	INY	A: ff	X: f	Y: f0	SP: f0
f1b1	0	INY	A: ff	X: f	Y: f1	SP: f0
f1b2	0	INY	A: ff	X: f	Y: f2	SP: f0
f1b3	0	INY	A: ff	X: f	Y: f3	SP: f0
f1b4	0	DEX	A: ff	X: f	Y: f4	SP: f0
f1b5	f1ae	BNE	A: ff	X: e	Y: f4	SP: f0
f1ae	2f4	STA	A: ff	X: e	Y: f4	SP: f0
f1b0	0	INY	A: ff	X: e	Y: f4	SP: f0
f1b1	0	INY	A: ff	X: e	Y: f5	SP: f0
f1b2	0	INY	A: ff	X: e	Y: f6	SP: f0
f1b3	0	INY	A: ff	X: e	Y: f7	SP: f0
f1b4	0	DEX	A: ff	X: e	Y: f8	SP: f0
f1b5	f1ae	BNE	A: ff	X: d	Y: f8	SP: f0
f1ae	2f8	STA	A: ff	X: d	Y: f8	SP: f0
f1b0	0	INY	A: ff	X: d	Y: f8	SP: f0
f1b1	0	INY	A: ff	X: d	Y: f9	SP: f0
f1b2	0	INY	A: ff	X: d	Y: fa	SP: f0
f1b3	0	INY	A: ff	X: d	Y: fb	SP: f0
f1b4	0	DEX	A: ff	X: d	Y: fc	SP: f0
f1b5	f1ae	BNE	A: ff	X: c	Y: fc	SP: f0
f1ae	2fc	STA	A: ff	X: c	Y: fc	SP: f0
f1b0	0	INY	A: ff	X: c	Y: fc	SP: f0
f1b1	0	INY	A: ff	X: c	Y: fd	SP: f0
f1b2	0	INY	A: ff	X: c	Y: fe	SP: f0
f1b3	0	INY	A: ff	X: c	Y: ff	SP: f0
f1b4	0	DEX	A: ff	X: c	Y: 0	SP: f0
f1b5	f1ae	BNE	A: ff	X: b	Y: 0	SP: f0
f1ae	200	STA	A: ff	X: b	Y: 0	SP: f0
f1b0	0	INY	A: ff	X: b	Y: 0	SP: f0
f1b1	0	INY	A: ff	X: b	Y: 1	SP: f0
f1b2	0	INY	A: ff	X: b	Y: 2	SP: f0
f1b3	0	INY	A: ff	X: b	Y: 3	SP: f0
f1b4	0	DEX	A: ff	X: b	Y: 4	SP: f0
f1b5	f1ae	BNE	A: ff	X: a	Y: 4	SP: f0
f1ae	204	STA	A: ff	X: a	Y: 4	SP: f0
f1b0	0	INY	A: ff	X: a	Y: 4	SP: f0
f1b1	0	INY	A: ff	X: a	Y: 5	SP: f0
f1b2	0	INY	A: ff	X: a	Y: 6	SP: f0
f1b3	0	INY	A: ff	X: a	Y: 7	SP: f0
f1b4	0	DEX	A: ff	X: a	Y: 8	SP: f0
f1b5	f1ae	BNE	A: ff	X: 9	Y: 8	SP: f0
f1ae	208	STA	A: ff	X: 9	Y: 8	SP: f0
f1b0	0	INY	A: ff	X: 9	Y: 8	SP: f0
f1b1	0	INY	A: ff	X: 9	Y: 9	SP: f0
f1b2	0	INY	A: ff	X: 9	Y: a	SP: f0
f1b3	0	INY	A: ff	X: 9	Y: b	SP: f0
f1b4	0	DEX	A: ff	X: 9	Y: c	SP: f0
f1b5	f1ae	BNE	A: ff	X: 8	Y: c	SP: f0
f1ae	20c	STA	A: ff	X: 8	Y: c	SP: f0
f1b0	0	INY	A: ff	X: 8	Y: c	SP: f0
f1b1	0	INY	A: ff	X: 8	Y: d	SP: f0
f1b2	0	INY	A: ff	X: 8	Y: e	SP: f0
f1b3	0	INY	A: ff	X: 8	Y: f	SP: f0
f1b4	0	DEX	A: ff	X: 8	Y: 10	SP: f0
f1b5	f1ae	BNE	A: ff	X: 7	Y: 10	SP: f0
f1ae	210	STA	A: ff	X: 7	Y: 10	SP: f0
f1b0	0	INY	A: ff	X: 7	Y: 10	SP: f0
f1b1	0	INY	A: ff	X: 7	Y: 11	SP: f0
f1b2	0	INY	A: ff	X: 7	Y: 12	SP: f0
f1b3	0	INY	A: ff	X: 7	Y: 13	SP: f0
f1b4	0	DEX	A: ff	X: 7	Y: 14	SP: f0
f1b5	f1ae	BNE	A: ff	X: 6	Y: 14	SP: f0
f1ae	214	STA	A: ff	X: 6	Y: 14	SP: f0
f1b0	0	INY	A: ff	X: 6	Y: 14	SP: f0
f1b1	0	INY	A: ff	X: 6	Y: 15	SP: f0
f1b2	0	INY	A: ff	X: 6	Y: 16	SP: f0
f1b3	0	INY	A: ff	X: 6	Y: 17	SP: f0
f1b4	0	DEX	A: ff	X: 6	Y: 18	SP: f0
f1b5	f1ae	BNE	A: ff	X: 5	Y: 18	SP: f0
f1ae	218	STA	A: ff	X: 5	Y: 18	SP: f0
f1b0	0	INY	A: ff	X: 5	Y: 18	SP: f0
f1b1	0	INY	A: ff	X: 5	Y: 19	SP: f0
f1b2	0	INY	A: ff	X: 5	Y: 1a	SP: f0
f1b3	0	INY	A: ff	X: 5	Y: 1b	SP: f0
f1b4	0	DEX	A: ff	X: 5	Y: 1c	SP: f0
f1b5	f1ae	BNE	A: ff	X: 4	Y: 1c	SP: f0
f1ae	21c	STA	A: ff	X: 4	Y: 1c	SP: f0
f1b0	0	INY	A: ff	X: 4	Y: 1c	SP: f0
f1b1	0	INY	A: ff	X: 4	Y: 1d	SP: f0
f1b2	0	INY	A: ff	X: 4	Y: 1e	SP: f0
f1b3	0	INY	A: ff	X: 4	Y: 1f	SP: f0
f1b4	0	DEX	A: ff	X: 4	Y: 20	SP: f0
f1b5	f1ae	BNE	A: ff	X: 3	Y: 20	SP: f0
f1ae	220	STA	A: ff	X: 3	Y: 20	SP: f0
f1b0	0	INY	A: ff	X: 3	Y: 20	SP: f0
f1b1	0	INY	A: ff	X: 3	Y: 21	SP: f0
f1b2	0	INY	A: ff	X: 3	Y: 22	SP: f0
f1b3	0	INY	A: ff	X: 3	Y: 23	SP: f0
f1b4	0	DEX	A: ff	X: 3	Y: 24	SP: f0
f1b5	f1ae	BNE	A: ff	X: 2	Y: 24	SP: f0
f1ae	224	STA	A: ff	X: 2	Y: 24	SP: f0
f1b0	0	INY	A: ff	X: 2	Y: 24	SP: f0
f1b1	0	INY	A: ff	X: 2	Y: 25	SP: f0
f1b2	0	INY	A: ff	X: 2	Y: 26	SP: f0
f1b3	0	INY	A: ff	X: 2	Y: 27	SP: f0
f1b4	0	DEX	A: ff	X: 2	Y: 28	SP: f0
f1b5	f1ae	BNE	A: ff	X: 1	Y: 28	SP: f0
f1ae	228	STA	A: ff	X: 1	Y: 28	SP: f0
f1b0	0	INY	A: ff	X: 1	Y: 28	SP: f0
f1b1	0	INY	A: ff	X: 1	Y: 29	SP: f0
f1b2	0	INY	A: ff	X: 1	Y: 2a	SP: f0
f1b3	0	INY	A: ff	X: 1	Y: 2b	SP: f0
f1b4	0	DEX	A: ff	X: 1	Y: 2c	SP: f0
f1b5	f1ae	BNE	A: ff	X: 0	Y: 2c	SP: f0
f1b7	0	LDA	A: ff	X: 0	Y: 2c	SP: f0
f1b9	0	CLC	A: 20	X: 0	Y: 2c	SP: f0
f1ba	f1bb	ADC	A: 20	X: 0	Y: 2c	SP: f0
f1bc	0	STA	A: 28	X: 0	Y: 2c	SP: f0
f1be	7	DEC	A: 28	X: 0	Y: 2c	SP: f0
f1c0	f1a6	BNE	A: 28	X: 0	Y: 2c	SP: f0
f1a6	6	LDX	A: 28	X: 0	Y: 2c	SP: f0
f1a8	1	LDA	A: 28	X: f	Y: 2c	SP: f0
f1aa	9	STA	A: ff	X: f	Y: 2c	SP: f0
f1ac	f1ad	LDA	A: ff	X: f	Y: 2c	SP: f0
f1ae	22c	STA	A: ff	X: f	Y: 2c	SP: f0
f1b0	0	INY	A: ff	X: f	Y: 2c	SP: f0
f1b1	0	INY	A: ff	X: f	Y: 2d	SP: f0
f1b2	0	INY	A: ff	X: f	Y: 2e	SP: f0
f1b3	0	INY	A: ff	X: f	Y: 2f	SP: f0
f1b4	0	DEX	A: ff	X: f	Y: 30	SP: f0
f1b5	f1ae	BNE	A: ff	X: e	Y: 30	SP: f0
f1ae	230	STA	A: ff	X: e	Y: 30	SP: f0
f1b0	0	INY	A: ff	X: e	Y: 30	SP: f0
f1b1	0	INY	A: ff	X: e	Y: 31	SP: f0
f1b2	0	INY	A: ff	X: e	Y: 32	SP: f0
f1b3	0	INY	A: ff	X: e	Y: 33	SP: f0
f1b4	0	DEX	A: ff	X: e	Y: 34	SP: f0
f1b5	f1ae	BNE	A: ff	X: d	Y: 34	SP: f0
f1ae	234	STA	A: ff	X: d	Y: 34	SP: f0
f1b0	0	INY	A: ff	X: d	Y: 34	SP: f0
f1b1	0	INY	A: ff	X: d	Y: 35	SP: f0
f1b2	0	INY	A: ff	X: d	Y: 36	SP: f0
f1b3	0	INY	A: ff	X: d	Y: 37	SP: f0
f1b4	0	DEX	A: ff	X: d	Y: 38	SP: f0
f1b5	f1ae	BNE	A: ff	X: c	Y: 38	SP: f0
f1ae	238	STA	A: ff	X: c	Y: 38	SP: f0
f1b0	0	INY	A: ff	X: c	Y: 38	SP: f0
f1b1	0	INY	A: ff	X: c	Y: 39	SP: f0
f1b2	0	INY	A: ff	X: c	Y: 3a	SP: f0
f1b3	0	INY	A: ff	X: c	Y: 3b	SP: f0
f1b4	0	DEX	A: ff	X: c	Y: 3c	SP: f0
f1b5	f1ae	BNE	A: ff	X: b	Y: 3c	SP: f0
f1ae	23c	STA	A: ff	X: b	Y: 3c	SP: f0
f1b0	0	INY	A: ff	X: b	Y: 3c	SP: f0
f1b1	0	INY	A: ff	X: b	Y: 3d	SP: f0
f1b2	0	INY	A: ff	X: b	Y: 3e	SP: f0
f1b3	0	INY	A: ff	X: b	Y: 3f	SP: f0
f1b4	0	DEX	A: ff	X: b	Y: 40	SP: f0
f1b5	f1ae	BNE	A: ff	X: a	Y: 40	SP: f0
f1ae	240	STA	A: ff	X: a	Y: 40	SP: f0
f1b0	0	INY	A: ff	X: a	Y: 40	SP: f0
f1b1	0	INY	A: ff	X: a	Y: 41	SP: f0
f1b2	0	INY	A: ff	X: a	Y: 42	SP: f0
f1b3	0	INY	A: ff	X: a	Y: 43	SP: f0
f1b4	0	DEX	A: ff	X: a	Y: 44	SP: f0
f1b5	f1ae	BNE	A: ff	X: 9	Y: 44	SP: f0
f1ae	244	STA	A: ff	X: 9	Y: 44	SP: f0
f1b0	0	INY	A: ff	X: 9	Y: 44	SP: f0
f1b1	0	INY	A: ff	X: 9	Y: 45	SP: f0
f1b2	0	INY	A: ff	X: 9	Y: 46	SP: f0
f1b3	0	INY	A: ff	X: 9	Y: 47	SP: f0
f1b4	0	DEX	A: ff	X: 9	Y: 48	SP: f0
f1b5	f1ae	BNE	A: ff	X: 8	Y: 48	SP: f0
f1ae	248	STA	A: ff	X: 8	Y: 48	SP: f0
f1b0	0	INY	A: ff	X: 8	Y: 48	SP: f0
f1b1	0	INY	A: ff	X: 8	Y: 49	SP: f0
f1b2	0	INY	A: ff	X: 8	Y: 4a	SP: f0
f1b3	0	INY	A: ff	X: 8	Y: 4b	SP: f0
f1b4	0	DEX	A: ff	X: 8	Y: 4c	SP: f0
f1b5	f1ae	BNE	A: ff	X: 7	Y: 4c	SP: f0
f1ae	24c	STA	A: ff	X: 7	Y: 4c	SP: f0
f1b0	0	INY	A: ff	X: 7	Y: 4c	SP: f0
f1b1	0	INY	A: ff	X: 7	Y: 4d	SP: f0
f1b2	0	INY	A: ff	X: 7	Y: 4e	SP: f0
f1b3	0	INY	A: ff	X: 7	Y: 4f	SP: f0
f1b4	0	DEX	A: ff	X: 7	Y: 50	SP: f0
f1b5	f1ae	BNE	A: ff	X: 6	Y: 50	SP: f0
f1ae	250	STA	A: ff	X: 6	Y: 50	SP: f0
f1b0	0	INY	A: ff	X: 6	Y: 50	SP: f0
f1b1	0	INY	A: ff	X: 6	Y: 51	SP: f0
f1b2	0	INY	A: ff	X: 6	Y: 52	SP: f0
f1b3	0	INY	A: ff	X: 6	Y: 53	SP: f0
f1b4	0	DEX	A: ff	X: 6	Y: 54	SP: f0
f1b5	f1ae	BNE	A: ff	X: 5	Y: 54	SP: f0
f1ae	254	STA	A: ff	X: 5	Y: 54	SP: f0
f1b0	0	INY	A: ff	X: 5	Y: 54	SP: f0
f1b1	0	INY	A: ff	X: 5	Y: 55	SP: f0
f1b2	0	INY	A: ff	X: 5	Y: 56	SP: f0
f1b3	0	INY	A: ff	X: 5	Y: 57	SP: f0
f1b4	0	DEX	A: ff	X: 5	Y: 58	SP: f0
f1b5	f1ae	BNE	A: ff	X: 4	Y: 58	SP: f0
f1ae	258	STA	A: ff	X: 4	Y: 58	SP: f0
f1b0	0	INY	A: ff	X: 4	Y: 58	SP: f0
f1b1	0	INY	A: ff	X: 4	Y: 59	SP: f0
f1b2	0	INY	A: ff	X: 4	Y: 5a	SP: f0
f1b3	0	INY	A: ff	X: 4	Y: 5b	SP: f0
f1b4	0	DEX	A: ff	X: 4	Y: 5c	SP: f0
f1b5	f1ae	BNE	A: ff	X: 3	Y: 5c	SP: f0
f1ae	25c	STA	A: ff	X: 3	Y: 5c	SP: f0
f1b0	0	INY	A: ff	X: 3	Y: 5c	SP: f0
f1b1	0	INY	A: ff	X: 3	Y: 5d	SP: f0
f1b2	0	INY	A: ff	X: 3	Y: 5e	SP: f0
f1b3	0	INY	A: ff	X: 3	Y: 5f	SP: f0
f1b4	0	DEX	A: ff	X: 3	Y: 60	SP: f0
f1b5	f1ae	BNE	A: ff	X: 2	Y: 60	SP: f0
f1ae	260	STA	A: ff	X: 2	Y: 60	SP: f0
f1b0	0	INY	A: ff	X: 2	Y: 60	SP: f0
f1b1	0	INY	A: ff	X: 2	Y: 61	SP: f0
f1b2	0	INY	A: ff	X: 2	Y: 62	SP: f0
f1b3	0	INY	A: ff	X: 2	Y: 63	SP: f0
f1b4	0	DEX	A: ff	X: 2	Y: 64	SP: f0
f1b5	f1ae	BNE	A: ff	X: 1	Y: 64	SP: f0
f1ae	264	STA	A: ff	X: 1	Y: 64	SP: f0
f1b0	0	INY	A: ff	X: 1	Y: 64	SP: f0
f1b1	0	INY	A: ff	X: 1	Y: 65	SP: f0
f1b2	0	INY	A: ff	X: 1	Y: 66	SP: f0
f1b3	0	INY	A: ff	X: 1	Y: 67	SP: f0
f1b4	0	DEX	A: ff	X: 1	Y: 68	SP: f0
f1b5	f1ae	BNE	A: ff	X: 0	Y: 68	SP: f0
f1b7	0	LDA	A: ff	X: 0	Y: 68	SP: f0
f1b9	0	CLC	A: 28	X: 0	Y: 68	SP: f0
f1ba	f1bb	ADC	A: 28	X: 0	Y: 68	SP: f0
f1bc	0	STA	A: 30	X: 0	Y: 68	SP: f0
f1be	7	DEC	A: 30	X: 0	Y: 68	SP: f0
f1c0	f1a6	BNE	A: 30	X: 0	Y: 68	SP: f0
f1a6	6	LDX	A: 30	X: 0	Y: 68	SP: f0
f1a8	1	LDA	A: 30	X: f	Y: 68	SP: f0
f1aa	9	STA	A: ff	X: f	Y: 68	SP: f0
f1ac	f1ad	LDA	A: ff	X: f	Y: 68	SP: f0
f1ae	268	STA	A: ff	X: f	Y: 68	SP: f0
f1b0	0	INY	A: ff	X: f	Y: 68	SP: f0
f1b1	0	INY	A: ff	X: f	Y: 69	SP: f0
f1b2	0	INY	A: ff	X: f	Y: 6a	SP: f0
f1b3	0	INY	A: ff	X: f	Y: 6b	SP: f0
f1b4	0	DEX	A: ff	X: f	Y: 6c	SP: f0
f1b5	f1ae	BNE	A: ff	X: e	Y: 6c	SP: f0
f1ae	26c	STA	A: ff	X: e	Y: 6c	SP: f0
f1b0	0	INY	A: ff	X: e	Y: 6c	SP: f0
f1b1	0	INY	A: ff	X: e	Y: 6d	SP: f0
f1b2	0	INY	A: ff	X: e	Y: 6e	SP: f0
f1b3	0	INY	A: ff	X: e	Y: 6f	SP: f0
f1b4	0	DEX	A: ff	X: e	Y: 70	SP: f0
f1b5	f1ae	BNE	A: ff	X: d	Y: 70	SP: f0
f1ae	270	STA	A: ff	X: d	Y: 70	SP: f0
f1b0	0	INY	A: ff	X: d	Y: 70	SP: f0
f1b1	0	INY	A: ff	X: d	Y: 71	SP: f0
f1b2	0	INY	A: ff	X: d	Y: 72	SP: f0
f1b3	0	INY	A: ff	X: d	Y: 73	SP: f0
f1b4	0	DEX	A: ff	X: d	Y: 74	SP: f0
f1b5	f1ae	BNE	A: ff	X: c	Y: 74	SP: f0
f1ae	274	STA	A: ff	X: c	Y: 74	SP: f0
f1b0	0	INY	A: ff	X: c	Y: 74	SP: f0
f1b1	0	INY	A: ff	X: c	Y: 75	SP: f0
f1b2	0	INY	A: ff	X: c	Y: 76	SP: f0
f1b3	0	INY	A: ff	X: c	Y: 77	SP: f0
f1b4	0	DEX	A: ff	X: c	Y: 78	SP: f0
f1b5	f1ae	BNE	A: ff	X: b	Y: 78	SP: f0
f1ae	278	STA	A: ff	X: b	Y: 78	SP: f0
f1b0	0	INY	A: ff	X: b	Y: 78	SP: f0
f1b1	0	INY	A: ff	X: b	Y: 79	SP: f0
f1b2	0	INY	A: ff	X: b	Y: 7a	SP: f0
f1b3	0	INY	A: ff	X: b	Y: 7b	SP: f0
f1b4	0	DEX	A: ff	X: b	Y: 7c	SP: f0
f1b5	f1ae	BNE	A: ff	X: a	Y: 7c	SP: f0
f1ae	27c	STA	A: ff	X: a	Y: 7c	SP: f0
f1b0	0	INY	A: ff	X: a	Y: 7c	SP: f0
f1b1	0	INY	A: ff	X: a	Y: 7d	SP: f0
f1b2	0	INY	A: ff	X: a	Y: 7e	SP: f0
f1b3	0	INY	A: ff	X: a	Y: 7f	SP: f0
f1b4	0	DEX	A: ff	X: a	Y: 80	SP: f0
f1b5	f1ae	BNE	A: ff	X: 9	Y: 80	SP: f0
f1ae	280	STA	A: ff	X: 9	Y: 80	SP: f0
f1b0	0	INY	A: ff	X: 9	Y: 80	SP: f0
f1b1	0	INY	A: ff	X: 9	Y: 81	SP: f0
f1b2	0	INY	A: ff	X: 9	Y: 82	SP: f0
f1b3	0	INY	A: ff	X: 9	Y: 83	SP: f0
f1b4	0	DEX	A: ff	X: 9	Y: 84	SP: f0
f1b5	f1ae	BNE	A: ff	X: 8	Y: 84	SP: f0
f1ae	284	STA	A: ff	X: 8	Y: 84	SP: f0
f1b0	0	INY	A: ff	X: 8	Y: 84	SP: f0
f1b1	0	INY	A: ff	X: 8	Y: 85	SP: f0
f1b2	0	INY	A: ff	X: 8	Y: 86	SP: f0
f1b3	0	INY	A: ff	X: 8	Y: 87	SP: f0
f1b4	0	DEX	A: ff	X: 8	Y: 88	SP: f0
f1b5	f1ae	BNE	A: ff	X: 7	Y: 88	SP: f0
f1ae	288	STA	A: ff	X: 7	Y: 88	SP: f0
f1b0	0	INY	A: ff	X: 7	Y: 88	SP: f0
f1b1	0	INY	A: ff	X: 7	Y: 89	SP: f0
f1b2	0	INY	A: ff	X: 7	Y: 8a	SP: f0
f1b3	0	INY	A: ff	X: 7	Y: 8b	SP: f0
f1b4	0	DEX	A: ff	X: 7	Y: 8c	SP: f0
f1b5	f1ae	BNE	A: ff	X: 6	Y: 8c	SP: f0
f1ae	28c	STA	A: ff	X: 6	Y: 8c	SP: f0
f1b0	0	INY	A: ff	X: 6	Y: 8c	SP: f0
f1b1	0	INY	A: ff	X: 6	Y: 8d	SP: f0
f1b2	0	INY	A: ff	X: 6	Y: 8e	SP: f0
f1b3	0	INY	A: ff	X: 6	Y: 8f	SP: f0
f1b4	0	DEX	A: ff	X: 6	Y: 90	SP: f0
f1b5	f1ae	BNE	A: ff	X: 5	Y: 90	SP: f0
f1ae	290	STA	A: ff	X: 5	Y: 90	SP: f0
f1b0	0	INY	A: ff	X: 5	Y: 90	SP: f0
f1b1	0	INY	A: ff	X: 5	Y: 91	SP: f0
f1b2	0	INY	A: ff	X: 5	Y: 92	SP: f0
f1b3	0	INY	A: ff	X: 5	Y: 93	SP: f0
f1b4	0	DEX	A: ff	X: 5	Y: 94	SP: f0
f1b5	f1ae	BNE	A: ff	X: 4	Y: 94	SP: f0
f1ae	294	STA	A: ff	X: 4	Y: 94	SP: f0
f1b0	0	INY	A: ff	X: 4	Y: 94	SP: f0
f1b1	0	INY	A: ff	X: 4	Y: 95	SP: f0
f1b2	0	INY	A: ff	X: 4	Y: 96	SP: f0
f1b3	0	INY	A: ff	X: 4	Y: 97	SP: f0
f1b4	0	DEX	A: ff	X: 4	Y: 98	SP: f0
f1b5	f1ae	BNE	A: ff	X: 3	Y: 98	SP: f0
f1ae	298	STA	A: ff	X: 3	Y: 98	SP: f0
f1b0	0	INY	A: ff	X: 3	Y: 98	SP: f0
f1b1	0	INY	A: ff	X: 3	Y: 99	SP: f0
f1b2	0	INY	A: ff	X: 3	Y: 9a	SP: f0
f1b3	0	INY	A: ff	X: 3	Y: 9b	SP: f0
f1b4	0	DEX	A: ff	X: 3	Y: 9c	SP: f0
f1b5	f1ae	BNE	A: ff	X: 2	Y: 9c	SP: f0
f1ae	29c	STA	A: ff	X: 2	Y: 9c	SP: f0
f1b0	0	INY	A: ff	X: 2	Y: 9c	SP: f0
f1b1	0	INY	A: ff	X: 2	Y: 9d	SP: f0
f1b2	0	INY	A: ff	X: 2	Y: 9e	SP: f0
f1b3	0	INY	A: ff	X: 2	Y: 9f	SP: f0
f1b4	0	DEX	A: ff	X: 2	Y: a0	SP: f0
f1b5	f1ae	BNE	A: ff	X: 1	Y: a0	SP: f0
f1ae	2a0	STA	A: ff	X: 1	Y: a0	SP: f0
f1b0	0	INY	A: ff	X: 1	Y: a0	SP: f0
f1b1	0	INY	A: ff	X: 1	Y: a1	SP: f0
f1b2	0	INY	A: ff	X: 1	Y: a2	SP: f0
f1b3	0	INY	A: ff	X: 1	Y: a3	SP: f0
f1b4	0	DEX	A: ff	X: 1	Y: a4	SP: f0
f1b5	f1ae	BNE	A: ff	X: 0	Y: a4	SP: f0
f1b7	0	LDA	A: ff	X: 0	Y: a4	SP: f0
f1b9	0	CLC	A: 30	X: 0	Y: a4	SP: f0
f1ba	f1bb	ADC	A: 30	X: 0	Y: a4	SP: f0
f1bc	0	STA	A: 38	X: 0	Y: a4	SP: f0
f1be	7	DEC	A: 38	X: 0	Y: a4	SP: f0
f1c0	f1a6	BNE	A: 38	X: 0	Y: a4	SP: f0
f1a6	6	LDX	A: 38	X: 0	Y: a4	SP: f0
f1a8	1	LDA	A: 38	X: f	Y: a4	SP: f0
f1aa	9	STA	A: ff	X: f	Y: a4	SP: f0
f1ac	f1ad	LDA	A: ff	X: f	Y: a4	SP: f0
f1ae	2a4	STA	A: ff	X: f	Y: a4	SP: f0
f1b0	0	INY	A: ff	X: f	Y: a4	SP: f0
f1b1	0	INY	A: ff	X: f	Y: a5	SP: f0
f1b2	0	INY	A: ff	X: f	Y: a6	SP: f0
f1b3	0	INY	A: ff	X: f	Y: a7	SP: f0
f1b4	0	DEX	A: ff	X: f	Y: a8	SP: f0
f1b5	f1ae	BNE	A: ff	X: e	Y: a8	SP: f0
f1ae	2a8	STA	A: ff	X: e	Y: a8	SP: f0
f1b0	0	INY	A: ff	X: e	Y: a8	SP: f0
f1b1	0	INY	A: ff	X: e	Y: a9	SP: f0
f1b2	0	INY	A: ff	X: e	Y: aa	SP: f0
f1b3	0	INY	A: ff	X: e	Y: ab	SP: f0
f1b4	0	DEX	A: ff	X: e	Y: ac	SP: f0
f1b5	f1ae	BNE	A: ff	X: d	Y: ac	SP: f0
f1ae	2ac	STA	A: ff	X: d	Y: ac	SP: f0
f1b0	0	INY	A: ff	X: d	Y: ac	SP: f0
f1b1	0	INY	A: ff	X: d	Y: ad	SP: f0
f1b2	0	INY	A: ff	X: d	Y: ae	SP: f0
f1b3	0	INY	A: ff	X: d	Y: af	SP: f0
f1b4	0	DEX	A: ff	X: d	Y: b0	SP: f0
f1b5	f1ae	BNE	A: ff	X: c	Y: b0	SP: f0
f1ae	2b0	STA	A: ff	X: c	Y: b0	SP: f0
f1b0	0	INY	A: ff	X: c	Y: b0	SP: f0
f1b1	0	INY	A: ff	X: c	Y: b1	SP: f0
f1b2	0	INY	A: ff	X: c	Y: b2	SP: f0
f1b3	0	INY	A: ff	X: c	Y: b3	SP: f0
f1b4	0	DEX	A: ff	X: c	Y: b4	SP: f0
f1b5	f1ae	BNE	A: ff	X: b	Y: b4	SP: f0
f1ae	2b4	STA	A: ff	X: b	Y: b4	SP: f0
f1b0	0	INY	A: ff	X: b	Y: b4	SP: f0
f1b1	0	INY	A: ff	X: b	Y: b5	SP: f0
f1b2	0	INY	A: ff	X: b	Y: b6	SP: f0
f1b3	0	INY	A: ff	X: b	Y: b7	SP: f0
f1b4	0	DEX	A: ff	X: b	Y: b8	SP: f0
f1b5	f1ae	BNE	A: ff	X: a	Y: b8	SP: f0
f1ae	2b8	STA	A: ff	X: a	Y: b8	SP: f0
f1b0	0	INY	A: ff	X: a	Y: b8	SP: f0
f1b1	0	INY	A: ff	X: a	Y: b9	SP: f0
f1b2	0	INY	A: ff	X: a	Y: ba	SP: f0
f1b3	0	INY	A: ff	X: a	Y: bb	SP: f0
f1b4	0	DEX	A: ff	X: a	Y: bc	SP: f0
f1b5	f1ae	BNE	A: ff	X: 9	Y: bc	SP: f0
f1ae	2bc	STA	A: ff	X: 9	Y: bc	SP: f0
f1b0	0	INY	A: ff	X: 9	Y: bc	SP: f0
f1b1	0	INY	A: ff	X: 9	Y: bd	SP: f0
f1b2	0	INY	A: ff	X: 9	Y: be	SP: f0
f1b3	0	INY	A: ff	X: 9	Y: bf	SP: f0
f1b4	0	DEX	A: ff	X: 9	Y: c0	SP: f0
f1b5	f1ae	BNE	A: ff	X: 8	Y: c0	SP: f0
f1ae	2c0	STA	A: ff	X: 8	Y: c0	SP: f0
f1b0	0	INY	A: ff	X: 8	Y: c0	SP: f0
f1b1	0	INY	A: ff	X: 8	Y: c1	SP: f0
f1b2	0	INY	A: ff	X: 8	Y: c2	SP: f0
f1b3	0	INY	A: ff	X: 8	Y: c3	SP: f0
f1b4	0	DEX	A: ff	X: 8	Y: c4	SP: f0
f1b5	f1ae	BNE	A: ff	X: 7	Y: c4	SP: f0
f1ae	2c4	STA	A: ff	X: 7	Y: c4	SP: f0
f1b0	0	INY	A: ff	X: 7	Y: c4	SP: f0
f1b1	0	INY	A: ff	X: 7	Y: c5	SP: f0
f1b2	0	INY	A: ff	X: 7	Y: c6	SP: f0
f1b3	0	INY	A: ff	X: 7	Y: c7	SP: f0
f1b4	0	DEX	A: ff	X: 7	Y: c8	SP: f0
f1b5	f1ae	BNE	A: ff	X: 6	Y: c8	SP: f0
f1ae	2c8	STA	A: ff	X: 6	Y: c8	SP: f0
f1b0	0	INY	A: ff	X: 6	Y: c8	SP: f0
f1b1	0	INY	A: ff	X: 6	Y: c9	SP: f0
f1b2	0	INY	A: ff	X: 6	Y: ca	SP: f0
f1b3	0	INY	A: ff	X: 6	Y: cb	SP: f0
f1b4	0	DEX	A: ff	X: 6	Y: cc	SP: f0
f1b5	f1ae	BNE	A: ff	X: 5	Y: cc	SP: f0
f1ae	2cc	STA	A: ff	X: 5	Y: cc	SP: f0
f1b0	0	INY	A: ff	X: 5	Y: cc	SP: f0
f1b1	0	INY	A: ff	X: 5	Y: cd	SP: f0
f1b2	0	INY	A: ff	X: 5	Y: ce	SP: f0
f1b3	0	INY	A: ff	X: 5	Y: cf	SP: f0
f1b4	0	DEX	A: ff	X: 5	Y: d0	SP: f0
f1b5	f1ae	BNE	A: ff	X: 4	Y: d0	SP: f0
f1ae	2d0	STA	A: ff	X: 4	Y: d0	SP: f0
f1b0	0	INY	A: ff	X: 4	Y: d0	SP: f0
f1b1	0	INY	A: ff	X: 4	Y: d1	SP: f0
f1b2	0	INY	A: ff	X: 4	Y: d2	SP: f0
f1b3	0	INY	A: ff	X: 4	Y: d3	SP: f0
f1b4	0	DEX	A: ff	X: 4	Y: d4	SP: f0
f1b5	f1ae	BNE	A: ff	X: 3	Y: d4	SP: f0
f1ae	2d4	STA	A: ff	X: 3	Y: d4	SP: f0
f1b0	0	INY	A: ff	X: 3	Y: d4	SP: f0
f1b1	0	INY	A: ff	X: 3	Y: d5	SP: f0
f1b2	0	INY	A: ff	X: 3	Y: d6	SP: f0
f1b3	0	INY	A: ff	X: 3	Y: d7	SP: f0
f1b4	0	DEX	A: ff	X: 3	Y: d8	SP: f0
f1b5	f1ae	BNE	A: ff	X: 2	Y: d8	SP: f0
f1ae	2d8	STA	A: ff	X: 2	Y: d8	SP: f0
f1b0	0	INY	A: ff	X: 2	Y: d8	SP: f0
f1b1	0	INY	A: ff	X: 2	Y: d9	SP: f0
f1b2	0	INY	A: ff	X: 2	Y: da	SP: f0
f1b3	0	INY	A: ff	X: 2	Y: db	SP: f0
f1b4	0	DEX	A: ff	X: 2	Y: dc	SP: f0
f1b5	f1ae	BNE	A: ff	X: 1	Y: dc	SP: f0
f1ae	2dc	STA	A: ff	X: 1	Y: dc	SP: f0
f1b0	0	INY	A: ff	X: 1	Y: dc	SP: f0
f1b1	0	INY	A: ff	X: 1	Y: dd	SP: f0
f1b2	0	INY	A: ff	X: 1	Y: de	SP: f0
f1b3	0	INY	A: ff	X: 1	Y: df	SP: f0
f1b4	0	DEX	A: ff	X: 1	Y: e0	SP: f0
f1b5	f1ae	BNE	A: ff	X: 0	Y: e0	SP: f0
f1b7	0	LDA	A: ff	X: 0	Y: e0	SP: f0
f1b9	0	CLC	A: 38	X: 0	Y: e0	SP: f0
f1ba	f1bb	ADC	A: 38	X: 0	Y: e0	SP: f0
f1bc	0	STA	A: 40	X: 0	Y: e0	SP: f0
f1be	7	DEC	A: 40	X: 0	Y: e0	SP: f0
f1c0	f1a6	BNE	A: 40	X: 0	Y: e0	SP: f0
f1a6	6	LDX	A: 40	X: 0	Y: e0	SP: f0
f1a8	1	LDA	A: 40	X: f	Y: e0	SP: f0
f1aa	9	STA	A: ff	X: f	Y: e0	SP: f0
f1ac	f1ad	LDA	A: ff	X: f	Y: e0	SP: f0
f1ae	2e0	STA	A: ff	X: f	Y: e0	SP: f0
f1b0	0	INY	A: ff	X: f	Y: e0	SP: f0
f1b1	0	INY	A: ff	X: f	Y: e1	SP: f0
f1b2	0	INY	A: ff	X: f	Y: e2	SP: f0
f1b3	0	INY	A: ff	X: f	Y: e3	SP: f0
f1b4	0	DEX	A: ff	X: f	Y: e4	SP: f0
f1b5	f1ae	BNE	A: ff	X: e	Y: e4	SP: f0
f1ae	2e4	STA	A: ff	X: e	Y: e4	SP: f0
f1b0	0	INY	A: ff	X: e	Y: e4	SP: f0
f1b1	0	INY	A: ff	X: e	Y: e5	SP: f0
f1b2	0	INY	A: ff	X: e	Y: e6	SP: f0
f1b3	0	INY	A: ff	X: e	Y: e7	SP: f0
f1b4	0	DEX	A: ff	X: e	Y: e8	SP: f0
f1b5	f1ae	BNE	A: ff	X: d	Y: e8	SP: f0
f1ae	2e8	STA	A: ff	X: d	Y: e8	SP: f0
f1b0	0	INY	A: ff	X: d	Y: e8	SP: f0
f1b1	0	INY	A: ff	X: d	Y: e9	SP: f0
f1b2	0	INY	A: ff	X: d	Y: ea	SP: f0
f1b3	0	INY	A: ff	X: d	Y: eb	SP: f0
f1b4	0	DEX	A: ff	X: d	Y: ec	SP: f0
f1b5	f1ae	BNE	A: ff	X: c	Y: ec	SP: f0
f1ae	2ec	STA	A: ff	X: c	Y: ec	SP: f0
f1b0	0	INY	A: ff	X: c	Y: ec	SP: f0
f1b1	0	INY	A: ff	X: c	Y: ed	SP: f0
f1b2	0	INY	A: ff	X: c	Y: ee	SP: f0
f1b3	0	INY	A: ff	X: c	Y: ef	SP: f0
f1b4	0	DEX	A: ff	X: c	Y: f0	SP: f0
f1b5	f1ae	BNE	A: ff	X: b	Y: f0	SP: f0
f1ae	2f0	STA	A: ff	X: b	Y: f0	SP: f0
f1b0	0	INY	A: ff	X: b	Y: f0	SP: f0
f1b1	0	INY	A: ff	X: b	Y: f1	SP: f0
f1b2	0	INY	A: ff	X: b	Y: f2	SP: f0
f1b3	0	INY	A: ff	X: b	Y: f3	SP: f0
f1b4	0	DEX	A: ff	X: b	Y: f4	SP: f0
f1b5	f1ae	BNE	A: ff	X: a	Y: f4	SP: f0
f1ae	2f4	STA	A: ff	X: a	Y: f4	SP: f0
f1b0	0	INY	A: ff	X: a	Y: f4	SP: f0
f1b1	0	INY	A: ff	X: a	Y: f5	SP: f0
f1b2	0	INY	A: ff	X: a	Y: f6	SP: f0
f1b3	0	INY	A: ff	X: a	Y: f7	SP: f0
f1b4	0	DEX	A: ff	X: a	Y: f8	SP: f0
f1b5	f1ae	BNE	A: ff	X: 9	Y: f8	SP: f0
f1ae	2f8	STA	A: ff	X: 9	Y: f8	SP: f0
f1b0	0	INY	A: ff	X: 9	Y: f8	SP: f0
f1b1	0	INY	A: ff	X: 9	Y: f9	SP: f0
f1b2	0	INY	A: ff	X: 9	Y: fa	SP: f0
f1b3	0	INY	A: ff	X: 9	Y: fb	SP: f0
f1b4	0	DEX	A: ff	X: 9	Y: fc	SP: f0
f1b5	f1ae	BNE	A: ff	X: 8	Y: fc	SP: f0
f1ae	2fc	STA	A: ff	X: 8	Y: fc	SP: f0
f1b0	0	INY	A: ff	X: 8	Y: fc	SP: f0
f1b1	0	INY	A: ff	X: 8	Y: fd	SP: f0
f1b2	0	INY	A: ff	X: 8	Y: fe	SP: f0
f1b3	0	INY	A: ff	X: 8	Y: ff	SP: f0
f1b4	0	DEX	A: ff	X: 8	Y: 0	SP: f0
f1b5	f1ae	BNE	A: ff	X: 7	Y: 0	SP: f0
f1ae	200	STA	A: ff	X: 7	Y: 0	SP: f0
f1b0	0	INY	A: ff	X: 7	Y: 0	SP: f0
f1b1	0	INY	A: ff	X: 7	Y: 1	SP: f0
f1b2	0	INY	A: ff	X: 7	Y: 2	SP: f0
f1b3	0	INY	A: ff	X: 7	Y: 3	SP: f0
f1b4	0	DEX	A: ff	X: 7	Y: 4	SP: f0
f1b5	f1ae	BNE	A: ff	X: 6	Y: 4	SP: f0
f1ae	204	STA	A: ff	X: 6	Y: 4	SP: f0
f1b0	0	INY	A: ff	X: 6	Y: 4	SP: f0
f1b1	0	INY	A: ff	X: 6	Y: 5	SP: f0
f1b2	0	INY	A: ff	X: 6	Y: 6	SP: f0
f1b3	0	INY	A: ff	X: 6	Y: 7	SP: f0
f1b4	0	DEX	A: ff	X: 6	Y: 8	SP: f0
f1b5	f1ae	BNE	A: ff	X: 5	Y: 8	SP: f0
f1ae	208	STA	A: ff	X: 5	Y: 8	SP: f0
f1b0	0	INY	A: ff	X: 5	Y: 8	SP: f0
f1b1	0	INY	A: ff	X: 5	Y: 9	SP: f0
f1b2	0	INY	A: ff	X: 5	Y: a	SP: f0
f1b3	0	INY	A: ff	X: 5	Y: b	SP: f0
f1b4	0	DEX	A: ff	X: 5	Y: c	SP: f0
f1b5	f1ae	BNE	A: ff	X: 4	Y: c	SP: f0
f1ae	20c	STA	A: ff	X: 4	Y: c	SP: f0
f1b0	0	INY	A: ff	X: 4	Y: c	SP: f0
f1b1	0	INY	A: ff	X: 4	Y: d	SP: f0
f1b2	0	INY	A: ff	X: 4	Y: e	SP: f0
f1b3	0	INY	A: ff	X: 4	Y: f	SP: f0
f1b4	0	DEX	A: ff	X: 4	Y: 10	SP: f0
f1b5	f1ae	BNE	A: ff	X: 3	Y: 10	SP: f0
f1ae	210	STA	A: ff	X: 3	Y: 10	SP: f0
f1b0	0	INY	A: ff	X: 3	Y: 10	SP: f0
f1b1	0	INY	A: ff	X: 3	Y: 11	SP: f0
f1b2	0	INY	A: ff	X: 3	Y: 12	SP: f0
f1b3	0	INY	A: ff	X: 3	Y: 13	SP: f0
f1b4	0	DEX	A: ff	X: 3	Y: 14	SP: f0
f1b5	f1ae	BNE	A: ff	X: 2	Y: 14	SP: f0
f1ae	214	STA	A: ff	X: 2	Y: 14	SP: f0
f1b0	0	INY	A: ff	X: 2	Y: 14	SP: f0
f1b1	0	INY	A: ff	X: 2	Y: 15	SP: f0
f1b2	0	INY	A: ff	X: 2	Y: 16	SP: f0
f1b3	0	INY	A: ff	X: 2	Y: 17	SP: f0
f1b4	0	DEX	A: ff	X: 2	Y: 18	SP: f0
f1b5	f1ae	BNE	A: ff	X: 1	Y: 18	SP: f0
f1ae	218	STA	A: ff	X: 1	Y: 18	SP: f0
f1b0	0	INY	A: ff	X: 1	Y: 18	SP: f0
f1b1	0	INY	A: ff	X: 1	Y: 19	SP: f0
f1b2	0	INY	A: ff	X: 1	Y: 1a	SP: f0
f1b3	0	INY	A: ff	X: 1	Y: 1b	SP: f0
f1b4	0	DEX	A: ff	X: 1	Y: 1c	SP: f0
f1b5	f1ae	BNE	A: ff	X: 0	Y: 1c	SP: f0
f1b7	0	LDA	A: ff	X: 0	Y: 1c	SP: f0
f1b9	0	CLC	A: 40	X: 0	Y: 1c	SP: f0
f1ba	f1bb	ADC	A: 40	X: 0	Y: 1c	SP: f0
f1bc	0	STA	A: 48	X: 0	Y: 1c	SP: f0
f1be	7	DEC	A: 48	X: 0	Y: 1c	SP: f0
f1c0	f1a6	BNE	A: 48	X: 0	Y: 1c	SP: f0
f1a6	6	LDX	A: 48	X: 0	Y: 1c	SP: f0
f1a8	1	LDA	A: 48	X: f	Y: 1c	SP: f0
f1aa	9	STA	A: ff	X: f	Y: 1c	SP: f0
f1ac	f1ad	LDA	A: ff	X: f	Y: 1c	SP: f0
f1ae	21c	STA	A: ff	X: f	Y: 1c	SP: f0
f1b0	0	INY	A: ff	X: f	Y: 1c	SP: f0
f1b1	0	INY	A: ff	X: f	Y: 1d	SP: f0
f1b2	0	INY	A: ff	X: f	Y: 1e	SP: f0
f1b3	0	INY	A: ff	X: f	Y: 1f	SP: f0
f1b4	0	DEX	A: ff	X: f	Y: 20	SP: f0
f1b5	f1ae	BNE	A: ff	X: e	Y: 20	SP: f0
f1ae	220	STA	A: ff	X: e	Y: 20	SP: f0
f1b0	0	INY	A: ff	X: e	Y: 20	SP: f0
f1b1	0	INY	A: ff	X: e	Y: 21	SP: f0
f1b2	0	INY	A: ff	X: e	Y: 22	SP: f0
f1b3	0	INY	A: ff	X: e	Y: 23	SP: f0
f1b4	0	DEX	A: ff	X: e	Y: 24	SP: f0
f1b5	f1ae	BNE	A: ff	X: d	Y: 24	SP: f0
f1ae	224	STA	A: ff	X: d	Y: 24	SP: f0
f1b0	0	INY	A: ff	X: d	Y: 24	SP: f0
f1b1	0	INY	A: ff	X: d	Y: 25	SP: f0
f1b2	0	INY	A: ff	X: d	Y: 26	SP: f0
f1b3	0	INY	A: ff	X: d	Y: 27	SP: f0
f1b4	0	DEX	A: ff	X: d	Y: 28	SP: f0
f1b5	f1ae	BNE	A: ff	X: c	Y: 28	SP: f0
f1ae	228	STA	A: ff	X: c	Y: 28	SP: f0
f1b0	0	INY	A: ff	X: c	Y: 28	SP: f0
f1b1	0	INY	A: ff	X: c	Y: 29	SP: f0
f1b2	0	INY	A: ff	X: c	Y: 2a	SP: f0
f1b3	0	INY	A: ff	X: c	Y: 2b	SP: f0
f1b4	0	DEX	A: ff	X: c	Y: 2c	SP: f0
f1b5	f1ae	BNE	A: ff	X: b	Y: 2c	SP: f0
f1ae	22c	STA	A: ff	X: b	Y: 2c	SP: f0
f1b0	0	INY	A: ff	X: b	Y: 2c	SP: f0
f1b1	0	INY	A: ff	X: b	Y: 2d	SP: f0
f1b2	0	INY	A: ff	X: b	Y: 2e	SP: f0
f1b3	0	INY	A: ff	X: b	Y: 2f	SP: f0
f1b4	0	DEX	A: ff	X: b	Y: 30	SP: f0
f1b5	f1ae	BNE	A: ff	X: a	Y: 30	SP: f0
f1ae	230	STA	A: ff	X: a	Y: 30	SP: f0
f1b0	0	INY	A: ff	X: a	Y: 30	SP: f0
f1b1	0	INY	A: ff	X: a	Y: 31	SP: f0
f1b2	0	INY	A: ff	X: a	Y: 32	SP: f0
f1b3	0	INY	A: ff	X: a	Y: 33	SP: f0
f1b4	0	DEX	A: ff	X: a	Y: 34	SP: f0
f1b5	f1ae	BNE	A: ff	X: 9	Y: 34	SP: f0
f1ae	234	STA	A: ff	X: 9	Y: 34	SP: f0
f1b0	0	INY	A: ff	X: 9	Y: 34	SP: f0
f1b1	0	INY	A: ff	X: 9	Y: 35	SP: f0
f1b2	0	INY	A: ff	X: 9	Y: 36	SP: f0
f1b3	0	INY	A: ff	X: 9	Y: 37	SP: f0
f1b4	0	DEX	A: ff	X: 9	Y: 38	SP: f0
f1b5	f1ae	BNE	A: ff	X: 8	Y: 38	SP: f0
f1ae	238	STA	A: ff	X: 8	Y: 38	SP: f0
f1b0	0	INY	A: ff	X: 8	Y: 38	SP: f0
f1b1	0	INY	A: ff	X: 8	Y: 39	SP: f0
f1b2	0	INY	A: ff	X: 8	Y: 3a	SP: f0
f1b3	0	INY	A: ff	X: 8	Y: 3b	SP: f0
f1b4	0	DEX	A: ff	X: 8	Y: 3c	SP: f0
f1b5	f1ae	BNE	A: ff	X: 7	Y: 3c	SP: f0
f1ae	23c	STA	A: ff	X: 7	Y: 3c	SP: f0
f1b0	0	INY	A: ff	X: 7	Y: 3c	SP: f0
f1b1	0	INY	A: ff	X: 7	Y: 3d	SP: f0
f1b2	0	INY	A: ff	X: 7	Y: 3e	SP: f0
f1b3	0	INY	A: ff	X: 7	Y: 3f	SP: f0
f1b4	0	DEX	A: ff	X: 7	Y: 40	SP: f0
f1b5	f1ae	BNE	A: ff	X: 6	Y: 40	SP: f0
f1ae	240	STA	A: ff	X: 6	Y: 40	SP: f0
f1b0	0	INY	A: ff	X: 6	Y: 40	SP: f0
f1b1	0	INY	A: ff	X: 6	Y: 41	SP: f0
f1b2	0	INY	A: ff	X: 6	Y: 42	SP: f0
f1b3	0	INY	A: ff	X: 6	Y: 43	SP: f0
f1b4	0	DEX	A: ff	X: 6	Y: 44	SP: f0
f1b5	f1ae	BNE	A: ff	X: 5	Y: 44	SP: f0
f1ae	244	STA	A: ff	X: 5	Y: 44	SP: f0
f1b0	0	INY	A: ff	X: 5	Y: 44	SP: f0
f1b1	0	INY	A: ff	X: 5	Y: 45	SP: f0
f1b2	0	INY	A: ff	X: 5	Y: 46	SP: f0
f1b3	0	INY	A: ff	X: 5	Y: 47	SP: f0
f1b4	0	DEX	A: ff	X: 5	Y: 48	SP: f0
f1b5	f1ae	BNE	A: ff	X: 4	Y: 48	SP: f0
f1ae	248	STA	A: ff	X: 4	Y: 48	SP: f0
f1b0	0	INY	A: ff	X: 4	Y: 48	SP: f0
f1b1	0	INY	A: ff	X: 4	Y: 49	SP: f0
f1b2	0	INY	A: ff	X: 4	Y: 4a	SP: f0
f1b3	0	INY	A: ff	X: 4	Y: 4b	SP: f0
f1b4	0	DEX	A: ff	X: 4	Y: 4c	SP: f0
f1b5	f1ae	BNE	A: ff	X: 3	Y: 4c	SP: f0
f1ae	24c	STA	A: ff	X: 3	Y: 4c	SP: f0
f1b0	0	INY	A: ff	X: 3	Y: 4c	SP: f0
f1b1	0	INY	A: ff	X: 3	Y: 4d	SP: f0
f1b2	0	INY	A: ff	X: 3	Y: 4e	SP: f0
f1b3	0	INY	A: ff	X: 3	Y: 4f	SP: f0
f1b4	0	DEX	A: ff	X: 3	Y: 50	SP: f0
f1b5	f1ae	BNE	A: ff	X: 2	Y: 50	SP: f0
f1ae	250	STA	A: ff	X: 2	Y: 50	SP: f0
f1b0	0	INY	A: ff	X: 2	Y: 50	SP: f0
f1b1	0	INY	A: ff	X: 2	Y: 51	SP: f0
f1b2	0	INY	A: ff	X: 2	Y: 52	SP: f0
f1b3	0	INY	A: ff	X: 2	Y: 53	SP: f0
f1b4	0	DEX	A: ff	X: 2	Y: 54	SP: f0
f1b5	f1ae	BNE	A: ff	X: 1	Y: 54	SP: f0
f1ae	254	STA	A: ff	X: 1	Y: 54	SP: f0
f1b0	0	INY	A: ff	X: 1	Y: 54	SP: f0
f1b1	0	INY	A: ff	X: 1	Y: 55	SP: f0
f1b2	0	INY	A: ff	X: 1	Y: 56	SP: f0
f1b3	0	INY	A: ff	X: 1	Y: 57	SP: f0
f1b4	0	DEX	A: ff	X: 1	Y: 58	SP: f0
f1b5	f1ae	BNE	A: ff	X: 0	Y: 58	SP: f0
f1b7	0	LDA	A: ff	X: 0	Y: 58	SP: f0
f1b9	0	CLC	A: 48	X: 0	Y: 58	SP: f0
f1ba	f1bb	ADC	A: 48	X: 0	Y: 58	SP: f0
f1bc	0	STA	A: 50	X: 0	Y: 58	SP: f0
f1be	7	DEC	A: 50	X: 0	Y: 58	SP: f0
f1c0	f1a6	BNE	A: 50	X: 0	Y: 58	SP: f0
f1a6	6	LDX	A: 50	X: 0	Y: 58	SP: f0
f1a8	1	LDA	A: 50	X: f	Y: 58	SP: f0
f1aa	9	STA	A: ff	X: f	Y: 58	SP: f0
f1ac	f1ad	LDA	A: ff	X: f	Y: 58	SP: f0
f1ae	258	STA	A: ff	X: f	Y: 58	SP: f0
f1b0	0	INY	A: ff	X: f	Y: 58	SP: f0
f1b1	0	INY	A: ff	X: f	Y: 59	SP: f0
f1b2	0	INY	A: ff	X: f	Y: 5a	SP: f0
f1b3	0	INY	A: ff	X: f	Y: 5b	SP: f0
f1b4	0	DEX	A: ff	X: f	Y: 5c	SP: f0
f1b5	f1ae	BNE	A: ff	X: e	Y: 5c	SP: f0
f1ae	25c	STA	A: ff	X: e	Y: 5c	SP: f0
f1b0	0	INY	A: ff	X: e	Y: 5c	SP: f0
f1b1	0	INY	A: ff	X: e	Y: 5d	SP: f0
f1b2	0	INY	A: ff	X: e	Y: 5e	SP: f0
f1b3	0	INY	A: ff	X: e	Y: 5f	SP: f0
f1b4	0	DEX	A: ff	X: e	Y: 60	SP: f0
f1b5	f1ae	BNE	A: ff	X: d	Y: 60	SP: f0
f1ae	260	STA	A: ff	X: d	Y: 60	SP: f0
f1b0	0	INY	A: ff	X: d	Y: 60	SP: f0
f1b1	0	INY	A: ff	X: d	Y: 61	SP: f0
f1b2	0	INY	A: ff	X: d	Y: 62	SP: f0
f1b3	0	INY	A: ff	X: d	Y: 63	SP: f0
f1b4	0	DEX	A: ff	X: d	Y: 64	SP: f0
f1b5	f1ae	BNE	A: ff	X: c	Y: 64	SP: f0
f1ae	264	STA	A: ff	X: c	Y: 64	SP: f0
f1b0	0	INY	A: ff	X: c	Y: 64	SP: f0
f1b1	0	INY	A: ff	X: c	Y: 65	SP: f0
f1b2	0	INY	A: ff	X: c	Y: 66	SP: f0
f1b3	0	INY	A: ff	X: c	Y: 67	SP: f0
f1b4	0	DEX	A: ff	X: c	Y: 68	SP: f0
f1b5	f1ae	BNE	A: ff	X: b	Y: 68	SP: f0
f1ae	268	STA	A: ff	X: b	Y: 68	SP: f0
f1b0	0	INY	A: ff	X: b	Y: 68	SP: f0
f1b1	0	INY	A: ff	X: b	Y: 69	SP: f0
f1b2	0	INY	A: ff	X: b	Y: 6a	SP: f0
f1b3	0	INY	A: ff	X: b	Y: 6b	SP: f0
f1b4	0	DEX	A: ff	X: b	Y: 6c	SP: f0
f1b5	f1ae	BNE	A: ff	X: a	Y: 6c	SP: f0
f1ae	26c	STA	A: ff	X: a	Y: 6c	SP: f0
f1b0	0	INY	A: ff	X: a	Y: 6c	SP: f0
f1b1	0	INY	A: ff	X: a	Y: 6d	SP: f0
f1b2	0	INY	A: ff	X: a	Y: 6e	SP: f0
f1b3	0	INY	A: ff	X: a	Y: 6f	SP: f0
f1b4	0	DEX	A: ff	X: a	Y: 70	SP: f0
f1b5	f1ae	BNE	A: ff	X: 9	Y: 70	SP: f0
f1ae	270	STA	A: ff	X: 9	Y: 70	SP: f0
f1b0	0	INY	A: ff	X: 9	Y: 70	SP: f0
f1b1	0	INY	A: ff	X: 9	Y: 71	SP: f0
f1b2	0	INY	A: ff	X: 9	Y: 72	SP: f0
f1b3	0	INY	A: ff	X: 9	Y: 73	SP: f0
f1b4	0	DEX	A: ff	X: 9	Y: 74	SP: f0
f1b5	f1ae	BNE	A: ff	X: 8	Y: 74	SP: f0
f1ae	274	STA	A: ff	X: 8	Y: 74	SP: f0
f1b0	0	INY	A: ff	X: 8	Y: 74	SP: f0
f1b1	0	INY	A: ff	X: 8	Y: 75	SP: f0
f1b2	0	INY	A: ff	X: 8	Y: 76	SP: f0
f1b3	0	INY	A: ff	X: 8	Y: 77	SP: f0
f1b4	0	DEX	A: ff	X: 8	Y: 78	SP: f0
f1b5	f1ae	BNE	A: ff	X: 7	Y: 78	SP: f0
f1ae	278	STA	A: ff	X: 7	Y: 78	SP: f0
f1b0	0	INY	A: ff	X: 7	Y: 78	SP: f0
f1b1	0	INY	A: ff	X: 7	Y: 79	SP: f0
f1b2	0	INY	A: ff	X: 7	Y: 7a	SP: f0
f1b3	0	INY	A: ff	X: 7	Y: 7b	SP: f0
f1b4	0	DEX	A: ff	X: 7	Y: 7c	SP: f0
f1b5	f1ae	BNE	A: ff	X: 6	Y: 7c	SP: f0
f1ae	27c	STA	A: ff	X: 6	Y: 7c	SP: f0
f1b0	0	INY	A: ff	X: 6	Y: 7c	SP: f0
f1b1	0	INY	A: ff	X: 6	Y: 7d	SP: f0
f1b2	0	INY	A: ff	X: 6	Y: 7e	SP: f0
f1b3	0	INY	A: ff	X: 6	Y: 7f	SP: f0
f1b4	0	DEX	A: ff	X: 6	Y: 80	SP: f0
f1b5	f1ae	BNE	A: ff	X: 5	Y: 80	SP: f0
f1ae	280	STA	A: ff	X: 5	Y: 80	SP: f0
f1b0	0	INY	A: ff	X: 5	Y: 80	SP: f0
f1b1	0	INY	A: ff	X: 5	Y: 81	SP: f0
f1b2	0	INY	A: ff	X: 5	Y: 82	SP: f0
f1b3	0	INY	A: ff	X: 5	Y: 83	SP: f0
f1b4	0	DEX	A: ff	X: 5	Y: 84	SP: f0
f1b5	f1ae	BNE	A: ff	X: 4	Y: 84	SP: f0
f1ae	284	STA	A: ff	X: 4	Y: 84	SP: f0
f1b0	0	INY	A: ff	X: 4	Y: 84	SP: f0
f1b1	0	INY	A: ff	X: 4	Y: 85	SP: f0
f1b2	0	INY	A: ff	X: 4	Y: 86	SP: f0
f1b3	0	INY	A: ff	X: 4	Y: 87	SP: f0
f1b4	0	DEX	A: ff	X: 4	Y: 88	SP: f0
f1b5	f1ae	BNE	A: ff	X: 3	Y: 88	SP: f0
f1ae	288	STA	A: ff	X: 3	Y: 88	SP: f0
f1b0	0	INY	A: ff	X: 3	Y: 88	SP: f0
f1b1	0	INY	A: ff	X: 3	Y: 89	SP: f0
f1b2	0	INY	A: ff	X: 3	Y: 8a	SP: f0
f1b3	0	INY	A: ff	X: 3	Y: 8b	SP: f0
f1b4	0	DEX	A: ff	X: 3	Y: 8c	SP: f0
f1b5	f1ae	BNE	A: ff	X: 2	Y: 8c	SP: f0
f1ae	28c	STA	A: ff	X: 2	Y: 8c	SP: f0
f1b0	0	INY	A: ff	X: 2	Y: 8c	SP: f0
f1b1	0	INY	A: ff	X: 2	Y: 8d	SP: f0
f1b2	0	INY	A: ff	X: 2	Y: 8e	SP: f0
f1b3	0	INY	A: ff	X: 2	Y: 8f	SP: f0
f1b4	0	DEX	A: ff	X: 2	Y: 90	SP: f0
f1b5	f1ae	BNE	A: ff	X: 1	Y: 90	SP: f0
f1ae	290	STA	A: ff	X: 1	Y: 90	SP: f0
f1b0	0	INY	A: ff	X: 1	Y: 90	SP: f0
f1b1	0	INY	A: ff	X: 1	Y: 91	SP: f0
f1b2	0	INY	A: ff	X: 1	Y: 92	SP: f0
f1b3	0	INY	A: ff	X: 1	Y: 93	SP: f0
f1b4	0	DEX	A: ff	X: 1	Y: 94	SP: f0
f1b5	f1ae	BNE	A: ff	X: 0	Y: 94	SP: f0
f1b7	0	LDA	A: ff	X: 0	Y: 94	SP: f0
f1b9	0	CLC	A: 50	X: 0	Y: 94	SP: f0
f1ba	f1bb	ADC	A: 50	X: 0	Y: 94	SP: f0
f1bc	0	STA	A: 58	X: 0	Y: 94	SP: f0
f1be	7	DEC	A: 58	X: 0	Y: 94	SP: f0
f1c0	f1a6	BNE	A: 58	X: 0	Y: 94	SP: f0
f1a6	6	LDX	A: 58	X: 0	Y: 94	SP: f0
f1a8	1	LDA	A: 58	X: f	Y: 94	SP: f0
f1aa	9	STA	A: ff	X: f	Y: 94	SP: f0
f1ac	f1ad	LDA	A: ff	X: f	Y: 94	SP: f0
f1ae	294	STA	A: ff	X: f	Y: 94	SP: f0
f1b0	0	INY	A: ff	X: f	Y: 94	SP: f0
f1b1	0	INY	A: ff	X: f	Y: 95	SP: f0
f1b2	0	INY	A: ff	X: f	Y: 96	SP: f0
f1b3	0	INY	A: ff	X: f	Y: 97	SP: f0
f1b4	0	DEX	A: ff	X: f	Y: 98	SP: f0
f1b5	f1ae	BNE	A: ff	X: e	Y: 98	SP: f0
f1ae	298	STA	A: ff	X: e	Y: 98	SP: f0
f1b0	0	INY	A: ff	X: e	Y: 98	SP: f0
f1b1	0	INY	A: ff	X: e	Y: 99	SP: f0
f1b2	0	INY	A: ff	X: e	Y: 9a	SP: f0
f1b3	0	INY	A: ff	X: e	Y: 9b	SP: f0
f1b4	0	DEX	A: ff	X: e	Y: 9c	SP: f0
f1b5	f1ae	BNE	A: ff	X: d	Y: 9c	SP: f0
f1ae	29c	STA	A: ff	X: d	Y: 9c	SP: f0
f1b0	0	INY	A: ff	X: d	Y: 9c	SP: f0
f1b1	0	INY	A: ff	X: d	Y: 9d	SP: f0
f1b2	0	INY	A: ff	X: d	Y: 9e	SP: f0
f1b3	0	INY	A: ff	X: d	Y: 9f	SP: f0
f1b4	0	DEX	A: ff	X: d	Y: a0	SP: f0
f1b5	f1ae	BNE	A: ff	X: c	Y: a0	SP: f0
f1ae	2a0	STA	A: ff	X: c	Y: a0	SP: f0
f1b0	0	INY	A: ff	X: c	Y: a0	SP: f0
f1b1	0	INY	A: ff	X: c	Y: a1	SP: f0
f1b2	0	INY	A: ff	X: c	Y: a2	SP: f0
f1b3	0	INY	A: ff	X: c	Y: a3	SP: f0
f1b4	0	DEX	A: ff	X: c	Y: a4	SP: f0
f1b5	f1ae	BNE	A: ff	X: b	Y: a4	SP: f0
f1ae	2a4	STA	A: ff	X: b	Y: a4	SP: f0
f1b0	0	INY	A: ff	X: b	Y: a4	SP: f0
f1b1	0	INY	A: ff	X: b	Y: a5	SP: f0
f1b2	0	INY	A: ff	X: b	Y: a6	SP: f0
f1b3	0	INY	A: ff	X: b	Y: a7	SP: f0
f1b4	0	DEX	A: ff	X: b	Y: a8	SP: f0
f1b5	f1ae	BNE	A: ff	X: a	Y: a8	SP: f0
f1ae	2a8	STA	A: ff	X: a	Y: a8	SP: f0
f1b0	0	INY	A: ff	X: a	Y: a8	SP: f0
f1b1	0	INY	A: ff	X: a	Y: a9	SP: f0
f1b2	0	INY	A: ff	X: a	Y: aa	SP: f0
f1b3	0	INY	A: ff	X: a	Y: ab	SP: f0
f1b4	0	DEX	A: ff	X: a	Y: ac	SP: f0
f1b5	f1ae	BNE	A: ff	X: 9	Y: ac	SP: f0
f1ae	2ac	STA	A: ff	X: 9	Y: ac	SP: f0
f1b0	0	INY	A: ff	X: 9	Y: ac	SP: f0
f1b1	0	INY	A: ff	X: 9	Y: ad	SP: f0
f1b2	0	INY	A: ff	X: 9	Y: ae	SP: f0
f1b3	0	INY	A: ff	X: 9	Y: af	SP: f0
f1b4	0	DEX	A: ff	X: 9	Y: b0	SP: f0
f1b5	f1ae	BNE	A: ff	X: 8	Y: b0	SP: f0
f1ae	2b0	STA	A: ff	X: 8	Y: b0	SP: f0
f1b0	0	INY	A: ff	X: 8	Y: b0	SP: f0
f1b1	0	INY	A: ff	X: 8	Y: b1	SP: f0
f1b2	0	INY	A: ff	X: 8	Y: b2	SP: f0
f1b3	0	INY	A: ff	X: 8	Y: b3	SP: f0
f1b4	0	DEX	A: ff	X: 8	Y: b4	SP: f0
f1b5	f1ae	BNE	A: ff	X: 7	Y: b4	SP: f0
f1ae	2b4	STA	A: ff	X: 7	Y: b4	SP: f0
f1b0	0	INY	A: ff	X: 7	Y: b4	SP: f0
f1b1	0	INY	A: ff	X: 7	Y: b5	SP: f0
f1b2	0	INY	A: ff	X: 7	Y: b6	SP: f0
f1b3	0	INY	A: ff	X: 7	Y: b7	SP: f0
f1b4	0	DEX	A: ff	X: 7	Y: b8	SP: f0
f1b5	f1ae	BNE	A: ff	X: 6	Y: b8	SP: f0
f1ae	2b8	STA	A: ff	X: 6	Y: b8	SP: f0
f1b0	0	INY	A: ff	X: 6	Y: b8	SP: f0
f1b1	0	INY	A: ff	X: 6	Y: b9	SP: f0
f1b2	0	INY	A: ff	X: 6	Y: ba	SP: f0
f1b3	0	INY	A: ff	X: 6	Y: bb	SP: f0
f1b4	0	DEX	A: ff	X: 6	Y: bc	SP: f0
f1b5	f1ae	BNE	A: ff	X: 5	Y: bc	SP: f0
f1ae	2bc	STA	A: ff	X: 5	Y: bc	SP: f0
f1b0	0	INY	A: ff	X: 5	Y: bc	SP: f0
f1b1	0	INY	A: ff	X: 5	Y: bd	SP: f0
f1b2	0	INY	A: ff	X: 5	Y: be	SP: f0
f1b3	0	INY	A: ff	X: 5	Y: bf	SP: f0
f1b4	0	DEX	A: ff	X: 5	Y: c0	SP: f0
f1b5	f1ae	BNE	A: ff	X: 4	Y: c0	SP: f0
f1ae	2c0	STA	A: ff	X: 4	Y: c0	SP: f0
f1b0	0	INY	A: ff	X: 4	Y: c0	SP: f0
f1b1	0	INY	A: ff	X: 4	Y: c1	SP: f0
f1b2	0	INY	A: ff	X: 4	Y: c2	SP: f0
f1b3	0	INY	A: ff	X: 4	Y: c3	SP: f0
f1b4	0	DEX	A: ff	X: 4	Y: c4	SP: f0
f1b5	f1ae	BNE	A: ff	X: 3	Y: c4	SP: f0
f1ae	2c4	STA	A: ff	X: 3	Y: c4	SP: f0
f1b0	0	INY	A: ff	X: 3	Y: c4	SP: f0
f1b1	0	INY	A: ff	X: 3	Y: c5	SP: f0
f1b2	0	INY	A: ff	X: 3	Y: c6	SP: f0
f1b3	0	INY	A: ff	X: 3	Y: c7	SP: f0
f1b4	0	DEX	A: ff	X: 3	Y: c8	SP: f0
f1b5	f1ae	BNE	A: ff	X: 2	Y: c8	SP: f0
f1ae	2c8	STA	A: ff	X: 2	Y: c8	SP: f0
f1b0	0	INY	A: ff	X: 2	Y: c8	SP: f0
f1b1	0	INY	A: ff	X: 2	Y: c9	SP: f0
f1b2	0	INY	A: ff	X: 2	Y: ca	SP: f0
f1b3	0	INY	A: ff	X: 2	Y: cb	SP: f0
f1b4	0	DEX	A: ff	X: 2	Y: cc	SP: f0
f1b5	f1ae	BNE	A: ff	X: 1	Y: cc	SP: f0
f1ae	2cc	STA	A: ff	X: 1	Y: cc	SP: f0
f1b0	0	INY	A: ff	X: 1	Y: cc	SP: f0
f1b1	0	INY	A: ff	X: 1	Y: cd	SP: f0
f1b2	0	INY	A: ff	X: 1	Y: ce	SP: f0
f1b3	0	INY	A: ff	X: 1	Y: cf	SP: f0
f1b4	0	DEX	A: ff	X: 1	Y: d0	SP: f0
f1b5	f1ae	BNE	A: ff	X: 0	Y: d0	SP: f0
f1b7	0	LDA	A: ff	X: 0	Y: d0	SP: f0
f1b9	0	CLC	A: 58	X: 0	Y: d0	SP: f0
f1ba	f1bb	ADC	A: 58	X: 0	Y: d0	SP: f0
f1bc	0	STA	A: 60	X: 0	Y: d0	SP: f0
f1be	7	DEC	A: 60	X: 0	Y: d0	SP: f0
f1c0	f1a6	BNE	A: 60	X: 0	Y: d0	SP: f0
f1a6	6	LDX	A: 60	X: 0	Y: d0	SP: f0
f1a8	1	LDA	A: 60	X: f	Y: d0	SP: f0
f1aa	9	STA	A: ff	X: f	Y: d0	SP: f0
f1ac	f1ad	LDA	A: ff	X: f	Y: d0	SP: f0
f1ae	2d0	STA	A: ff	X: f	Y: d0	SP: f0
f1b0	0	INY	A: ff	X: f	Y: d0	SP: f0
f1b1	0	INY	A: ff	X: f	Y: d1	SP: f0
f1b2	0	INY	A: ff	X: f	Y: d2	SP: f0
f1b3	0	INY	A: ff	X: f	Y: d3	SP: f0
f1b4	0	DEX	A: ff	X: f	Y: d4	SP: f0
f1b5	f1ae	BNE	A: ff	X: e	Y: d4	SP: f0
f1ae	2d4	STA	A: ff	X: e	Y: d4	SP: f0
f1b0	0	INY	A: ff	X: e	Y: d4	SP: f0
f1b1	0	INY	A: ff	X: e	Y: d5	SP: f0
f1b2	0	INY	A: ff	X: e	Y: d6	SP: f0
f1b3	0	INY	A: ff	X: e	Y: d7	SP: f0
f1b4	0	DEX	A: ff	X: e	Y: d8	SP: f0
f1b5	f1ae	BNE	A: ff	X: d	Y: d8	SP: f0
f1ae	2d8	STA	A: ff	X: d	Y: d8	SP: f0
f1b0	0	INY	A: ff	X: d	Y: d8	SP: f0
f1b1	0	INY	A: ff	X: d	Y: d9	SP: f0
f1b2	0	INY	A: ff	X: d	Y: da	SP: f0
f1b3	0	INY	A: ff	X: d	Y: db	SP: f0
f1b4	0	DEX	A: ff	X: d	Y: dc	SP: f0
f1b5	f1ae	BNE	A: ff	X: c	Y: dc	SP: f0
f1ae	2dc	STA	A: ff	X: c	Y: dc	SP: f0
f1b0	0	INY	A: ff	X: c	Y: dc	SP: f0
f1b1	0	INY	A: ff	X: c	Y: dd	SP: f0
f1b2	0	INY	A: ff	X: c	Y: de	SP: f0
f1b3	0	INY	A: ff	X: c	Y: df	SP: f0
f1b4	0	DEX	A: ff	X: c	Y: e0	SP: f0
f1b5	f1ae	BNE	A: ff	X: b	Y: e0	SP: f0
f1ae	2e0	STA	A: ff	X: b	Y: e0	SP: f0
f1b0	0	INY	A: ff	X: b	Y: e0	SP: f0
f1b1	0	INY	A: ff	X: b	Y: e1	SP: f0
f1b2	0	INY	A: ff	X: b	Y: e2	SP: f0
f1b3	0	INY	A: ff	X: b	Y: e3	SP: f0
f1b4	0	DEX	A: ff	X: b	Y: e4	SP: f0
f1b5	f1ae	BNE	A: ff	X: a	Y: e4	SP: f0
f1ae	2e4	STA	A: ff	X: a	Y: e4	SP: f0
f1b0	0	INY	A: ff	X: a	Y: e4	SP: f0
f1b1	0	INY	A: ff	X: a	Y: e5	SP: f0
f1b2	0	INY	A: ff	X: a	Y: e6	SP: f0
f1b3	0	INY	A: ff	X: a	Y: e7	SP: f0
f1b4	0	DEX	A: ff	X: a	Y: e8	SP: f0
f1b5	f1ae	BNE	A: ff	X: 9	Y: e8	SP: f0
f1ae	2e8	STA	A: ff	X: 9	Y: e8	SP: f0
f1b0	0	INY	A: ff	X: 9	Y: e8	SP: f0
f1b1	0	INY	A: ff	X: 9	Y: e9	SP: f0
f1b2	0	INY	A: ff	X: 9	Y: ea	SP: f0
f1b3	0	INY	A: ff	X: 9	Y: eb	SP: f0
f1b4	0	DEX	A: ff	X: 9	Y: ec	SP: f0
f1b5	f1ae	BNE	A: ff	X: 8	Y: ec	SP: f0
f1ae	2ec	STA	A: ff	X: 8	Y: ec	SP: f0
f1b0	0	INY	A: ff	X: 8	Y: ec	SP: f0
f1b1	0	INY	A: ff	X: 8	Y: ed	SP: f0
f1b2	0	INY	A: ff	X: 8	Y: ee	SP: f0
f1b3	0	INY	A: ff	X: 8	Y: ef	SP: f0
f1b4	0	DEX	A: ff	X: 8	Y: f0	SP: f0
f1b5	f1ae	BNE	A: ff	X: 7	Y: f0	SP: f0
f1ae	2f0	STA	A: ff	X: 7	Y: f0	SP: f0
f1b0	0	INY	A: ff	X: 7	Y: f0	SP: f0
f1b1	0	INY	A: ff	X: 7	Y: f1	SP: f0
f1b2	0	INY	A: ff	X: 7	Y: f2	SP: f0
f1b3	0	INY	A: ff	X: 7	Y: f3	SP: f0
f1b4	0	DEX	A: ff	X: 7	Y: f4	SP: f0
f1b5	f1ae	BNE	A: ff	X: 6	Y: f4	SP: f0
f1ae	2f4	STA	A: ff	X: 6	Y: f4	SP: f0
f1b0	0	INY	A: ff	X: 6	Y: f4	SP: f0
f1b1	0	INY	A: ff	X: 6	Y: f5	SP: f0
f1b2	0	INY	A: ff	X: 6	Y: f6	SP: f0
f1b3	0	INY	A: ff	X: 6	Y: f7	SP: f0
f1b4	0	DEX	A: ff	X: 6	Y: f8	SP: f0
f1b5	f1ae	BNE	A: ff	X: 5	Y: f8	SP: f0
f1ae	2f8	STA	A: ff	X: 5	Y: f8	SP: f0
f1b0	0	INY	A: ff	X: 5	Y: f8	SP: f0
f1b1	0	INY	A: ff	X: 5	Y: f9	SP: f0
f1b2	0	INY	A: ff	X: 5	Y: fa	SP: f0
f1b3	0	INY	A: ff	X: 5	Y: fb	SP: f0
f1b4	0	DEX	A: ff	X: 5	Y: fc	SP: f0
f1b5	f1ae	BNE	A: ff	X: 4	Y: fc	SP: f0
f1ae	2fc	STA	A: ff	X: 4	Y: fc	SP: f0
f1b0	0	INY	A: ff	X: 4	Y: fc	SP: f0
f1b1	0	INY	A: ff	X: 4	Y: fd	SP: f0
f1b2	0	INY	A: ff	X: 4	Y: fe	SP: f0
f1b3	0	INY	A: ff	X: 4	Y: ff	SP: f0
f1b4	0	DEX	A: ff	X: 4	Y: 0	SP: f0
f1b5	f1ae	BNE	A: ff	X: 3	Y: 0	SP: f0
f1ae	200	STA	A: ff	X: 3	Y: 0	SP: f0
f1b0	0	INY	A: ff	X: 3	Y: 0	SP: f0
f1b1	0	INY	A: ff	X: 3	Y: 1	SP: f0
f1b2	0	INY	A: ff	X: 3	Y: 2	SP: f0
f1b3	0	INY	A: ff	X: 3	Y: 3	SP: f0
f1b4	0	DEX	A: ff	X: 3	Y: 4	SP: f0
f1b5	f1ae	BNE	A: ff	X: 2	Y: 4	SP: f0
f1ae	204	STA	A: ff	X: 2	Y: 4	SP: f0
f1b0	0	INY	A: ff	X: 2	Y: 4	SP: f0
f1b1	0	INY	A: ff	X: 2	Y: 5	SP: f0
f1b2	0	INY	A: ff	X: 2	Y: 6	SP: f0
f1b3	0	INY	A: ff	X: 2	Y: 7	SP: f0
f1b4	0	DEX	A: ff	X: 2	Y: 8	SP: f0
f1b5	f1ae	BNE	A: ff	X: 1	Y: 8	SP: f0
f1ae	208	STA	A: ff	X: 1	Y: 8	SP: f0
f1b0	0	INY	A: ff	X: 1	Y: 8	SP: f0
f1b1	0	INY	A: ff	X: 1	Y: 9	SP: f0
f1b2	0	INY	A: ff	X: 1	Y: a	SP: f0
f1b3	0	INY	A: ff	X: 1	Y: b	SP: f0
f1b4	0	DEX	A: ff	X: 1	Y: c	SP: f0
f1b5	f1ae	BNE	A: ff	X: 0	Y: c	SP: f0
f1b7	0	LDA	A: ff	X: 0	Y: c	SP: f0
f1b9	0	CLC	A: 60	X: 0	Y: c	SP: f0
f1ba	f1bb	ADC	A: 60	X: 0	Y: c	SP: f0
f1bc	0	STA	A: 68	X: 0	Y: c	SP: f0
f1be	7	DEC	A: 68	X: 0	Y: c	SP: f0
f1c0	f1a6	BNE	A: 68	X: 0	Y: c	SP: f0
f1a6	6	LDX	A: 68	X: 0	Y: c	SP: f0
f1a8	1	LDA	A: 68	X: f	Y: c	SP: f0
f1aa	9	STA	A: ff	X: f	Y: c	SP: f0
f1ac	f1ad	LDA	A: ff	X: f	Y: c	SP: f0
f1ae	20c	STA	A: ff	X: f	Y: c	SP: f0
f1b0	0	INY	A: ff	X: f	Y: c	SP: f0
f1b1	0	INY	A: ff	X: f	Y: d	SP: f0
f1b2	0	INY	A: ff	X: f	Y: e	SP: f0
f1b3	0	INY	A: ff	X: f	Y: f	SP: f0
f1b4	0	DEX	A: ff	X: f	Y: 10	SP: f0
f1b5	f1ae	BNE	A: ff	X: e	Y: 10	SP: f0
f1ae	210	STA	A: ff	X: e	Y: 10	SP: f0
f1b0	0	INY	A: ff	X: e	Y: 10	SP: f0
f1b1	0	INY	A: ff	X: e	Y: 11	SP: f0
f1b2	0	INY	A: ff	X: e	Y: 12	SP: f0
f1b3	0	INY	A: ff	X: e	Y: 13	SP: f0
f1b4	0	DEX	A: ff	X: e	Y: 14	SP: f0
f1b5	f1ae	BNE	A: ff	X: d	Y: 14	SP: f0
f1ae	214	STA	A: ff	X: d	Y: 14	SP: f0
f1b0	0	INY	A: ff	X: d	Y: 14	SP: f0
f1b1	0	INY	A: ff	X: d	Y: 15	SP: f0
f1b2	0	INY	A: ff	X: d	Y: 16	SP: f0
f1b3	0	INY	A: ff	X: d	Y: 17	SP: f0
f1b4	0	DEX	A: ff	X: d	Y: 18	SP: f0
f1b5	f1ae	BNE	A: ff	X: c	Y: 18	SP: f0
f1ae	218	STA	A: ff	X: c	Y: 18	SP: f0
f1b0	0	INY	A: ff	X: c	Y: 18	SP: f0
f1b1	0	INY	A: ff	X: c	Y: 19	SP: f0
f1b2	0	INY	A: ff	X: c	Y: 1a	SP: f0
f1b3	0	INY	A: ff	X: c	Y: 1b	SP: f0
f1b4	0	DEX	A: ff	X: c	Y: 1c	SP: f0
f1b5	f1ae	BNE	A: ff	X: b	Y: 1c	SP: f0
f1ae	21c	STA	A: ff	X: b	Y: 1c	SP: f0
f1b0	0	INY	A: ff	X: b	Y: 1c	SP: f0
f1b1	0	INY	A: ff	X: b	Y: 1d	SP: f0
f1b2	0	INY	A: ff	X: b	Y: 1e	SP: f0
f1b3	0	INY	A: ff	X: b	Y: 1f	SP: f0
f1b4	0	DEX	A: ff	X: b	Y: 20	SP: f0
f1b5	f1ae	BNE	A: ff	X: a	Y: 20	SP: f0
f1ae	220	STA	A: ff	X: a	Y: 20	SP: f0
f1b0	0	INY	A: ff	X: a	Y: 20	SP: f0
f1b1	0	INY	A: ff	X: a	Y: 21	SP: f0
f1b2	0	INY	A: ff	X: a	Y: 22	SP: f0
f1b3	0	INY	A: ff	X: a	Y: 23	SP: f0
f1b4	0	DEX	A: ff	X: a	Y: 24	SP: f0
f1b5	f1ae	BNE	A: ff	X: 9	Y: 24	SP: f0
f1ae	224	STA	A: ff	X: 9	Y: 24	SP: f0
f1b0	0	INY	A: ff	X: 9	Y: 24	SP: f0
f1b1	0	INY	A: ff	X: 9	Y: 25	SP: f0
f1b2	0	INY	A: ff	X: 9	Y: 26	SP: f0
f1b3	0	INY	A: ff	X: 9	Y: 27	SP: f0
f1b4	0	DEX	A: ff	X: 9	Y: 28	SP: f0
f1b5	f1ae	BNE	A: ff	X: 8	Y: 28	SP: f0
f1ae	228	STA	A: ff	X: 8	Y: 28	SP: f0
f1b0	0	INY	A: ff	X: 8	Y: 28	SP: f0
f1b1	0	INY	A: ff	X: 8	Y: 29	SP: f0
f1b2	0	INY	A: ff	X: 8	Y: 2a	SP: f0
f1b3	0	INY	A: ff	X: 8	Y: 2b	SP: f0
f1b4	0	DEX	A: ff	X: 8	Y: 2c	SP: f0
f1b5	f1ae	BNE	A: ff	X: 7	Y: 2c	SP: f0
f1ae	22c	STA	A: ff	X: 7	Y: 2c	SP: f0
f1b0	0	INY	A: ff	X: 7	Y: 2c	SP: f0
f1b1	0	INY	A: ff	X: 7	Y: 2d	SP: f0
f1b2	0	INY	A: ff	X: 7	Y: 2e	SP: f0
f1b3	0	INY	A: ff	X: 7	Y: 2f	SP: f0
f1b4	0	DEX	A: ff	X: 7	Y: 30	SP: f0
f1b5	f1ae	BNE	A: ff	X: 6	Y: 30	SP: f0
f1ae	230	STA	A: ff	X: 6	Y: 30	SP: f0
f1b0	0	INY	A: ff	X: 6	Y: 30	SP: f0
f1b1	0	INY	A: ff	X: 6	Y: 31	SP: f0
f1b2	0	INY	A: ff	X: 6	Y: 32	SP: f0
f1b3	0	INY	A: ff	X: 6	Y: 33	SP: f0
f1b4	0	DEX	A: ff	X: 6	Y: 34	SP: f0
f1b5	f1ae	BNE	A: ff	X: 5	Y: 34	SP: f0
f1ae	234	STA	A: ff	X: 5	Y: 34	SP: f0
f1b0	0	INY	A: ff	X: 5	Y: 34	SP: f0
f1b1	0	INY	A: ff	X: 5	Y: 35	SP: f0
f1b2	0	INY	A: ff	X: 5	Y: 36	SP: f0
f1b3	0	INY	A: ff	X: 5	Y: 37	SP: f0
f1b4	0	DEX	A: ff	X: 5	Y: 38	SP: f0
f1b5	f1ae	BNE	A: ff	X: 4	Y: 38	SP: f0
f1ae	238	STA	A: ff	X: 4	Y: 38	SP: f0
f1b0	0	INY	A: ff	X: 4	Y: 38	SP: f0
f1b1	0	INY	A: ff	X: 4	Y: 39	SP: f0
f1b2	0	INY	A: ff	X: 4	Y: 3a	SP: f0
f1b3	0	INY	A: ff	X: 4	Y: 3b	SP: f0
f1b4	0	DEX	A: ff	X: 4	Y: 3c	SP: f0
f1b5	f1ae	BNE	A: ff	X: 3	Y: 3c	SP: f0
f1ae	23c	STA	A: ff	X: 3	Y: 3c	SP: f0
f1b0	0	INY	A: ff	X: 3	Y: 3c	SP: f0
f1b1	0	INY	A: ff	X: 3	Y: 3d	SP: f0
f1b2	0	INY	A: ff	X: 3	Y: 3e	SP: f0
f1b3	0	INY	A: ff	X: 3	Y: 3f	SP: f0
f1b4	0	DEX	A: ff	X: 3	Y: 40	SP: f0
f1b5	f1ae	BNE	A: ff	X: 2	Y: 40	SP: f0
f1ae	240	STA	A: ff	X: 2	Y: 40	SP: f0
f1b0	0	INY	A: ff	X: 2	Y: 40	SP: f0
f1b1	0	INY	A: ff	X: 2	Y: 41	SP: f0
f1b2	0	INY	A: ff	X: 2	Y: 42	SP: f0
f1b3	0	INY	A: ff	X: 2	Y: 43	SP: f0
f1b4	0	DEX	A: ff	X: 2	Y: 44	SP: f0
f1b5	f1ae	BNE	A: ff	X: 1	Y: 44	SP: f0
f1ae	244	STA	A: ff	X: 1	Y: 44	SP: f0
f1b0	0	INY	A: ff	X: 1	Y: 44	SP: f0
f1b1	0	INY	A: ff	X: 1	Y: 45	SP: f0
f1b2	0	INY	A: ff	X: 1	Y: 46	SP: f0
f1b3	0	INY	A: ff	X: 1	Y: 47	SP: f0
f1b4	0	DEX	A: ff	X: 1	Y: 48	SP: f0
f1b5	f1ae	BNE	A: ff	X: 0	Y: 48	SP: f0
f1b7	0	LDA	A: ff	X: 0	Y: 48	SP: f0
f1b9	0	CLC	A: 68	X: 0	Y: 48	SP: f0
f1ba	f1bb	ADC	A: 68	X: 0	Y: 48	SP: f0
f1bc	0	STA	A: 70	X: 0	Y: 48	SP: f0
f1be	7	DEC	A: 70	X: 0	Y: 48	SP: f0
f1c0	f1a6	BNE	A: 70	X: 0	Y: 48	SP: f0
f1a6	6	LDX	A: 70	X: 0	Y: 48	SP: f0
f1a8	1	LDA	A: 70	X: f	Y: 48	SP: f0
f1aa	9	STA	A: ff	X: f	Y: 48	SP: f0
f1ac	f1ad	LDA	A: ff	X: f	Y: 48	SP: f0
f1ae	248	STA	A: ff	X: f	Y: 48	SP: f0
f1b0	0	INY	A: ff	X: f	Y: 48	SP: f0
f1b1	0	INY	A: ff	X: f	Y: 49	SP: f0
f1b2	0	INY	A: ff	X: f	Y: 4a	SP: f0
f1b3	0	INY	A: ff	X: f	Y: 4b	SP: f0
f1b4	0	DEX	A: ff	X: f	Y: 4c	SP: f0
f1b5	f1ae	BNE	A: ff	X: e	Y: 4c	SP: f0
f1ae	24c	STA	A: ff	X: e	Y: 4c	SP: f0
f1b0	0	INY	A: ff	X: e	Y: 4c	SP: f0
f1b1	0	INY	A: ff	X: e	Y: 4d	SP: f0
f1b2	0	INY	A: ff	X: e	Y: 4e	SP: f0
f1b3	0	INY	A: ff	X: e	Y: 4f	SP: f0
f1b4	0	DEX	A: ff	X: e	Y: 50	SP: f0
f1b5	f1ae	BNE	A: ff	X: d	Y: 50	SP: f0
f1ae	250	STA	A: ff	X: d	Y: 50	SP: f0
f1b0	0	INY	A: ff	X: d	Y: 50	SP: f0
f1b1	0	INY	A: ff	X: d	Y: 51	SP: f0
f1b2	0	INY	A: ff	X: d	Y: 52	SP: f0
f1b3	0	INY	A: ff	X: d	Y: 53	SP: f0
f1b4	0	DEX	A: ff	X: d	Y: 54	SP: f0
f1b5	f1ae	BNE	A: ff	X: c	Y: 54	SP: f0
f1ae	254	STA	A: ff	X: c	Y: 54	SP: f0
f1b0	0	INY	A: ff	X: c	Y: 54	SP: f0
f1b1	0	INY	A: ff	X: c	Y: 55	SP: f0
f1b2	0	INY	A: ff	X: c	Y: 56	SP: f0
f1b3	0	INY	A: ff	X: c	Y: 57	SP: f0
f1b4	0	DEX	A: ff	X: c	Y: 58	SP: f0
f1b5	f1ae	BNE	A: ff	X: b	Y: 58	SP: f0
f1ae	258	STA	A: ff	X: b	Y: 58	SP: f0
f1b0	0	INY	A: ff	X: b	Y: 58	SP: f0
f1b1	0	INY	A: ff	X: b	Y: 59	SP: f0
f1b2	0	INY	A: ff	X: b	Y: 5a	SP: f0
f1b3	0	INY	A: ff	X: b	Y: 5b	SP: f0
f1b4	0	DEX	A: ff	X: b	Y: 5c	SP: f0
f1b5	f1ae	BNE	A: ff	X: a	Y: 5c	SP: f0
f1ae	25c	STA	A: ff	X: a	Y: 5c	SP: f0
f1b0	0	INY	A: ff	X: a	Y: 5c	SP: f0
f1b1	0	INY	A: ff	X: a	Y: 5d	SP: f0
f1b2	0	INY	A: ff	X: a	Y: 5e	SP: f0
f1b3	0	INY	A: ff	X: a	Y: 5f	SP: f0
f1b4	0	DEX	A: ff	X: a	Y: 60	SP: f0
f1b5	f1ae	BNE	A: ff	X: 9	Y: 60	SP: f0
f1ae	260	STA	A: ff	X: 9	Y: 60	SP: f0
f1b0	0	INY	A: ff	X: 9	Y: 60	SP: f0
f1b1	0	INY	A: ff	X: 9	Y: 61	SP: f0
f1b2	0	INY	A: ff	X: 9	Y: 62	SP: f0
f1b3	0	INY	A: ff	X: 9	Y: 63	SP: f0
f1b4	0	DEX	A: ff	X: 9	Y: 64	SP: f0
f1b5	f1ae	BNE	A: ff	X: 8	Y: 64	SP: f0
f1ae	264	STA	A: ff	X: 8	Y: 64	SP: f0
f1b0	0	INY	A: ff	X: 8	Y: 64	SP: f0
f1b1	0	INY	A: ff	X: 8	Y: 65	SP: f0
f1b2	0	INY	A: ff	X: 8	Y: 66	SP: f0
f1b3	0	INY	A: ff	X: 8	Y: 67	SP: f0
f1b4	0	DEX	A: ff	X: 8	Y: 68	SP: f0
f1b5	f1ae	BNE	A: ff	X: 7	Y: 68	SP: f0
f1ae	268	STA	A: ff	X: 7	Y: 68	SP: f0
f1b0	0	INY	A: ff	X: 7	Y: 68	SP: f0
f1b1	0	INY	A: ff	X: 7	Y: 69	SP: f0
f1b2	0	INY	A: ff	X: 7	Y: 6a	SP: f0
f1b3	0	INY	A: ff	X: 7	Y: 6b	SP: f0
f1b4	0	DEX	A: ff	X: 7	Y: 6c	SP: f0
f1b5	f1ae	BNE	A: ff	X: 6	Y: 6c	SP: f0
f1ae	26c	STA	A: ff	X: 6	Y: 6c	SP: f0
f1b0	0	INY	A: ff	X: 6	Y: 6c	SP: f0
f1b1	0	INY	A: ff	X: 6	Y: 6d	SP: f0
f1b2	0	INY	A: ff	X: 6	Y: 6e	SP: f0
f1b3	0	INY	A: ff	X: 6	Y: 6f	SP: f0
f1b4	0	DEX	A: ff	X: 6	Y: 70	SP: f0
f1b5	f1ae	BNE	A: ff	X: 5	Y: 70	SP: f0
f1ae	270	STA	A: ff	X: 5	Y: 70	SP: f0
f1b0	0	INY	A: ff	X: 5	Y: 70	SP: f0
f1b1	0	INY	A: ff	X: 5	Y: 71	SP: f0
f1b2	0	INY	A: ff	X: 5	Y: 72	SP: f0
f1b3	0	INY	A: ff	X: 5	Y: 73	SP: f0
f1b4	0	DEX	A: ff	X: 5	Y: 74	SP: f0
f1b5	f1ae	BNE	A: ff	X: 4	Y: 74	SP: f0
f1ae	274	STA	A: ff	X: 4	Y: 74	SP: f0
f1b0	0	INY	A: ff	X: 4	Y: 74	SP: f0
f1b1	0	INY	A: ff	X: 4	Y: 75	SP: f0
f1b2	0	INY	A: ff	X: 4	Y: 76	SP: f0
f1b3	0	INY	A: ff	X: 4	Y: 77	SP: f0
f1b4	0	DEX	A: ff	X: 4	Y: 78	SP: f0
f1b5	f1ae	BNE	A: ff	X: 3	Y: 78	SP: f0
f1ae	278	STA	A: ff	X: 3	Y: 78	SP: f0
f1b0	0	INY	A: ff	X: 3	Y: 78	SP: f0
f1b1	0	INY	A: ff	X: 3	Y: 79	SP: f0
f1b2	0	INY	A: ff	X: 3	Y: 7a	SP: f0
f1b3	0	INY	A: ff	X: 3	Y: 7b	SP: f0
f1b4	0	DEX	A: ff	X: 3	Y: 7c	SP: f0
f1b5	f1ae	BNE	A: ff	X: 2	Y: 7c	SP: f0
f1ae	27c	STA	A: ff	X: 2	Y: 7c	SP: f0
f1b0	0	INY	A: ff	X: 2	Y: 7c	SP: f0
f1b1	0	INY	A: ff	X: 2	Y: 7d	SP: f0
f1b2	0	INY	A: ff	X: 2	Y: 7e	SP: f0
f1b3	0	INY	A: ff	X: 2	Y: 7f	SP: f0
f1b4	0	DEX	A: ff	X: 2	Y: 80	SP: f0
f1b5	f1ae	BNE	A: ff	X: 1	Y: 80	SP: f0
f1ae	280	STA	A: ff	X: 1	Y: 80	SP: f0
f1b0	0	INY	A: ff	X: 1	Y: 80	SP: f0
f1b1	0	INY	A: ff	X: 1	Y: 81	SP: f0
f1b2	0	INY	A: ff	X: 1	Y: 82	SP: f0
f1b3	0	INY	A: ff	X: 1	Y: 83	SP: f0
f1b4	0	DEX	A: ff	X: 1	Y: 84	SP: f0
f1b5	f1ae	BNE	A: ff	X: 0	Y: 84	SP: f0
f1b7	0	LDA	A: ff	X: 0	Y: 84	SP: f0
f1b9	0	CLC	A: 70	X: 0	Y: 84	SP: f0
f1ba	f1bb	ADC	A: 70	X: 0	Y: 84	SP: f0
f1bc	0	STA	A: 78	X: 0	Y: 84	SP: f0
f1be	7	DEC	A: 78	X: 0	Y: 84	SP: f0
f1c0	f1a6	BNE	A: 78	X: 0	Y: 84	SP: f0
f1c2	0	RTS	A: 78	X: 0	Y: 84	SP: f0
f0f2	f101	JMP	A: 78	X: 0	Y: 84	SP: f2
f101	0	PLA	A: 78	X: 0	Y: 84	SP: f2
f102	9	STA	A: 0	X: 0	Y: 84	SP: f3
f104	0	PLA	A: 0	X: 0	Y: 84	SP: f3
f105	8	STA	A: 0	X: 0	Y: 84	SP: f4
f107	0	PLA	A: 0	X: 0	Y: 84	SP: f4
f108	7	STA	A: 0	X: 0	Y: 84	SP: f5
f10a	0	PLA	A: 0	X: 0	Y: 84	SP: f5
f10b	6	STA	A: 0	X: 0	Y: 84	SP: f6
f10d	0	PLA	A: 0	X: 0	Y: 84	SP: f6
f10e	5	STA	A: 0	X: 0	Y: 84	SP: f7
f110	0	PLA	A: 0	X: 0	Y: 84	SP: f7
f111	0	STA	A: 0	X: 0	Y: 84	SP: f8
f113	0	PLA	A: 0	X: 0	Y: 84	SP: f8
f114	0	TAY	A: 0	X: 0	Y: 84	SP: f9
f115	0	PLA	A: 0	X: 0	Y: 0	SP: f9
f116	0	TAX	A: ff	X: 0	Y: 0	SP: fa
f117	0	PLA	A: ff	X: ff	Y: 0	SP: fa
f118	0	RTS	A: f	X: ff	Y: 0	SP: fb
c804	cbb3	JMP	A: f	X: ff	Y: 0	SP: fd
cbb3	d196	JSR	A: f	X: ff	Y: 0	SP: fd
d196	11	LDA	A: f	X: ff	Y: 0	SP: fb
d198	d199	AND	A: 6	X: ff	Y: 0	SP: fb
d19a	2001	STA	A: 6	X: ff	Y: 0	SP: fb
d19d	11	STA	A: 6	X: ff	Y: 0	SP: fb
d19f	0	RTS	A: 6	X: ff	Y: 0	SP: fb
cbb6	f1c3	JMP	A: 6	X: ff	Y: 0	SP: fd
f1c3	2002	LDA	A: 6	X: ff	Y: 0	SP: fd
Read from PPU register: 2
f1c6	10	LDA	A: 80	X: ff	Y: 0	SP: fd
f1c8	f1c9	AND	A: 10	X: ff	Y: 0	SP: fd
f1ca	2000	STA	A: 10	X: ff	Y: 0	SP: fd
f1cd	f1ce	LDA	A: 10	X: ff	Y: 0	SP: fd
f1cf	2006	STA	A: 20	X: ff	Y: 0	SP: fd
f1d2	f1d3	LDA	A: 20	X: ff	Y: 0	SP: fd
f1d4	2006	STA	A: 0	X: ff	Y: 0	SP: fd
f1d7	f1d8	LDX	A: 0	X: ff	Y: 0	SP: fd
f1d9	f1da	LDY	A: 0	X: 4	Y: 0	SP: fd
f1db	f1dc	LDA	A: 0	X: 4	Y: 0	SP: fd
f1dd	2007	STA	A: 24	X: 4	Y: 0	SP: fd
f1e0	0	DEY	A: 24	X: 4	Y: 0	SP: fd
f1e1	f1dd	BNE	A: 24	X: 4	Y: ff	SP: fd
f1dd	2007	STA	A: 24	X: 4	Y: ff	SP: fd
f1e0	0	DEY	A: 24	X: 4	Y: ff	SP: fd
f1e1	f1dd	BNE	A: 24	X: 4	Y: fe	SP: fd
f1dd	2007	STA	A: 24	X: 4	Y: fe	SP: fd
f1e0	0	DEY	A: 24	X: 4	Y: fe	SP: fd
f1e1	f1dd	BNE	A: 24	X: 4	Y: fd	SP: fd
f1dd	2007	STA	A: 24	X: 4	Y: fd	SP: fd
f1e0	0	DEY	A: 24	X: 4	Y: fd	SP: fd
f1e1	f1dd	BNE	A: 24	X: 4	Y: fc	SP: fd
f1dd	2007	STA	A: 24	X: 4	Y: fc	SP: fd
f1e0	0	DEY	A: 24	X: 4	Y: fc	SP: fd
f1e1	f1dd	BNE	A: 24	X: 4	Y: fb	SP: fd
f1dd	2007	STA	A: 24	X: 4	Y: fb	SP: fd
f1e0	0	DEY	A: 24	X: 4	Y: fb	SP: fd
f1e1	f1dd	BNE	A: 24	X: 4	Y: fa	SP: fd
f1dd	2007	STA	A: 24	X: 4	Y: fa	SP: fd
f1e0	0	DEY	A: 24	X: 4	Y: fa	SP: fd
f1e1	f1dd	BNE	A: 24	X: 4	Y: f9	SP: fd
f1dd	2007	STA	A: 24	X: 4	Y: f9	SP: fd
f1e0	0	DEY	A: 24	X: 4	Y: f9	SP: fd
f1e1	f1dd	BNE	A: 24	X: 4	Y: f8	SP: fd
f1dd	2007	STA	A: 24	X: 4	Y: f8	SP: fd
f1e0	0	DEY	A: 24	X: 4	Y: f8	SP: fd
f1e1	f1dd	BNE	A: 24	X: 4	Y: f7	SP: fd
f1dd	2007	STA	A: 24	X: 4	Y: f7	SP: fd
f1e0	0	DEY	A: 24	X: 4	Y: f7	SP: fd
f1e1	f1dd	BNE	A: 24	X: 4	Y: f6	SP: fd
f1dd	2007	STA	A: 24	X: 4	Y: f6	SP: fd
f1e0	0	DEY	A: 24	X: 4	Y: f6	SP: fd
f1e1	f1dd	BNE	A: 24	X: 4	Y: f5	SP: fd
f1dd	2007	STA	A: 24	X: 4	Y: f5	SP: fd
f1e0	0	DEY	A: 24	X: 4	Y: f5	SP: fd
f1e1	f1dd	BNE	A: 24	X: 4	Y: f4	SP: fd
f1dd	2007	STA	A: 24	X: 4	Y: f4	SP: fd
f1e0	0	DEY	A: 24	X: 4	Y: f4	SP: fd
f1e1	f1dd	BNE	A: 24	X: 4	Y: f3	SP: fd
f1dd	2007	STA	A: 24	X: 4	Y: f3	SP: fd
f1e0	0	DEY	A: 24	X: 4	Y: f3	SP: fd
f1e1	f1dd	BNE	A: 24	X: 4	Y: f2	SP: fd
f1dd	2007	STA	A: 24	X: 4	Y: f2	SP: fd
f1e0	0	DEY	A: 24	X: 4	Y: f2	SP: fd
f1e1	f1dd	BNE	A: 24	X: 4	Y: f1	SP: fd
f1dd	2007	STA	A: 24	X: 4	Y: f1	SP: fd
f1e0	0	DEY	A: 24	X: 4	Y: f1	SP: fd
f1e1	f1dd	BNE	A: 24	X: 4	Y: f0	SP: fd
f1dd	2007	STA	A: 24	X: 4	Y: f0	SP: fd
f1e0	0	DEY	A: 24	X: 4	Y: f0	SP: fd
f1e1	f1dd	BNE	A: 24	X: 4	Y: ef	SP: fd
f1dd	2007	STA	A: 24	X: 4	Y: ef	SP: fd
f1e0	0	DEY	A: 24	X: 4	Y: ef	SP: fd
f1e1	f1dd	BNE	A: 24	X: 4	Y: ee	SP: fd
f1dd	2007	STA	A: 24	X: 4	Y: ee	SP: fd
f1e0	0	DEY	A: 24	X: 4	Y: ee	SP: fd
f1e1	f1dd	BNE	A: 24	X: 4	Y: ed	SP: fd
f1dd	2007	STA	A: 24	X: 4	Y: ed	SP: fd
f1e0	0	DEY	A: 24	X: 4	Y: ed	SP: fd
f1e1	f1dd	BNE	A: 24	X: 4	Y: ec	SP: fd
f1dd	2007	STA	A: 24	X: 4	Y: ec	SP: fd
f1e0	0	DEY	A: 24	X: 4	Y: ec	SP: fd
f1e1	f1dd	BNE	A: 24	X: 4	Y: eb	SP: fd
f1dd	2007	STA	A: 24	X: 4	Y: eb	SP: fd
f1e0	0	DEY	A: 24	X: 4	Y: eb	SP: fd
f1e1	f1dd	BNE	A: 24	X: 4	Y: ea	SP: fd
f1dd	2007	STA	A: 24	X: 4	Y: ea	SP: fd
f1e0	0	DEY	A: 24	X: 4	Y: ea	SP: fd
f1e1	f1dd	BNE	A: 24	X: 4	Y: e9	SP: fd
f1dd	2007	STA	A: 24	X: 4	Y: e9	SP: fd
f1e0	0	DEY	A: 24	X: 4	Y: e9	SP: fd
f1e1	f1dd	BNE	A: 24	X: 4	Y: e8	SP: fd
f1dd	2007	STA	A: 24	X: 4	Y: e8	SP: fd
f1e0	0	DEY	A: 24	X: 4	Y: e8	SP: fd
f1e1	f1dd	BNE	A: 24	X: 4	Y: e7	SP: fd
f1dd	2007	STA	A: 24	X: 4	Y: e7	SP: fd
f1e0	0	DEY	A: 24	X: 4	Y: e7	SP: fd
f1e1	f1dd	BNE	A: 24	X: 4	Y: e6	SP: fd
f1dd	2007	STA	A: 24	X: 4	Y: e6	SP: fd
f1e0	0	DEY	A: 24	X: 4	Y: e6	SP: fd
f1e1	f1dd	BNE	A: 24	X: 4	Y: e5	SP: fd
f1dd	2007	STA	A: 24	X: 4	Y: e5	SP: fd
f1e0	0	DEY	A: 24	X: 4	Y: e5	SP: fd
f1e1	f1dd	BNE	A: 24	X: 4	Y: e4	SP: fd
f1dd	2007	STA	A: 24	X: 4	Y: e4	SP: fd
f1e0	0	DEY	A: 24	X: 4	Y: e4	SP: fd
f1e1	f1dd	BNE	A: 24	X: 4	Y: e3	SP: fd
f1dd	2007	STA	A: 24	X: 4	Y: e3	SP: fd
f1e0	0	DEY	A: 24	X: 4	Y: e3	SP: fd
f1e1	f1dd	BNE	A: 24	X: 4	Y: e2	SP: fd
f1dd	2007	STA	A: 24	X: 4	Y: e2	SP: fd
f1e0	0	DEY	A: 24	X: 4	Y: e2	SP: fd
f1e1	f1dd	BNE	A: 24	X: 4	Y: e1	SP: fd
f1dd	2007	STA	A: 24	X: 4	Y: e1	SP: fd
f1e0	0	DEY	A: 24	X: 4	Y: e1	SP: fd
f1e1	f1dd	BNE	A: 24	X: 4	Y: e0	SP: fd
f1dd	2007	STA	A: 24	X: 4	Y: e0	SP: fd
f1e0	0	DEY	A: 24	X: 4	Y: e0	SP: fd
f1e1	f1dd	BNE	A: 24	X: 4	Y: df	SP: fd
f1dd	2007	STA	A: 24	X: 4	Y: df	SP: fd
f1e0	0	DEY	A: 24	X: 4	Y: df	SP: fd
f1e1	f1dd	BNE	A: 24	X: 4	Y: de	SP: fd
f1dd	2007	STA	A: 24	X: 4	Y: de	SP: fd
f1e0	0	DEY	A: 24	X: 4	Y: de	SP: fd
f1e1	f1dd	BNE	A: 24	X: 4	Y: dd	SP: fd
f1dd	2007	STA	A: 24	X: 4	Y: dd	SP: fd
f1e0	0	DEY	A: 24	X: 4	Y: dd	SP: fd
f1e1	f1dd	BNE	A: 24	X: 4	Y: dc	SP: fd
f1dd	2007	STA	A: 24	X: 4	Y: dc	SP: fd
f1e0	0	DEY	A: 24	X: 4	Y: dc	SP: fd
f1e1	f1dd	BNE	A: 24	X: 4	Y: db	SP: fd
f1dd	2007	STA	A: 24	X: 4	Y: db	SP: fd
f1e0	0	DEY	A: 24	X: 4	Y: db	SP: fd
f1e1	f1dd	BNE	A: 24	X: 4	Y: da	SP: fd
f1dd	2007	STA	A: 24	X: 4	Y: da	SP: fd
f1e0	0	DEY	A: 24	X: 4	Y: da	SP: fd
f1e1	f1dd	BNE	A: 24	X: 4	Y: d9	SP: fd
f1dd	2007	STA	A: 24	X: 4	Y: d9	SP: fd
f1e0	0	DEY	A: 24	X: 4	Y: d9	SP: fd
f1e1	f1dd	BNE	A: 24	X: 4	Y: d8	SP: fd
f1dd	2007	STA	A: 24	X: 4	Y: d8	SP: fd
f1e0	0	DEY	A: 24	X: 4	Y: d8	SP: fd
f1e1	f1dd	BNE	A: 24	X: 4	Y: d7	SP: fd
f1dd	2007	STA	A: 24	X: 4	Y: d7	SP: fd
f1e0	0	DEY	A: 24	X: 4	Y: d7	SP: fd
f1e1	f1dd	BNE	A: 24	X: 4	Y: d6	SP: fd
f1dd	2007	STA	A: 24	X: 4	Y: d6	SP: fd
f1e0	0	DEY	A: 24	X: 4	Y: d6	SP: fd
f1e1	f1dd	BNE	A: 24	X: 4	Y: d5	SP: fd
f1dd	2007	STA	A: 24	X: 4	Y: d5	SP: fd
f1e0	0	DEY	A: 24	X: 4	Y: d5	SP: fd
f1e1	f1dd	BNE	A: 24	X: 4	Y: d4	SP: fd
f1dd	2007	STA	A: 24	X: 4	Y: d4	SP: fd
f1e0	0	DEY	A: 24	X: 4	Y: d4	SP: fd
f1e1	f1dd	BNE	A: 24	X: 4	Y: d3	SP: fd
f1dd	2007	STA	A: 24	X: 4	Y: d3	SP: fd
f1e0	0	DEY	A: 24	X: 4	Y: d3	SP: fd
f1e1	f1dd	BNE	A: 24	X: 4	Y: d2	SP: fd
f1dd	2007	STA	A: 24	X: 4	Y: d2	SP: fd
f1e0	0	DEY	A: 24	X: 4	Y: d2	SP: fd
f1e1	f1dd	BNE	A: 24	X: 4	Y: d1	SP: fd
f1dd	2007	STA	A: 24	X: 4	Y: d1	SP: fd
f1e0	0	DEY	A: 24	X: 4	Y: d1	SP: fd
f1e1	f1dd	BNE	A: 24	X: 4	Y: d0	SP: fd
f1dd	2007	STA	A: 24	X: 4	Y: d0	SP: fd
f1e0	0	DEY	A: 24	X: 4	Y: d0	SP: fd
f1e1	f1dd	BNE	A: 24	X: 4	Y: cf	SP: fd
f1dd	2007	STA	A: 24	X: 4	Y: cf	SP: fd
f1e0	0	DEY	A: 24	X: 4	Y: cf	SP: fd
f1e1	f1dd	BNE	A: 24	X: 4	Y: ce	SP: fd
f1dd	2007	STA	A: 24	X: 4	Y: ce	SP: fd
f1e0	0	DEY	A: 24	X: 4	Y: ce	SP: fd
f1e1	f1dd	BNE	A: 24	X: 4	Y: cd	SP: fd
f1dd	2007	STA	A: 24	X: 4	Y: cd	SP: fd
f1e0	0	DEY	A: 24	X: 4	Y: cd	SP: fd
f1e1	f1dd	BNE	A: 24	X: 4	Y: cc	SP: fd
f1dd	2007	STA	A: 24	X: 4	Y: cc	SP: fd
f1e0	0	DEY	A: 24	X: 4	Y: cc	SP: fd
f1e1	f1dd	BNE	A: 24	X: 4	Y: cb	SP: fd
f1dd	2007	STA	A: 24	X: 4	Y: cb	SP: fd
f1e0	0	DEY	A: 24	X: 4	Y: cb	SP: fd
f1e1	f1dd	BNE	A: 24	X: 4	Y: ca	SP: fd
f1dd	2007	STA	A: 24	X: 4	Y: ca	SP: fd
f1e0	0	DEY	A: 24	X: 4	Y: ca	SP: fd
f1e1	f1dd	BNE	A: 24	X: 4	Y: c9	SP: fd
f1dd	2007	STA	A: 24	X: 4	Y: c9	SP: fd
f1e0	0	DEY	A: 24	X: 4	Y: c9	SP: fd
f1e1	f1dd	BNE	A: 24	X: 4	Y: c8	SP: fd
f1dd	2007	STA	A: 24	X: 4	Y: c8	SP: fd
f1e0	0	DEY	A: 24	X: 4	Y: c8	SP: fd
f1e1	f1dd	BNE	A: 24	X: 4	Y: c7	SP: fd
f1dd	2007	STA	A: 24	X: 4	Y: c7	SP: fd
f1e0	0	DEY	A: 24	X: 4	Y: c7	SP: fd
f1e1	f1dd	BNE	A: 24	X: 4	Y: c6	SP: fd
f1dd	2007	STA	A: 24	X: 4	Y: c6	SP: fd
f1e0	0	DEY	A: 24	X: 4	Y: c6	SP: fd
f1e1	f1dd	BNE	A: 24	X: 4	Y: c5	SP: fd
f1dd	2007	STA	A: 24	X: 4	Y: c5	SP: fd
f1e0	0	DEY	A: 24	X: 4	Y: c5	SP: fd
f1e1	f1dd	BNE	A: 24	X: 4	Y: c4	SP: fd
f1dd	2007	STA	A: 24	X: 4	Y: c4	SP: fd
f1e0	0	DEY	A: 24	X: 4	Y: c4	SP: fd
f1e1	f1dd	BNE	A: 24	X: 4	Y: c3	SP: fd
f1dd	2007	STA	A: 24	X: 4	Y: c3	SP: fd
f1e0	0	DEY	A: 24	X: 4	Y: c3	SP: fd
f1e1	f1dd	BNE	A: 24	X: 4	Y: c2	SP: fd
f1dd	2007	STA	A: 24	X: 4	Y: c2	SP: fd
f1e0	0	DEY	A: 24	X: 4	Y: c2	SP: fd
f1e1	f1dd	BNE	A: 24	X: 4	Y: c1	SP: fd
f1dd	2007	STA	A: 24	X: 4	Y: c1	SP: fd
f1e0	0	DEY	A: 24	X: 4	Y: c1	SP: fd
f1e1	f1dd	BNE	A: 24	X: 4	Y: c0	SP: fd
f1dd	2007	STA	A: 24	X: 4	Y: c0	SP: fd
f1e0	0	DEY	A: 24	X: 4	Y: c0	SP: fd
f1e1	f1dd	BNE	A: 24	X: 4	Y: bf	SP: fd
f1dd	2007	STA	A: 24	X: 4	Y: bf	SP: fd
f1e0	0	DEY	A: 24	X: 4	Y: bf	SP: fd
f1e1	f1dd	BNE	A: 24	X: 4	Y: be	SP: fd
f1dd	2007	STA	A: 24	X: 4	Y: be	SP: fd
f1e0	0	DEY	A: 24	X: 4	Y: be	SP: fd
f1e1	f1dd	BNE	A: 24	X: 4	Y: bd	SP: fd
f1dd	2007	STA	A: 24	X: 4	Y: bd	SP: fd
f1e0	0	DEY	A: 24	X: 4	Y: bd	SP: fd
f1e1	f1dd	BNE	A: 24	X: 4	Y: bc	SP: fd
f1dd	2007	STA	A: 24	X: 4	Y: bc	SP: fd
f1e0	0	DEY	A: 24	X: 4	Y: bc	SP: fd
f1e1	f1dd	BNE	A: 24	X: 4	Y: bb	SP: fd
f1dd	2007	STA	A: 24	X: 4	Y: bb	SP: fd
f1e0	0	DEY	A: 24	X: 4	Y: bb	SP: fd
f1e1	f1dd	BNE	A: 24	X: 4	Y: ba	SP: fd
f1dd	2007	STA	A: 24	X: 4	Y: ba	SP: fd
f1e0	0	DEY	A: 24	X: 4	Y: ba	SP: fd
f1e1	f1dd	BNE	A: 24	X: 4	Y: b9	SP: fd
f1dd	2007	STA	A: 24	X: 4	Y: b9	SP: fd
f1e0	0	DEY	A: 24	X: 4	Y: b9	SP: fd
f1e1	f1dd	BNE	A: 24	X: 4	Y: b8	SP: fd
f1dd	2007	STA	A: 24	X: 4	Y: b8	SP: fd
f1e0	0	DEY	A: 24	X: 4	Y: b8	SP: fd
f1e1	f1dd	BNE	A: 24	X: 4	Y: b7	SP: fd
f1dd	2007	STA	A: 24	X: 4	Y: b7	SP: fd
f1e0	0	DEY	A: 24	X: 4	Y: b7	SP: fd
f1e1	f1dd	BNE	A: 24	X: 4	Y: b6	SP: fd
f1dd	2007	STA	A: 24	X: 4	Y: b6	SP: fd
f1e0	0	DEY	A: 24	X: 4	Y: b6	SP: fd
f1e1	f1dd	BNE	A: 24	X: 4	Y: b5	SP: fd
f1dd	2007	STA	A: 24	X: 4	Y: b5	SP: fd
f1e0	0	DEY	A: 24	X: 4	Y: b5	SP: fd
f1e1	f1dd	BNE	A: 24	X: 4	Y: b4	SP: fd
f1dd	2007	STA	A: 24	X: 4	Y: b4	SP: fd
f1e0	0	DEY	A: 24	X: 4	Y: b4	SP: fd
f1e1	f1dd	BNE	A: 24	X: 4	Y: b3	SP: fd
f1dd	2007	STA	A: 24	X: 4	Y: b3	SP: fd
f1e0	0	DEY	A: 24	X: 4	Y: b3	SP: fd
f1e1	f1dd	BNE	A: 24	X: 4	Y: b2	SP: fd
f1dd	2007	STA	A: 24	X: 4	Y: b2	SP: fd
f1e0	0	DEY	A: 24	X: 4	Y: b2	SP: fd
f1e1	f1dd	BNE	A: 24	X: 4	Y: b1	SP: fd
f1dd	2007	STA	A: 24	X: 4	Y: b1	SP: fd
f1e0	0	DEY	A: 24	X: 4	Y: b1	SP: fd
f1e1	f1dd	BNE	A: 24	X: 4	Y: b0	SP: fd
f1dd	2007	STA	A: 24	X: 4	Y: b0	SP: fd
f1e0	0	DEY	A: 24	X: 4	Y: b0	SP: fd
f1e1	f1dd	BNE	A: 24	X: 4	Y: af	SP: fd
f1dd	2007	STA	A: 24	X: 4	Y: af	SP: fd
f1e0	0	DEY	A: 24	X: 4	Y: af	SP: fd
f1e1	f1dd	BNE	A: 24	X: 4	Y: ae	SP: fd
f1dd	2007	STA	A: 24	X: 4	Y: ae	SP: fd
f1e0	0	DEY	A: 24	X: 4	Y: ae	SP: fd
f1e1	f1dd	BNE	A: 24	X: 4	Y: ad	SP: fd
f1dd	2007	STA	A: 24	X: 4	Y: ad	SP: fd
f1e0	0	DEY	A: 24	X: 4	Y: ad	SP: fd
f1e1	f1dd	BNE	A: 24	X: 4	Y: ac	SP: fd
f1dd	2007	STA	A: 24	X: 4	Y: ac	SP: fd
f1e0	0	DEY	A: 24	X: 4	Y: ac	SP: fd
f1e1	f1dd	BNE	A: 24	X: 4	Y: ab	SP: fd
f1dd	2007	STA	A: 24	X: 4	Y: ab	SP: fd
f1e0	0	DEY	A: 24	X: 4	Y: ab	SP: fd
f1e1	f1dd	BNE	A: 24	X: 4	Y: aa	SP: fd
f1dd	2007	STA	A: 24	X: 4	Y: aa	SP: fd
f1e0	0	DEY	A: 24	X: 4	Y: aa	SP: fd
f1e1	f1dd	BNE	A: 24	X: 4	Y: a9	SP: fd
f1dd	2007	STA	A: 24	X: 4	Y: a9	SP: fd
f1e0	0	DEY	A: 24	X: 4	Y: a9	SP: fd
f1e1	f1dd	BNE	A: 24	X: 4	Y: a8	SP: fd
f1dd	2007	STA	A: 24	X: 4	Y: a8	SP: fd
f1e0	0	DEY	A: 24	X: 4	Y: a8	SP: fd
f1e1	f1dd	BNE	A: 24	X: 4	Y: a7	SP: fd
f1dd	2007	STA	A: 24	X: 4	Y: a7	SP: fd
f1e0	0	DEY	A: 24	X: 4	Y: a7	SP: fd
f1e1	f1dd	BNE	A: 24	X: 4	Y: a6	SP: fd
f1dd	2007	STA	A: 24	X: 4	Y: a6	SP: fd
f1e0	0	DEY	A: 24	X: 4	Y: a6	SP: fd
f1e1	f1dd	BNE	A: 24	X: 4	Y: a5	SP: fd
f1dd	2007	STA	A: 24	X: 4	Y: a5	SP: fd
f1e0	0	DEY	A: 24	X: 4	Y: a5	SP: fd
f1e1	f1dd	BNE	A: 24	X: 4	Y: a4	SP: fd
f1dd	2007	STA	A: 24	X: 4	Y: a4	SP: fd
f1e0	0	DEY	A: 24	X: 4	Y: a4	SP: fd
f1e1	f1dd	BNE	A: 24	X: 4	Y: a3	SP: fd
f1dd	2007	STA	A: 24	X: 4	Y: a3	SP: fd
f1e0	0	DEY	A: 24	X: 4	Y: a3	SP: fd
f1e1	f1dd	BNE	A: 24	X: 4	Y: a2	SP: fd
f1dd	2007	STA	A: 24	X: 4	Y: a2	SP: fd
f1e0	0	DEY	A: 24	X: 4	Y: a2	SP: fd
f1e1	f1dd	BNE	A: 24	X: 4	Y: a1	SP: fd
f1dd	2007	STA	A: 24	X: 4	Y: a1	SP: fd
f1e0	0	DEY	A: 24	X: 4	Y: a1	SP: fd
f1e1	f1dd	BNE	A: 24	X: 4	Y: a0	SP: fd
f1dd	2007	STA	A: 24	X: 4	Y: a0	SP: fd
f1e0	0	DEY	A: 24	X: 4	Y: a0	SP: fd
f1e1	f1dd	BNE	A: 24	X: 4	Y: 9f	SP: fd
f1dd	2007	STA	A: 24	X: 4	Y: 9f	SP: fd
f1e0	0	DEY	A: 24	X: 4	Y: 9f	SP: fd
f1e1	f1dd	BNE	A: 24	X: 4	Y: 9e	SP: fd
f1dd	2007	STA	A: 24	X: 4	Y: 9e	SP: fd
f1e0	0	DEY	A: 24	X: 4	Y: 9e	SP: fd
f1e1	f1dd	BNE	A: 24	X: 4	Y: 9d	SP: fd
f1dd	2007	STA	A: 24	X: 4	Y: 9d	SP: fd
f1e0	0	DEY	A: 24	X: 4	Y: 9d	SP: fd
f1e1	f1dd	BNE	A: 24	X: 4	Y: 9c	SP: fd
f1dd	2007	STA	A: 24	X: 4	Y: 9c	SP: fd
f1e0	0	DEY	A: 24	X: 4	Y: 9c	SP: fd
f1e1	f1dd	BNE	A: 24	X: 4	Y: 9b	SP: fd
f1dd	2007	STA	A: 24	X: 4	Y: 9b	SP: fd
f1e0	0	DEY	A: 24	X: 4	Y: 9b	SP: fd
f1e1	f1dd	BNE	A: 24	X: 4	Y: 9a	SP: fd
f1dd	2007	STA	A: 24	X: 4	Y: 9a	SP: fd
f1e0	0	DEY	A: 24	X: 4	Y: 9a	SP: fd
f1e1	f1dd	BNE	A: 24	X: 4	Y: 99	SP: fd
f1dd	2007	STA	A: 24	X: 4	Y: 99	SP: fd
f1e0	0	DEY	A: 24	X: 4	Y: 99	SP: fd
f1e1	f1dd	BNE	A: 24	X: 4	Y: 98	SP: fd
f1dd	2007	STA	A: 24	X: 4	Y: 98	SP: fd
f1e0	0	DEY	A: 24	X: 4	Y: 98	SP: fd
f1e1	f1dd	BNE	A: 24	X: 4	Y: 97	SP: fd
f1dd	2007	STA	A: 24	X: 4	Y: 97	SP: fd
f1e0	0	DEY	A: 24	X: 4	Y: 97	SP: fd
f1e1	f1dd	BNE	A: 24	X: 4	Y: 96	SP: fd
f1dd	2007	STA	A: 24	X: 4	Y: 96	SP: fd
f1e0	0	DEY	A: 24	X: 4	Y: 96	SP: fd
f1e1	f1dd	BNE	A: 24	X: 4	Y: 95	SP: fd
f1dd	2007	STA	A: 24	X: 4	Y: 95	SP: fd
f1e0	0	DEY	A: 24	X: 4	Y: 95	SP: fd
f1e1	f1dd	BNE	A: 24	X: 4	Y: 94	SP: fd
f1dd	2007	STA	A: 24	X: 4	Y: 94	SP: fd
f1e0	0	DEY	A: 24	X: 4	Y: 94	SP: fd
f1e1	f1dd	BNE	A: 24	X: 4	Y: 93	SP: fd
f1dd	2007	STA	A: 24	X: 4	Y: 93	SP: fd
f1e0	0	DEY	A: 24	X: 4	Y: 93	SP: fd
f1e1	f1dd	BNE	A: 24	X: 4	Y: 92	SP: fd
f1dd	2007	STA	A: 24	X: 4	Y: 92	SP: fd
f1e0	0	DEY	A: 24	X: 4	Y: 92	SP: fd
f1e1	f1dd	BNE	A: 24	X: 4	Y: 91	SP: fd
f1dd	2007	STA	A: 24	X: 4	Y: 91	SP: fd
f1e0	0	DEY	A: 24	X: 4	Y: 91	SP: fd
f1e1	f1dd	BNE	A: 24	X: 4	Y: 90	SP: fd
f1dd	2007	STA	A: 24	X: 4	Y: 90	SP: fd
f1e0	0	DEY	A: 24	X: 4	Y: 90	SP: fd
f1e1	f1dd	BNE	A: 24	X: 4	Y: 8f	SP: fd
f1dd	2007	STA	A: 24	X: 4	Y: 8f	SP: fd
f1e0	0	DEY	A: 24	X: 4	Y: 8f	SP: fd
f1e1	f1dd	BNE	A: 24	X: 4	Y: 8e	SP: fd
f1dd	2007	STA	A: 24	X: 4	Y: 8e	SP: fd
f1e0	0	DEY	A: 24	X: 4	Y: 8e	SP: fd
f1e1	f1dd	BNE	A: 24	X: 4	Y: 8d	SP: fd
f1dd	2007	STA	A: 24	X: 4	Y: 8d	SP: fd
f1e0	0	DEY	A: 24	X: 4	Y: 8d	SP: fd
f1e1	f1dd	BNE	A: 24	X: 4	Y: 8c	SP: fd
f1dd	2007	STA	A: 24	X: 4	Y: 8c	SP: fd
f1e0	0	DEY	A: 24	X: 4	Y: 8c	SP: fd
f1e1	f1dd	BNE	A: 24	X: 4	Y: 8b	SP: fd
f1dd	2007	STA	A: 24	X: 4	Y: 8b	SP: fd
f1e0	0	DEY	A: 24	X: 4	Y: 8b	SP: fd
f1e1	f1dd	BNE	A: 24	X: 4	Y: 8a	SP: fd
f1dd	2007	STA	A: 24	X: 4	Y: 8a	SP: fd
f1e0	0	DEY	A: 24	X: 4	Y: 8a	SP: fd
f1e1	f1dd	BNE	A: 24	X: 4	Y: 89	SP: fd
f1dd	2007	STA	A: 24	X: 4	Y: 89	SP: fd
f1e0	0	DEY	A: 24	X: 4	Y: 89	SP: fd
f1e1	f1dd	BNE	A: 24	X: 4	Y: 88	SP: fd
f1dd	2007	STA	A: 24	X: 4	Y: 88	SP: fd
f1e0	0	DEY	A: 24	X: 4	Y: 88	SP: fd
f1e1	f1dd	BNE	A: 24	X: 4	Y: 87	SP: fd
f1dd	2007	STA	A: 24	X: 4	Y: 87	SP: fd
f1e0	0	DEY	A: 24	X: 4	Y: 87	SP: fd
f1e1	f1dd	BNE	A: 24	X: 4	Y: 86	SP: fd
f1dd	2007	STA	A: 24	X: 4	Y: 86	SP: fd
f1e0	0	DEY	A: 24	X: 4	Y: 86	SP: fd
f1e1	f1dd	BNE	A: 24	X: 4	Y: 85	SP: fd
f1dd	2007	STA	A: 24	X: 4	Y: 85	SP: fd
f1e0	0	DEY	A: 24	X: 4	Y: 85	SP: fd
f1e1	f1dd	BNE	A: 24	X: 4	Y: 84	SP: fd
f1dd	2007	STA	A: 24	X: 4	Y: 84	SP: fd
f1e0	0	DEY	A: 24	X: 4	Y: 84	SP: fd
f1e1	f1dd	BNE	A: 24	X: 4	Y: 83	SP: fd
f1dd	2007	STA	A: 24	X: 4	Y: 83	SP: fd
f1e0	0	DEY	A: 24	X: 4	Y: 83	SP: fd
f1e1	f1dd	BNE	A: 24	X: 4	Y: 82	SP: fd
f1dd	2007	STA	A: 24	X: 4	Y: 82	SP: fd
f1e0	0	DEY	A: 24	X: 4	Y: 82	SP: fd
f1e1	f1dd	BNE	A: 24	X: 4	Y: 81	SP: fd
f1dd	2007	STA	A: 24	X: 4	Y: 81	SP: fd
f1e0	0	DEY	A: 24	X: 4	Y: 81	SP: fd
f1e1	f1dd	BNE	A: 24	X: 4	Y: 80	SP: fd
f1dd	2007	STA	A: 24	X: 4	Y: 80	SP: fd
f1e0	0	DEY	A: 24	X: 4	Y: 80	SP: fd
f1e1	f1dd	BNE	A: 24	X: 4	Y: 7f	SP: fd
f1dd	2007	STA	A: 24	X: 4	Y: 7f	SP: fd
f1e0	0	DEY	A: 24	X: 4	Y: 7f	SP: fd
f1e1	f1dd	BNE	A: 24	X: 4	Y: 7e	SP: fd
f1dd	2007	STA	A: 24	X: 4	Y: 7e	SP: fd
f1e0	0	DEY	A: 24	X: 4	Y: 7e	SP: fd
f1e1	f1dd	BNE	A: 24	X: 4	Y: 7d	SP: fd
f1dd	2007	STA	A: 24	X: 4	Y: 7d	SP: fd
f1e0	0	DEY	A: 24	X: 4	Y: 7d	SP: fd
f1e1	f1dd	BNE	A: 24	X: 4	Y: 7c	SP: fd
f1dd	2007	STA	A: 24	X: 4	Y: 7c	SP: fd
f1e0	0	DEY	A: 24	X: 4	Y: 7c	SP: fd
f1e1	f1dd	BNE	A: 24	X: 4	Y: 7b	SP: fd
f1dd	2007	STA	A: 24	X: 4	Y: 7b	SP: fd
f1e0	0	DEY	A: 24	X: 4	Y: 7b	SP: fd
f1e1	f1dd	BNE	A: 24	X: 4	Y: 7a	SP: fd
f1dd	2007	STA	A: 24	X: 4	Y: 7a	SP: fd
f1e0	0	DEY	A: 24	X: 4	Y: 7a	SP: fd
f1e1	f1dd	BNE	A: 24	X: 4	Y: 79	SP: fd
f1dd	2007	STA	A: 24	X: 4	Y: 79	SP: fd
f1e0	0	DEY	A: 24	X: 4	Y: 79	SP: fd
f1e1	f1dd	BNE	A: 24	X: 4	Y: 78	SP: fd
f1dd	2007	STA	A: 24	X: 4	Y: 78	SP: fd
f1e0	0	DEY	A: 24	X: 4	Y: 78	SP: fd
f1e1	f1dd	BNE	A: 24	X: 4	Y: 77	SP: fd
f1dd	2007	STA	A: 24	X: 4	Y: 77	SP: fd
f1e0	0	DEY	A: 24	X: 4	Y: 77	SP: fd
f1e1	f1dd	BNE	A: 24	X: 4	Y: 76	SP: fd
f1dd	2007	STA	A: 24	X: 4	Y: 76	SP: fd
f1e0	0	DEY	A: 24	X: 4	Y: 76	SP: fd
f1e1	f1dd	BNE	A: 24	X: 4	Y: 75	SP: fd
f1dd	2007	STA	A: 24	X: 4	Y: 75	SP: fd
f1e0	0	DEY	A: 24	X: 4	Y: 75	SP: fd
f1e1	f1dd	BNE	A: 24	X: 4	Y: 74	SP: fd
f1dd	2007	STA	A: 24	X: 4	Y: 74	SP: fd
f1e0	0	DEY	A: 24	X: 4	Y: 74	SP: fd
f1e1	f1dd	BNE	A: 24	X: 4	Y: 73	SP: fd
f1dd	2007	STA	A: 24	X: 4	Y: 73	SP: fd
f1e0	0	DEY	A: 24	X: 4	Y: 73	SP: fd
f1e1	f1dd	BNE	A: 24	X: 4	Y: 72	SP: fd
f1dd	2007	STA	A: 24	X: 4	Y: 72	SP: fd
f1e0	0	DEY	A: 24	X: 4	Y: 72	SP: fd
f1e1	f1dd	BNE	A: 24	X: 4	Y: 71	SP: fd
f1dd	2007	STA	A: 24	X: 4	Y: 71	SP: fd
f1e0	0	DEY	A: 24	X: 4	Y: 71	SP: fd
f1e1	f1dd	BNE	A: 24	X: 4	Y: 70	SP: fd
f1dd	2007	STA	A: 24	X: 4	Y: 70	SP: fd
f1e0	0	DEY	A: 24	X: 4	Y: 70	SP: fd
f1e1	f1dd	BNE	A: 24	X: 4	Y: 6f	SP: fd
f1dd	2007	STA	A: 24	X: 4	Y: 6f	SP: fd
f1e0	0	DEY	A: 24	X: 4	Y: 6f	SP: fd
f1e1	f1dd	BNE	A: 24	X: 4	Y: 6e	SP: fd
f1dd	2007	STA	A: 24	X: 4	Y: 6e	SP: fd
f1e0	0	DEY	A: 24	X: 4	Y: 6e	SP: fd
f1e1	f1dd	BNE	A: 24	X: 4	Y: 6d	SP: fd
f1dd	2007	STA	A: 24	X: 4	Y: 6d	SP: fd
f1e0	0	DEY	A: 24	X: 4	Y: 6d	SP: fd
f1e1	f1dd	BNE	A: 24	X: 4	Y: 6c	SP: fd
f1dd	2007	STA	A: 24	X: 4	Y: 6c	SP: fd
f1e0	0	DEY	A: 24	X: 4	Y: 6c	SP: fd
f1e1	f1dd	BNE	A: 24	X: 4	Y: 6b	SP: fd
f1dd	2007	STA	A: 24	X: 4	Y: 6b	SP: fd
f1e0	0	DEY	A: 24	X: 4	Y: 6b	SP: fd
f1e1	f1dd	BNE	A: 24	X: 4	Y: 6a	SP: fd
f1dd	2007	STA	A: 24	X: 4	Y: 6a	SP: fd
f1e0	0	DEY	A: 24	X: 4	Y: 6a	SP: fd
f1e1	f1dd	BNE	A: 24	X: 4	Y: 69	SP: fd
f1dd	2007	STA	A: 24	X: 4	Y: 69	SP: fd
f1e0	0	DEY	A: 24	X: 4	Y: 69	SP: fd
f1e1	f1dd	BNE	A: 24	X: 4	Y: 68	SP: fd
f1dd	2007	STA	A: 24	X: 4	Y: 68	SP: fd
f1e0	0	DEY	A: 24	X: 4	Y: 68	SP: fd
f1e1	f1dd	BNE	A: 24	X: 4	Y: 67	SP: fd
f1dd	2007	STA	A: 24	X: 4	Y: 67	SP: fd
f1e0	0	DEY	A: 24	X: 4	Y: 67	SP: fd
f1e1	f1dd	BNE	A: 24	X: 4	Y: 66	SP: fd
f1dd	2007	STA	A: 24	X: 4	Y: 66	SP: fd
f1e0	0	DEY	A: 24	X: 4	Y: 66	SP: fd
f1e1	f1dd	BNE	A: 24	X: 4	Y: 65	SP: fd
f1dd	2007	STA	A: 24	X: 4	Y: 65	SP: fd
f1e0	0	DEY	A: 24	X: 4	Y: 65	SP: fd
f1e1	f1dd	BNE	A: 24	X: 4	Y: 64	SP: fd
f1dd	2007	STA	A: 24	X: 4	Y: 64	SP: fd
f1e0	0	DEY	A: 24	X: 4	Y: 64	SP: fd
f1e1	f1dd	BNE	A: 24	X: 4	Y: 63	SP: fd
f1dd	2007	STA	A: 24	X: 4	Y: 63	SP: fd
f1e0	0	DEY	A: 24	X: 4	Y: 63	SP: fd
f1e1	f1dd	BNE	A: 24	X: 4	Y: 62	SP: fd
f1dd	2007	STA	A: 24	X: 4	Y: 62	SP: fd
f1e0	0	DEY	A: 24	X: 4	Y: 62	SP: fd
f1e1	f1dd	BNE	A: 24	X: 4	Y: 61	SP: fd
f1dd	2007	STA	A: 24	X: 4	Y: 61	SP: fd
f1e0	0	DEY	A: 24	X: 4	Y: 61	SP: fd
f1e1	f1dd	BNE	A: 24	X: 4	Y: 60	SP: fd
f1dd	2007	STA	A: 24	X: 4	Y: 60	SP: fd
f1e0	0	DEY	A: 24	X: 4	Y: 60	SP: fd
f1e1	f1dd	BNE	A: 24	X: 4	Y: 5f	SP: fd
f1dd	2007	STA	A: 24	X: 4	Y: 5f	SP: fd
f1e0	0	DEY	A: 24	X: 4	Y: 5f	SP: fd
f1e1	f1dd	BNE	A: 24	X: 4	Y: 5e	SP: fd
f1dd	2007	STA	A: 24	X: 4	Y: 5e	SP: fd
f1e0	0	DEY	A: 24	X: 4	Y: 5e	SP: fd
f1e1	f1dd	BNE	A: 24	X: 4	Y: 5d	SP: fd
f1dd	2007	STA	A: 24	X: 4	Y: 5d	SP: fd
f1e0	0	DEY	A: 24	X: 4	Y: 5d	SP: fd
f1e1	f1dd	BNE	A: 24	X: 4	Y: 5c	SP: fd
f1dd	2007	STA	A: 24	X: 4	Y: 5c	SP: fd
f1e0	0	DEY	A: 24	X: 4	Y: 5c	SP: fd
f1e1	f1dd	BNE	A: 24	X: 4	Y: 5b	SP: fd
f1dd	2007	STA	A: 24	X: 4	Y: 5b	SP: fd
f1e0	0	DEY	A: 24	X: 4	Y: 5b	SP: fd
f1e1	f1dd	BNE	A: 24	X: 4	Y: 5a	SP: fd
f1dd	2007	STA	A: 24	X: 4	Y: 5a	SP: fd
f1e0	0	DEY	A: 24	X: 4	Y: 5a	SP: fd
f1e1	f1dd	BNE	A: 24	X: 4	Y: 59	SP: fd
f1dd	2007	STA	A: 24	X: 4	Y: 59	SP: fd
f1e0	0	DEY	A: 24	X: 4	Y: 59	SP: fd
f1e1	f1dd	BNE	A: 24	X: 4	Y: 58	SP: fd
f1dd	2007	STA	A: 24	X: 4	Y: 58	SP: fd
f1e0	0	DEY	A: 24	X: 4	Y: 58	SP: fd
f1e1	f1dd	BNE	A: 24	X: 4	Y: 57	SP: fd
f1dd	2007	STA	A: 24	X: 4	Y: 57	SP: fd
f1e0	0	DEY	A: 24	X: 4	Y: 57	SP: fd
f1e1	f1dd	BNE	A: 24	X: 4	Y: 56	SP: fd
f1dd	2007	STA	A: 24	X: 4	Y: 56	SP: fd
f1e0	0	DEY	A: 24	X: 4	Y: 56	SP: fd
f1e1	f1dd	BNE	A: 24	X: 4	Y: 55	SP: fd
f1dd	2007	STA	A: 24	X: 4	Y: 55	SP: fd
f1e0	0	DEY	A: 24	X: 4	Y: 55	SP: fd
f1e1	f1dd	BNE	A: 24	X: 4	Y: 54	SP: fd
f1dd	2007	STA	A: 24	X: 4	Y: 54	SP: fd
f1e0	0	DEY	A: 24	X: 4	Y: 54	SP: fd
f1e1	f1dd	BNE	A: 24	X: 4	Y: 53	SP: fd
f1dd	2007	STA	A: 24	X: 4	Y: 53	SP: fd
f1e0	0	DEY	A: 24	X: 4	Y: 53	SP: fd
f1e1	f1dd	BNE	A: 24	X: 4	Y: 52	SP: fd
f1dd	2007	STA	A: 24	X: 4	Y: 52	SP: fd
f1e0	0	DEY	A: 24	X: 4	Y: 52	SP: fd
f1e1	f1dd	BNE	A: 24	X: 4	Y: 51	SP: fd
f1dd	2007	STA	A: 24	X: 4	Y: 51	SP: fd
f1e0	0	DEY	A: 24	X: 4	Y: 51	SP: fd
f1e1	f1dd	BNE	A: 24	X: 4	Y: 50	SP: fd
f1dd	2007	STA	A: 24	X: 4	Y: 50	SP: fd
f1e0	0	DEY	A: 24	X: 4	Y: 50	SP: fd
f1e1	f1dd	BNE	A: 24	X: 4	Y: 4f	SP: fd
f1dd	2007	STA	A: 24	X: 4	Y: 4f	SP: fd
f1e0	0	DEY	A: 24	X: 4	Y: 4f	SP: fd
f1e1	f1dd	BNE	A: 24	X: 4	Y: 4e	SP: fd
f1dd	2007	STA	A: 24	X: 4	Y: 4e	SP: fd
f1e0	0	DEY	A: 24	X: 4	Y: 4e	SP: fd
f1e1	f1dd	BNE	A: 24	X: 4	Y: 4d	SP: fd
f1dd	2007	STA	A: 24	X: 4	Y: 4d	SP: fd
f1e0	0	DEY	A: 24	X: 4	Y: 4d	SP: fd
f1e1	f1dd	BNE	A: 24	X: 4	Y: 4c	SP: fd
f1dd	2007	STA	A: 24	X: 4	Y: 4c	SP: fd
f1e0	0	DEY	A: 24	X: 4	Y: 4c	SP: fd
f1e1	f1dd	BNE	A: 24	X: 4	Y: 4b	SP: fd
f1dd	2007	STA	A: 24	X: 4	Y: 4b	SP: fd
f1e0	0	DEY	A: 24	X: 4	Y: 4b	SP: fd
f1e1	f1dd	BNE	A: 24	X: 4	Y: 4a	SP: fd
f1dd	2007	STA	A: 24	X: 4	Y: 4a	SP: fd
f1e0	0	DEY	A: 24	X: 4	Y: 4a	SP: fd
f1e1	f1dd	BNE	A: 24	X: 4	Y: 49	SP: fd
f1dd	2007	STA	A: 24	X: 4	Y: 49	SP: fd
f1e0	0	DEY	A: 24	X: 4	Y: 49	SP: fd
f1e1	f1dd	BNE	A: 24	X: 4	Y: 48	SP: fd
f1dd	2007	STA	A: 24	X: 4	Y: 48	SP: fd
f1e0	0	DEY	A: 24	X: 4	Y: 48	SP: fd
f1e1	f1dd	BNE	A: 24	X: 4	Y: 47	SP: fd
f1dd	2007	STA	A: 24	X: 4	Y: 47	SP: fd
f1e0	0	DEY	A: 24	X: 4	Y: 47	SP: fd
f1e1	f1dd	BNE	A: 24	X: 4	Y: 46	SP: fd
f1dd	2007	STA	A: 24	X: 4	Y: 46	SP: fd
f1e0	0	DEY	A: 24	X: 4	Y: 46	SP: fd
f1e1	f1dd	BNE	A: 24	X: 4	Y: 45	SP: fd
f1dd	2007	STA	A: 24	X: 4	Y: 45	SP: fd
f1e0	0	DEY	A: 24	X: 4	Y: 45	SP: fd
f1e1	f1dd	BNE	A: 24	X: 4	Y: 44	SP: fd
f1dd	2007	STA	A: 24	X: 4	Y: 44	SP: fd
f1e0	0	DEY	A: 24	X: 4	Y: 44	SP: fd
f1e1	f1dd	BNE	A: 24	X: 4	Y: 43	SP: fd
f1dd	2007	STA	A: 24	X: 4	Y: 43	SP: fd
f1e0	0	DEY	A: 24	X: 4	Y: 43	SP: fd
f1e1	f1dd	BNE	A: 24	X: 4	Y: 42	SP: fd
f1dd	2007	STA	A: 24	X: 4	Y: 42	SP: fd
f1e0	0	DEY	A: 24	X: 4	Y: 42	SP: fd
f1e1	f1dd	BNE	A: 24	X: 4	Y: 41	SP: fd
f1dd	2007	STA	A: 24	X: 4	Y: 41	SP: fd
f1e0	0	DEY	A: 24	X: 4	Y: 41	SP: fd
f1e1	f1dd	BNE	A: 24	X: 4	Y: 40	SP: fd
f1dd	2007	STA	A: 24	X: 4	Y: 40	SP: fd
f1e0	0	DEY	A: 24	X: 4	Y: 40	SP: fd
f1e1	f1dd	BNE	A: 24	X: 4	Y: 3f	SP: fd
f1dd	2007	STA	A: 24	X: 4	Y: 3f	SP: fd
f1e0	0	DEY	A: 24	X: 4	Y: 3f	SP: fd
f1e1	f1dd	BNE	A: 24	X: 4	Y: 3e	SP: fd
f1dd	2007	STA	A: 24	X: 4	Y: 3e	SP: fd
f1e0	0	DEY	A: 24	X: 4	Y: 3e	SP: fd
f1e1	f1dd	BNE	A: 24	X: 4	Y: 3d	SP: fd
f1dd	2007	STA	A: 24	X: 4	Y: 3d	SP: fd
f1e0	0	DEY	A: 24	X: 4	Y: 3d	SP: fd
f1e1	f1dd	BNE	A: 24	X: 4	Y: 3c	SP: fd
f1dd	2007	STA	A: 24	X: 4	Y: 3c	SP: fd
f1e0	0	DEY	A: 24	X: 4	Y: 3c	SP: fd
f1e1	f1dd	BNE	A: 24	X: 4	Y: 3b	SP: fd
f1dd	2007	STA	A: 24	X: 4	Y: 3b	SP: fd
f1e0	0	DEY	A: 24	X: 4	Y: 3b	SP: fd
f1e1	f1dd	BNE	A: 24	X: 4	Y: 3a	SP: fd
f1dd	2007	STA	A: 24	X: 4	Y: 3a	SP: fd
f1e0	0	DEY	A: 24	X: 4	Y: 3a	SP: fd
f1e1	f1dd	BNE	A: 24	X: 4	Y: 39	SP: fd
f1dd	2007	STA	A: 24	X: 4	Y: 39	SP: fd
f1e0	0	DEY	A: 24	X: 4	Y: 39	SP: fd
f1e1	f1dd	BNE	A: 24	X: 4	Y: 38	SP: fd
f1dd	2007	STA	A: 24	X: 4	Y: 38	SP: fd
f1e0	0	DEY	A: 24	X: 4	Y: 38	SP: fd
f1e1	f1dd	BNE	A: 24	X: 4	Y: 37	SP: fd
f1dd	2007	STA	A: 24	X: 4	Y: 37	SP: fd
f1e0	0	DEY	A: 24	X: 4	Y: 37	SP: fd
f1e1	f1dd	BNE	A: 24	X: 4	Y: 36	SP: fd
f1dd	2007	STA	A: 24	X: 4	Y: 36	SP: fd
f1e0	0	DEY	A: 24	X: 4	Y: 36	SP: fd
f1e1	f1dd	BNE	A: 24	X: 4	Y: 35	SP: fd
f1dd	2007	STA	A: 24	X: 4	Y: 35	SP: fd
f1e0	0	DEY	A: 24	X: 4	Y: 35	SP: fd
f1e1	f1dd	BNE	A: 24	X: 4	Y: 34	SP: fd
f1dd	2007	STA	A: 24	X: 4	Y: 34	SP: fd
f1e0	0	DEY	A: 24	X: 4	Y: 34	SP: fd
f1e1	f1dd	BNE	A: 24	X: 4	Y: 33	SP: fd
f1dd	2007	STA	A: 24	X: 4	Y: 33	SP: fd
f1e0	0	DEY	A: 24	X: 4	Y: 33	SP: fd
f1e1	f1dd	BNE	A: 24	X: 4	Y: 32	SP: fd
f1dd	2007	STA	A: 24	X: 4	Y: 32	SP: fd
f1e0	0	DEY	A: 24	X: 4	Y: 32	SP: fd
f1e1	f1dd	BNE	A: 24	X: 4	Y: 31	SP: fd
f1dd	2007	STA	A: 24	X: 4	Y: 31	SP: fd
f1e0	0	DEY	A: 24	X: 4	Y: 31	SP: fd
f1e1	f1dd	BNE	A: 24	X: 4	Y: 30	SP: fd
f1dd	2007	STA	A: 24	X: 4	Y: 30	SP: fd
f1e0	0	DEY	A: 24	X: 4	Y: 30	SP: fd
f1e1	f1dd	BNE	A: 24	X: 4	Y: 2f	SP: fd
f1dd	2007	STA	A: 24	X: 4	Y: 2f	SP: fd
f1e0	0	DEY	A: 24	X: 4	Y: 2f	SP: fd
f1e1	f1dd	BNE	A: 24	X: 4	Y: 2e	SP: fd
f1dd	2007	STA	A: 24	X: 4	Y: 2e	SP: fd
f1e0	0	DEY	A: 24	X: 4	Y: 2e	SP: fd
f1e1	f1dd	BNE	A: 24	X: 4	Y: 2d	SP: fd
f1dd	2007	STA	A: 24	X: 4	Y: 2d	SP: fd
f1e0	0	DEY	A: 24	X: 4	Y: 2d	SP: fd
f1e1	f1dd	BNE	A: 24	X: 4	Y: 2c	SP: fd
f1dd	2007	STA	A: 24	X: 4	Y: 2c	SP: fd
f1e0	0	DEY	A: 24	X: 4	Y: 2c	SP: fd
f1e1	f1dd	BNE	A: 24	X: 4	Y: 2b	SP: fd
f1dd	2007	STA	A: 24	X: 4	Y: 2b	SP: fd
f1e0	0	DEY	A: 24	X: 4	Y: 2b	SP: fd
f1e1	f1dd	BNE	A: 24	X: 4	Y: 2a	SP: fd
f1dd	2007	STA	A: 24	X: 4	Y: 2a	SP: fd
f1e0	0	DEY	A: 24	X: 4	Y: 2a	SP: fd
f1e1	f1dd	BNE	A: 24	X: 4	Y: 29	SP: fd
f1dd	2007	STA	A: 24	X: 4	Y: 29	SP: fd
f1e0	0	DEY	A: 24	X: 4	Y: 29	SP: fd
f1e1	f1dd	BNE	A: 24	X: 4	Y: 28	SP: fd
f1dd	2007	STA	A: 24	X: 4	Y: 28	SP: fd
f1e0	0	DEY	A: 24	X: 4	Y: 28	SP: fd
f1e1	f1dd	BNE	A: 24	X: 4	Y: 27	SP: fd
f1dd	2007	STA	A: 24	X: 4	Y: 27	SP: fd
f1e0	0	DEY	A: 24	X: 4	Y: 27	SP: fd
f1e1	f1dd	BNE	A: 24	X: 4	Y: 26	SP: fd
f1dd	2007	STA	A: 24	X: 4	Y: 26	SP: fd
f1e0	0	DEY	A: 24	X: 4	Y: 26	SP: fd
f1e1	f1dd	BNE	A: 24	X: 4	Y: 25	SP: fd
f1dd	2007	STA	A: 24	X: 4	Y: 25	SP: fd
f1e0	0	DEY	A: 24	X: 4	Y: 25	SP: fd
f1e1	f1dd	BNE	A: 24	X: 4	Y: 24	SP: fd
f1dd	2007	STA	A: 24	X: 4	Y: 24	SP: fd
f1e0	0	DEY	A: 24	X: 4	Y: 24	SP: fd
f1e1	f1dd	BNE	A: 24	X: 4	Y: 23	SP: fd
f1dd	2007	STA	A: 24	X: 4	Y: 23	SP: fd
f1e0	0	DEY	A: 24	X: 4	Y: 23	SP: fd
f1e1	f1dd	BNE	A: 24	X: 4	Y: 22	SP: fd
f1dd	2007	STA	A: 24	X: 4	Y: 22	SP: fd
f1e0	0	DEY	A: 24	X: 4	Y: 22	SP: fd
f1e1	f1dd	BNE	A: 24	X: 4	Y: 21	SP: fd
f1dd	2007	STA	A: 24	X: 4	Y: 21	SP: fd
f1e0	0	DEY	A: 24	X: 4	Y: 21	SP: fd
f1e1	f1dd	BNE	A: 24	X: 4	Y: 20	SP: fd
f1dd	2007	STA	A: 24	X: 4	Y: 20	SP: fd
f1e0	0	DEY	A: 24	X: 4	Y: 20	SP: fd
f1e1	f1dd	BNE	A: 24	X: 4	Y: 1f	SP: fd
f1dd	2007	STA	A: 24	X: 4	Y: 1f	SP: fd
f1e0	0	DEY	A: 24	X: 4	Y: 1f	SP: fd
f1e1	f1dd	BNE	A: 24	X: 4	Y: 1e	SP: fd
f1dd	2007	STA	A: 24	X: 4	Y: 1e	SP: fd
f1e0	0	DEY	A: 24	X: 4	Y: 1e	SP: fd
f1e1	f1dd	BNE	A: 24	X: 4	Y: 1d	SP: fd
f1dd	2007	STA	A: 24	X: 4	Y: 1d	SP: fd
f1e0	0	DEY	A: 24	X: 4	Y: 1d	SP: fd
f1e1	f1dd	BNE	A: 24	X: 4	Y: 1c	SP: fd
f1dd	2007	STA	A: 24	X: 4	Y: 1c	SP: fd
f1e0	0	DEY	A: 24	X: 4	Y: 1c	SP: fd
f1e1	f1dd	BNE	A: 24	X: 4	Y: 1b	SP: fd
f1dd	2007	STA	A: 24	X: 4	Y: 1b	SP: fd
f1e0	0	DEY	A: 24	X: 4	Y: 1b	SP: fd
f1e1	f1dd	BNE	A: 24	X: 4	Y: 1a	SP: fd
f1dd	2007	STA	A: 24	X: 4	Y: 1a	SP: fd
f1e0	0	DEY	A: 24	X: 4	Y: 1a	SP: fd
f1e1	f1dd	BNE	A: 24	X: 4	Y: 19	SP: fd
f1dd	2007	STA	A: 24	X: 4	Y: 19	SP: fd
f1e0	0	DEY	A: 24	X: 4	Y: 19	SP: fd
f1e1	f1dd	BNE	A: 24	X: 4	Y: 18	SP: fd
f1dd	2007	STA	A: 24	X: 4	Y: 18	SP: fd
f1e0	0	DEY	A: 24	X: 4	Y: 18	SP: fd
f1e1	f1dd	BNE	A: 24	X: 4	Y: 17	SP: fd
f1dd	2007	STA	A: 24	X: 4	Y: 17	SP: fd
f1e0	0	DEY	A: 24	X: 4	Y: 17	SP: fd
f1e1	f1dd	BNE	A: 24	X: 4	Y: 16	SP: fd
f1dd	2007	STA	A: 24	X: 4	Y: 16	SP: fd
f1e0	0	DEY	A: 24	X: 4	Y: 16	SP: fd
f1e1	f1dd	BNE	A: 24	X: 4	Y: 15	SP: fd
f1dd	2007	STA	A: 24	X: 4	Y: 15	SP: fd
f1e0	0	DEY	A: 24	X: 4	Y: 15	SP: fd
f1e1	f1dd	BNE	A: 24	X: 4	Y: 14	SP: fd
f1dd	2007	STA	A: 24	X: 4	Y: 14	SP: fd
f1e0	0	DEY	A: 24	X: 4	Y: 14	SP: fd
f1e1	f1dd	BNE	A: 24	X: 4	Y: 13	SP: fd
f1dd	2007	STA	A: 24	X: 4	Y: 13	SP: fd
f1e0	0	DEY	A: 24	X: 4	Y: 13	SP: fd
f1e1	f1dd	BNE	A: 24	X: 4	Y: 12	SP: fd
f1dd	2007	STA	A: 24	X: 4	Y: 12	SP: fd
f1e0	0	DEY	A: 24	X: 4	Y: 12	SP: fd
f1e1	f1dd	BNE	A: 24	X: 4	Y: 11	SP: fd
f1dd	2007	STA	A: 24	X: 4	Y: 11	SP: fd
f1e0	0	DEY	A: 24	X: 4	Y: 11	SP: fd
f1e1	f1dd	BNE	A: 24	X: 4	Y: 10	SP: fd
f1dd	2007	STA	A: 24	X: 4	Y: 10	SP: fd
f1e0	0	DEY	A: 24	X: 4	Y: 10	SP: fd
f1e1	f1dd	BNE	A: 24	X: 4	Y: f	SP: fd
f1dd	2007	STA	A: 24	X: 4	Y: f	SP: fd
f1e0	0	DEY	A: 24	X: 4	Y: f	SP: fd
f1e1	f1dd	BNE	A: 24	X: 4	Y: e	SP: fd
f1dd	2007	STA	A: 24	X: 4	Y: e	SP: fd
f1e0	0	DEY	A: 24	X: 4	Y: e	SP: fd
f1e1	f1dd	BNE	A: 24	X: 4	Y: d	SP: fd
f1dd	2007	STA	A: 24	X: 4	Y: d	SP: fd
f1e0	0	DEY	A: 24	X: 4	Y: d	SP: fd
f1e1	f1dd	BNE	A: 24	X: 4	Y: c	SP: fd
f1dd	2007	STA	A: 24	X: 4	Y: c	SP: fd
f1e0	0	DEY	A: 24	X: 4	Y: c	SP: fd
f1e1	f1dd	BNE	A: 24	X: 4	Y: b	SP: fd
f1dd	2007	STA	A: 24	X: 4	Y: b	SP: fd
f1e0	0	DEY	A: 24	X: 4	Y: b	SP: fd
f1e1	f1dd	BNE	A: 24	X: 4	Y: a	SP: fd
f1dd	2007	STA	A: 24	X: 4	Y: a	SP: fd
f1e0	0	DEY	A: 24	X: 4	Y: a	SP: fd
f1e1	f1dd	BNE	A: 24	X: 4	Y: 9	SP: fd
f1dd	2007	STA	A: 24	X: 4	Y: 9	SP: fd
f1e0	0	DEY	A: 24	X: 4	Y: 9	SP: fd
f1e1	f1dd	BNE	A: 24	X: 4	Y: 8	SP: fd
f1dd	2007	STA	A: 24	X: 4	Y: 8	SP: fd
f1e0	0	DEY	A: 24	X: 4	Y: 8	SP: fd
f1e1	f1dd	BNE	A: 24	X: 4	Y: 7	SP: fd
f1dd	2007	STA	A: 24	X: 4	Y: 7	SP: fd
f1e0	0	DEY	A: 24	X: 4	Y: 7	SP: fd
f1e1	f1dd	BNE	A: 24	X: 4	Y: 6	SP: fd
f1dd	2007	STA	A: 24	X: 4	Y: 6	SP: fd
f1e0	0	DEY	A: 24	X: 4	Y: 6	SP: fd
f1e1	f1dd	BNE	A: 24	X: 4	Y: 5	SP: fd
f1dd	2007	STA	A: 24	X: 4	Y: 5	SP: fd
f1e0	0	DEY	A: 24	X: 4	Y: 5	SP: fd
f1e1	f1dd	BNE	A: 24	X: 4	Y: 4	SP: fd
f1dd	2007	STA	A: 24	X: 4	Y: 4	SP: fd
f1e0	0	DEY	A: 24	X: 4	Y: 4	SP: fd
f1e1	f1dd	BNE	A: 24	X: 4	Y: 3	SP: fd
f1dd	2007	STA	A: 24	X: 4	Y: 3	SP: fd
f1e0	0	DEY	A: 24	X: 4	Y: 3	SP: fd
f1e1	f1dd	BNE	A: 24	X: 4	Y: 2	SP: fd
f1dd	2007	STA	A: 24	X: 4	Y: 2	SP: fd
f1e0	0	DEY	A: 24	X: 4	Y: 2	SP: fd
f1e1	f1dd	BNE	A: 24	X: 4	Y: 1	SP: fd
f1dd	2007	STA	A: 24	X: 4	Y: 1	SP: fd
f1e0	0	DEY	A: 24	X: 4	Y: 1	SP: fd
f1e1	f1dd	BNE	A: 24	X: 4	Y: 0	SP: fd
f1e3	0	DEX	A: 24	X: 4	Y: 0	SP: fd
f1e4	f1dd	BNE	A: 24	X: 3	Y: 0	SP: fd
f1dd	2007	STA	A: 24	X: 3	Y: 0	SP: fd
f1e0	0	DEY	A: 24	X: 3	Y: 0	SP: fd
f1e1	f1dd	BNE	A: 24	X: 3	Y: ff	SP: fd
f1dd	2007	STA	A: 24	X: 3	Y: ff	SP: fd
f1e0	0	DEY	A: 24	X: 3	Y: ff	SP: fd
f1e1	f1dd	BNE	A: 24	X: 3	Y: fe	SP: fd
f1dd	2007	STA	A: 24	X: 3	Y: fe	SP: fd
f1e0	0	DEY	A: 24	X: 3	Y: fe	SP: fd
f1e1	f1dd	BNE	A: 24	X: 3	Y: fd	SP: fd
f1dd	2007	STA	A: 24	X: 3	Y: fd	SP: fd
f1e0	0	DEY	A: 24	X: 3	Y: fd	SP: fd
f1e1	f1dd	BNE	A: 24	X: 3	Y: fc	SP: fd
f1dd	2007	STA	A: 24	X: 3	Y: fc	SP: fd
f1e0	0	DEY	A: 24	X: 3	Y: fc	SP: fd
f1e1	f1dd	BNE	A: 24	X: 3	Y: fb	SP: fd
f1dd	2007	STA	A: 24	X: 3	Y: fb	SP: fd
f1e0	0	DEY	A: 24	X: 3	Y: fb	SP: fd
f1e1	f1dd	BNE	A: 24	X: 3	Y: fa	SP: fd
f1dd	2007	STA	A: 24	X: 3	Y: fa	SP: fd
f1e0	0	DEY	A: 24	X: 3	Y: fa	SP: fd
f1e1	f1dd	BNE	A: 24	X: 3	Y: f9	SP: fd
f1dd	2007	STA	A: 24	X: 3	Y: f9	SP: fd
f1e0	0	DEY	A: 24	X: 3	Y: f9	SP: fd
f1e1	f1dd	BNE	A: 24	X: 3	Y: f8	SP: fd
f1dd	2007	STA	A: 24	X: 3	Y: f8	SP: fd
f1e0	0	DEY	A: 24	X: 3	Y: f8	SP: fd
f1e1	f1dd	BNE	A: 24	X: 3	Y: f7	SP: fd
f1dd	2007	STA	A: 24	X: 3	Y: f7	SP: fd
f1e0	0	DEY	A: 24	X: 3	Y: f7	SP: fd
f1e1	f1dd	BNE	A: 24	X: 3	Y: f6	SP: fd
f1dd	2007	STA	A: 24	X: 3	Y: f6	SP: fd
f1e0	0	DEY	A: 24	X: 3	Y: f6	SP: fd
f1e1	f1dd	BNE	A: 24	X: 3	Y: f5	SP: fd
f1dd	2007	STA	A: 24	X: 3	Y: f5	SP: fd
f1e0	0	DEY	A: 24	X: 3	Y: f5	SP: fd
f1e1	f1dd	BNE	A: 24	X: 3	Y: f4	SP: fd
f1dd	2007	STA	A: 24	X: 3	Y: f4	SP: fd
f1e0	0	DEY	A: 24	X: 3	Y: f4	SP: fd
f1e1	f1dd	BNE	A: 24	X: 3	Y: f3	SP: fd
f1dd	2007	STA	A: 24	X: 3	Y: f3	SP: fd
f1e0	0	DEY	A: 24	X: 3	Y: f3	SP: fd
f1e1	f1dd	BNE	A: 24	X: 3	Y: f2	SP: fd
f1dd	2007	STA	A: 24	X: 3	Y: f2	SP: fd
f1e0	0	DEY	A: 24	X: 3	Y: f2	SP: fd
f1e1	f1dd	BNE	A: 24	X: 3	Y: f1	SP: fd
f1dd	2007	STA	A: 24	X: 3	Y: f1	SP: fd
f1e0	0	DEY	A: 24	X: 3	Y: f1	SP: fd
f1e1	f1dd	BNE	A: 24	X: 3	Y: f0	SP: fd
f1dd	2007	STA	A: 24	X: 3	Y: f0	SP: fd
f1e0	0	DEY	A: 24	X: 3	Y: f0	SP: fd
f1e1	f1dd	BNE	A: 24	X: 3	Y: ef	SP: fd
f1dd	2007	STA	A: 24	X: 3	Y: ef	SP: fd
f1e0	0	DEY	A: 24	X: 3	Y: ef	SP: fd
f1e1	f1dd	BNE	A: 24	X: 3	Y: ee	SP: fd
f1dd	2007	STA	A: 24	X: 3	Y: ee	SP: fd
f1e0	0	DEY	A: 24	X: 3	Y: ee	SP: fd
f1e1	f1dd	BNE	A: 24	X: 3	Y: ed	SP: fd
f1dd	2007	STA	A: 24	X: 3	Y: ed	SP: fd
f1e0	0	DEY	A: 24	X: 3	Y: ed	SP: fd
f1e1	f1dd	BNE	A: 24	X: 3	Y: ec	SP: fd
f1dd	2007	STA	A: 24	X: 3	Y: ec	SP: fd
f1e0	0	DEY	A: 24	X: 3	Y: ec	SP: fd
f1e1	f1dd	BNE	A: 24	X: 3	Y: eb	SP: fd
f1dd	2007	STA	A: 24	X: 3	Y: eb	SP: fd
f1e0	0	DEY	A: 24	X: 3	Y: eb	SP: fd
f1e1	f1dd	BNE	A: 24	X: 3	Y: ea	SP: fd
f1dd	2007	STA	A: 24	X: 3	Y: ea	SP: fd
f1e0	0	DEY	A: 24	X: 3	Y: ea	SP: fd
f1e1	f1dd	BNE	A: 24	X: 3	Y: e9	SP: fd
f1dd	2007	STA	A: 24	X: 3	Y: e9	SP: fd
f1e0	0	DEY	A: 24	X: 3	Y: e9	SP: fd
f1e1	f1dd	BNE	A: 24	X: 3	Y: e8	SP: fd
f1dd	2007	STA	A: 24	X: 3	Y: e8	SP: fd
f1e0	0	DEY	A: 24	X: 3	Y: e8	SP: fd
f1e1	f1dd	BNE	A: 24	X: 3	Y: e7	SP: fd
f1dd	2007	STA	A: 24	X: 3	Y: e7	SP: fd
f1e0	0	DEY	A: 24	X: 3	Y: e7	SP: fd
f1e1	f1dd	BNE	A: 24	X: 3	Y: e6	SP: fd
f1dd	2007	STA	A: 24	X: 3	Y: e6	SP: fd
f1e0	0	DEY	A: 24	X: 3	Y: e6	SP: fd
f1e1	f1dd	BNE	A: 24	X: 3	Y: e5	SP: fd
f1dd	2007	STA	A: 24	X: 3	Y: e5	SP: fd
f1e0	0	DEY	A: 24	X: 3	Y: e5	SP: fd
f1e1	f1dd	BNE	A: 24	X: 3	Y: e4	SP: fd
f1dd	2007	STA	A: 24	X: 3	Y: e4	SP: fd
f1e0	0	DEY	A: 24	X: 3	Y: e4	SP: fd
f1e1	f1dd	BNE	A: 24	X: 3	Y: e3	SP: fd
f1dd	2007	STA	A: 24	X: 3	Y: e3	SP: fd
f1e0	0	DEY	A: 24	X: 3	Y: e3	SP: fd
f1e1	f1dd	BNE	A: 24	X: 3	Y: e2	SP: fd
f1dd	2007	STA	A: 24	X: 3	Y: e2	SP: fd
f1e0	0	DEY	A: 24	X: 3	Y: e2	SP: fd
f1e1	f1dd	BNE	A: 24	X: 3	Y: e1	SP: fd
f1dd	2007	STA	A: 24	X: 3	Y: e1	SP: fd
f1e0	0	DEY	A: 24	X: 3	Y: e1	SP: fd
f1e1	f1dd	BNE	A: 24	X: 3	Y: e0	SP: fd
f1dd	2007	STA	A: 24	X: 3	Y: e0	SP: fd
f1e0	0	DEY	A: 24	X: 3	Y: e0	SP: fd
f1e1	f1dd	BNE	A: 24	X: 3	Y: df	SP: fd
f1dd	2007	STA	A: 24	X: 3	Y: df	SP: fd
f1e0	0	DEY	A: 24	X: 3	Y: df	SP: fd
f1e1	f1dd	BNE	A: 24	X: 3	Y: de	SP: fd
f1dd	2007	STA	A: 24	X: 3	Y: de	SP: fd
f1e0	0	DEY	A: 24	X: 3	Y: de	SP: fd
f1e1	f1dd	BNE	A: 24	X: 3	Y: dd	SP: fd
f1dd	2007	STA	A: 24	X: 3	Y: dd	SP: fd
f1e0	0	DEY	A: 24	X: 3	Y: dd	SP: fd
f1e1	f1dd	BNE	A: 24	X: 3	Y: dc	SP: fd
f1dd	2007	STA	A: 24	X: 3	Y: dc	SP: fd
f1e0	0	DEY	A: 24	X: 3	Y: dc	SP: fd
f1e1	f1dd	BNE	A: 24	X: 3	Y: db	SP: fd
f1dd	2007	STA	A: 24	X: 3	Y: db	SP: fd
f1e0	0	DEY	A: 24	X: 3	Y: db	SP: fd
f1e1	f1dd	BNE	A: 24	X: 3	Y: da	SP: fd
f1dd	2007	STA	A: 24	X: 3	Y: da	SP: fd
f1e0	0	DEY	A: 24	X: 3	Y: da	SP: fd
f1e1	f1dd	BNE	A: 24	X: 3	Y: d9	SP: fd
f1dd	2007	STA	A: 24	X: 3	Y: d9	SP: fd
f1e0	0	DEY	A: 24	X: 3	Y: d9	SP: fd
f1e1	f1dd	BNE	A: 24	X: 3	Y: d8	SP: fd
f1dd	2007	STA	A: 24	X: 3	Y: d8	SP: fd
f1e0	0	DEY	A: 24	X: 3	Y: d8	SP: fd
f1e1	f1dd	BNE	A: 24	X: 3	Y: d7	SP: fd
f1dd	2007	STA	A: 24	X: 3	Y: d7	SP: fd
f1e0	0	DEY	A: 24	X: 3	Y: d7	SP: fd
f1e1	f1dd	BNE	A: 24	X: 3	Y: d6	SP: fd
f1dd	2007	STA	A: 24	X: 3	Y: d6	SP: fd
f1e0	0	DEY	A: 24	X: 3	Y: d6	SP: fd
f1e1	f1dd	BNE	A: 24	X: 3	Y: d5	SP: fd
f1dd	2007	STA	A: 24	X: 3	Y: d5	SP: fd
f1e0	0	DEY	A: 24	X: 3	Y: d5	SP: fd
f1e1	f1dd	BNE	A: 24	X: 3	Y: d4	SP: fd
f1dd	2007	STA	A: 24	X: 3	Y: d4	SP: fd
f1e0	0	DEY	A: 24	X: 3	Y: d4	SP: fd
f1e1	f1dd	BNE	A: 24	X: 3	Y: d3	SP: fd
f1dd	2007	STA	A: 24	X: 3	Y: d3	SP: fd
f1e0	0	DEY	A: 24	X: 3	Y: d3	SP: fd
f1e1	f1dd	BNE	A: 24	X: 3	Y: d2	SP: fd
f1dd	2007	STA	A: 24	X: 3	Y: d2	SP: fd
f1e0	0	DEY	A: 24	X: 3	Y: d2	SP: fd
f1e1	f1dd	BNE	A: 24	X: 3	Y: d1	SP: fd
f1dd	2007	STA	A: 24	X: 3	Y: d1	SP: fd
f1e0	0	DEY	A: 24	X: 3	Y: d1	SP: fd
f1e1	f1dd	BNE	A: 24	X: 3	Y: d0	SP: fd
f1dd	2007	STA	A: 24	X: 3	Y: d0	SP: fd
f1e0	0	DEY	A: 24	X: 3	Y: d0	SP: fd
f1e1	f1dd	BNE	A: 24	X: 3	Y: cf	SP: fd
f1dd	2007	STA	A: 24	X: 3	Y: cf	SP: fd
f1e0	0	DEY	A: 24	X: 3	Y: cf	SP: fd
f1e1	f1dd	BNE	A: 24	X: 3	Y: ce	SP: fd
f1dd	2007	STA	A: 24	X: 3	Y: ce	SP: fd
f1e0	0	DEY	A: 24	X: 3	Y: ce	SP: fd
f1e1	f1dd	BNE	A: 24	X: 3	Y: cd	SP: fd
f1dd	2007	STA	A: 24	X: 3	Y: cd	SP: fd
f1e0	0	DEY	A: 24	X: 3	Y: cd	SP: fd
f1e1	f1dd	BNE	A: 24	X: 3	Y: cc	SP: fd
f1dd	2007	STA	A: 24	X: 3	Y: cc	SP: fd
f1e0	0	DEY	A: 24	X: 3	Y: cc	SP: fd
f1e1	f1dd	BNE	A: 24	X: 3	Y: cb	SP: fd
f1dd	2007	STA	A: 24	X: 3	Y: cb	SP: fd
f1e0	0	DEY	A: 24	X: 3	Y: cb	SP: fd
f1e1	f1dd	BNE	A: 24	X: 3	Y: ca	SP: fd
f1dd	2007	STA	A: 24	X: 3	Y: ca	SP: fd
f1e0	0	DEY	A: 24	X: 3	Y: ca	SP: fd
f1e1	f1dd	BNE	A: 24	X: 3	Y: c9	SP: fd
f1dd	2007	STA	A: 24	X: 3	Y: c9	SP: fd
f1e0	0	DEY	A: 24	X: 3	Y: c9	SP: fd
f1e1	f1dd	BNE	A: 24	X: 3	Y: c8	SP: fd
f1dd	2007	STA	A: 24	X: 3	Y: c8	SP: fd
f1e0	0	DEY	A: 24	X: 3	Y: c8	SP: fd
f1e1	f1dd	BNE	A: 24	X: 3	Y: c7	SP: fd
f1dd	2007	STA	A: 24	X: 3	Y: c7	SP: fd
f1e0	0	DEY	A: 24	X: 3	Y: c7	SP: fd
f1e1	f1dd	BNE	A: 24	X: 3	Y: c6	SP: fd
f1dd	2007	STA	A: 24	X: 3	Y: c6	SP: fd
f1e0	0	DEY	A: 24	X: 3	Y: c6	SP: fd
f1e1	f1dd	BNE	A: 24	X: 3	Y: c5	SP: fd
f1dd	2007	STA	A: 24	X: 3	Y: c5	SP: fd
f1e0	0	DEY	A: 24	X: 3	Y: c5	SP: fd
f1e1	f1dd	BNE	A: 24	X: 3	Y: c4	SP: fd
f1dd	2007	STA	A: 24	X: 3	Y: c4	SP: fd
f1e0	0	DEY	A: 24	X: 3	Y: c4	SP: fd
f1e1	f1dd	BNE	A: 24	X: 3	Y: c3	SP: fd
f1dd	2007	STA	A: 24	X: 3	Y: c3	SP: fd
f1e0	0	DEY	A: 24	X: 3	Y: c3	SP: fd
f1e1	f1dd	BNE	A: 24	X: 3	Y: c2	SP: fd
f1dd	2007	STA	A: 24	X: 3	Y: c2	SP: fd
f1e0	0	DEY	A: 24	X: 3	Y: c2	SP: fd
f1e1	f1dd	BNE	A: 24	X: 3	Y: c1	SP: fd
f1dd	2007	STA	A: 24	X: 3	Y: c1	SP: fd
f1e0	0	DEY	A: 24	X: 3	Y: c1	SP: fd
f1e1	f1dd	BNE	A: 24	X: 3	Y: c0	SP: fd
f1dd	2007	STA	A: 24	X: 3	Y: c0	SP: fd
f1e0	0	DEY	A: 24	X: 3	Y: c0	SP: fd
f1e1	f1dd	BNE	A: 24	X: 3	Y: bf	SP: fd
f1dd	2007	STA	A: 24	X: 3	Y: bf	SP: fd
f1e0	0	DEY	A: 24	X: 3	Y: bf	SP: fd
f1e1	f1dd	BNE	A: 24	X: 3	Y: be	SP: fd
f1dd	2007	STA	A: 24	X: 3	Y: be	SP: fd
f1e0	0	DEY	A: 24	X: 3	Y: be	SP: fd
f1e1	f1dd	BNE	A: 24	X: 3	Y: bd	SP: fd
f1dd	2007	STA	A: 24	X: 3	Y: bd	SP: fd
f1e0	0	DEY	A: 24	X: 3	Y: bd	SP: fd
f1e1	f1dd	BNE	A: 24	X: 3	Y: bc	SP: fd
f1dd	2007	STA	A: 24	X: 3	Y: bc	SP: fd
f1e0	0	DEY	A: 24	X: 3	Y: bc	SP: fd
f1e1	f1dd	BNE	A: 24	X: 3	Y: bb	SP: fd
f1dd	2007	STA	A: 24	X: 3	Y: bb	SP: fd
f1e0	0	DEY	A: 24	X: 3	Y: bb	SP: fd
f1e1	f1dd	BNE	A: 24	X: 3	Y: ba	SP: fd
f1dd	2007	STA	A: 24	X: 3	Y: ba	SP: fd
f1e0	0	DEY	A: 24	X: 3	Y: ba	SP: fd
f1e1	f1dd	BNE	A: 24	X: 3	Y: b9	SP: fd
f1dd	2007	STA	A: 24	X: 3	Y: b9	SP: fd
f1e0	0	DEY	A: 24	X: 3	Y: b9	SP: fd
f1e1	f1dd	BNE	A: 24	X: 3	Y: b8	SP: fd
f1dd	2007	STA	A: 24	X: 3	Y: b8	SP: fd
f1e0	0	DEY	A: 24	X: 3	Y: b8	SP: fd
f1e1	f1dd	BNE	A: 24	X: 3	Y: b7	SP: fd
f1dd	2007	STA	A: 24	X: 3	Y: b7	SP: fd
f1e0	0	DEY	A: 24	X: 3	Y: b7	SP: fd
f1e1	f1dd	BNE	A: 24	X: 3	Y: b6	SP: fd
f1dd	2007	STA	A: 24	X: 3	Y: b6	SP: fd
f1e0	0	DEY	A: 24	X: 3	Y: b6	SP: fd
f1e1	f1dd	BNE	A: 24	X: 3	Y: b5	SP: fd
f1dd	2007	STA	A: 24	X: 3	Y: b5	SP: fd
f1e0	0	DEY	A: 24	X: 3	Y: b5	SP: fd
f1e1	f1dd	BNE	A: 24	X: 3	Y: b4	SP: fd
f1dd	2007	STA	A: 24	X: 3	Y: b4	SP: fd
f1e0	0	DEY	A: 24	X: 3	Y: b4	SP: fd
f1e1	f1dd	BNE	A: 24	X: 3	Y: b3	SP: fd
f1dd	2007	STA	A: 24	X: 3	Y: b3	SP: fd
f1e0	0	DEY	A: 24	X: 3	Y: b3	SP: fd
f1e1	f1dd	BNE	A: 24	X: 3	Y: b2	SP: fd
f1dd	2007	STA	A: 24	X: 3	Y: b2	SP: fd
f1e0	0	DEY	A: 24	X: 3	Y: b2	SP: fd
f1e1	f1dd	BNE	A: 24	X: 3	Y: b1	SP: fd
f1dd	2007	STA	A: 24	X: 3	Y: b1	SP: fd
f1e0	0	DEY	A: 24	X: 3	Y: b1	SP: fd
f1e1	f1dd	BNE	A: 24	X: 3	Y: b0	SP: fd
f1dd	2007	STA	A: 24	X: 3	Y: b0	SP: fd
f1e0	0	DEY	A: 24	X: 3	Y: b0	SP: fd
f1e1	f1dd	BNE	A: 24	X: 3	Y: af	SP: fd
f1dd	2007	STA	A: 24	X: 3	Y: af	SP: fd
f1e0	0	DEY	A: 24	X: 3	Y: af	SP: fd
f1e1	f1dd	BNE	A: 24	X: 3	Y: ae	SP: fd
f1dd	2007	STA	A: 24	X: 3	Y: ae	SP: fd
f1e0	0	DEY	A: 24	X: 3	Y: ae	SP: fd
f1e1	f1dd	BNE	A: 24	X: 3	Y: ad	SP: fd
f1dd	2007	STA	A: 24	X: 3	Y: ad	SP: fd
f1e0	0	DEY	A: 24	X: 3	Y: ad	SP: fd
f1e1	f1dd	BNE	A: 24	X: 3	Y: ac	SP: fd
f1dd	2007	STA	A: 24	X: 3	Y: ac	SP: fd
f1e0	0	DEY	A: 24	X: 3	Y: ac	SP: fd
f1e1	f1dd	BNE	A: 24	X: 3	Y: ab	SP: fd
f1dd	2007	STA	A: 24	X: 3	Y: ab	SP: fd
f1e0	0	DEY	A: 24	X: 3	Y: ab	SP: fd
f1e1	f1dd	BNE	A: 24	X: 3	Y: aa	SP: fd
f1dd	2007	STA	A: 24	X: 3	Y: aa	SP: fd
f1e0	0	DEY	A: 24	X: 3	Y: aa	SP: fd
f1e1	f1dd	BNE	A: 24	X: 3	Y: a9	SP: fd
f1dd	2007	STA	A: 24	X: 3	Y: a9	SP: fd
f1e0	0	DEY	A: 24	X: 3	Y: a9	SP: fd
f1e1	f1dd	BNE	A: 24	X: 3	Y: a8	SP: fd
f1dd	2007	STA	A: 24	X: 3	Y: a8	SP: fd
f1e0	0	DEY	A: 24	X: 3	Y: a8	SP: fd
f1e1	f1dd	BNE	A: 24	X: 3	Y: a7	SP: fd
f1dd	2007	STA	A: 24	X: 3	Y: a7	SP: fd
f1e0	0	DEY	A: 24	X: 3	Y: a7	SP: fd
f1e1	f1dd	BNE	A: 24	X: 3	Y: a6	SP: fd
f1dd	2007	STA	A: 24	X: 3	Y: a6	SP: fd
f1e0	0	DEY	A: 24	X: 3	Y: a6	SP: fd
f1e1	f1dd	BNE	A: 24	X: 3	Y: a5	SP: fd
f1dd	2007	STA	A: 24	X: 3	Y: a5	SP: fd
f1e0	0	DEY	A: 24	X: 3	Y: a5	SP: fd
f1e1	f1dd	BNE	A: 24	X: 3	Y: a4	SP: fd
f1dd	2007	STA	A: 24	X: 3	Y: a4	SP: fd
f1e0	0	DEY	A: 24	X: 3	Y: a4	SP: fd
f1e1	f1dd	BNE	A: 24	X: 3	Y: a3	SP: fd
f1dd	2007	STA	A: 24	X: 3	Y: a3	SP: fd
f1e0	0	DEY	A: 24	X: 3	Y: a3	SP: fd
f1e1	f1dd	BNE	A: 24	X: 3	Y: a2	SP: fd
f1dd	2007	STA	A: 24	X: 3	Y: a2	SP: fd
f1e0	0	DEY	A: 24	X: 3	Y: a2	SP: fd
f1e1	f1dd	BNE	A: 24	X: 3	Y: a1	SP: fd
f1dd	2007	STA	A: 24	X: 3	Y: a1	SP: fd
f1e0	0	DEY	A: 24	X: 3	Y: a1	SP: fd
f1e1	f1dd	BNE	A: 24	X: 3	Y: a0	SP: fd
f1dd	2007	STA	A: 24	X: 3	Y: a0	SP: fd
f1e0	0	DEY	A: 24	X: 3	Y: a0	SP: fd
f1e1	f1dd	BNE	A: 24	X: 3	Y: 9f	SP: fd
f1dd	2007	STA	A: 24	X: 3	Y: 9f	SP: fd
f1e0	0	DEY	A: 24	X: 3	Y: 9f	SP: fd
f1e1	f1dd	BNE	A: 24	X: 3	Y: 9e	SP: fd
f1dd	2007	STA	A: 24	X: 3	Y: 9e	SP: fd
f1e0	0	DEY	A: 24	X: 3	Y: 9e	SP: fd
f1e1	f1dd	BNE	A: 24	X: 3	Y: 9d	SP: fd
f1dd	2007	STA	A: 24	X: 3	Y: 9d	SP: fd
f1e0	0	DEY	A: 24	X: 3	Y: 9d	SP: fd
f1e1	f1dd	BNE	A: 24	X: 3	Y: 9c	SP: fd
f1dd	2007	STA	A: 24	X: 3	Y: 9c	SP: fd
f1e0	0	DEY	A: 24	X: 3	Y: 9c	SP: fd
f1e1	f1dd	BNE	A: 24	X: 3	Y: 9b	SP: fd
f1dd	2007	STA	A: 24	X: 3	Y: 9b	SP: fd
f1e0	0	DEY	A: 24	X: 3	Y: 9b	SP: fd
f1e1	f1dd	BNE	A: 24	X: 3	Y: 9a	SP: fd
f1dd	2007	STA	A: 24	X: 3	Y: 9a	SP: fd
f1e0	0	DEY	A: 24	X: 3	Y: 9a	SP: fd
f1e1	f1dd	BNE	A: 24	X: 3	Y: 99	SP: fd
f1dd	2007	STA	A: 24	X: 3	Y: 99	SP: fd
f1e0	0	DEY	A: 24	X: 3	Y: 99	SP: fd
f1e1	f1dd	BNE	A: 24	X: 3	Y: 98	SP: fd
f1dd	2007	STA	A: 24	X: 3	Y: 98	SP: fd
f1e0	0	DEY	A: 24	X: 3	Y: 98	SP: fd
f1e1	f1dd	BNE	A: 24	X: 3	Y: 97	SP: fd
f1dd	2007	STA	A: 24	X: 3	Y: 97	SP: fd
f1e0	0	DEY	A: 24	X: 3	Y: 97	SP: fd
f1e1	f1dd	BNE	A: 24	X: 3	Y: 96	SP: fd
f1dd	2007	STA	A: 24	X: 3	Y: 96	SP: fd
f1e0	0	DEY	A: 24	X: 3	Y: 96	SP: fd
f1e1	f1dd	BNE	A: 24	X: 3	Y: 95	SP: fd
f1dd	2007	STA	A: 24	X: 3	Y: 95	SP: fd
f1e0	0	DEY	A: 24	X: 3	Y: 95	SP: fd
f1e1	f1dd	BNE	A: 24	X: 3	Y: 94	SP: fd
f1dd	2007	STA	A: 24	X: 3	Y: 94	SP: fd
f1e0	0	DEY	A: 24	X: 3	Y: 94	SP: fd
f1e1	f1dd	BNE	A: 24	X: 3	Y: 93	SP: fd
f1dd	2007	STA	A: 24	X: 3	Y: 93	SP: fd
f1e0	0	DEY	A: 24	X: 3	Y: 93	SP: fd
f1e1	f1dd	BNE	A: 24	X: 3	Y: 92	SP: fd
f1dd	2007	STA	A: 24	X: 3	Y: 92	SP: fd
f1e0	0	DEY	A: 24	X: 3	Y: 92	SP: fd
f1e1	f1dd	BNE	A: 24	X: 3	Y: 91	SP: fd
f1dd	2007	STA	A: 24	X: 3	Y: 91	SP: fd
f1e0	0	DEY	A: 24	X: 3	Y: 91	SP: fd
f1e1	f1dd	BNE	A: 24	X: 3	Y: 90	SP: fd
f1dd	2007	STA	A: 24	X: 3	Y: 90	SP: fd
f1e0	0	DEY	A: 24	X: 3	Y: 90	SP: fd
f1e1	f1dd	BNE	A: 24	X: 3	Y: 8f	SP: fd
f1dd	2007	STA	A: 24	X: 3	Y: 8f	SP: fd
f1e0	0	DEY	A: 24	X: 3	Y: 8f	SP: fd
f1e1	f1dd	BNE	A: 24	X: 3	Y: 8e	SP: fd
f1dd	2007	STA	A: 24	X: 3	Y: 8e	SP: fd
f1e0	0	DEY	A: 24	X: 3	Y: 8e	SP: fd
f1e1	f1dd	BNE	A: 24	X: 3	Y: 8d	SP: fd
f1dd	2007	STA	A: 24	X: 3	Y: 8d	SP: fd
f1e0	0	DEY	A: 24	X: 3	Y: 8d	SP: fd
f1e1	f1dd	BNE	A: 24	X: 3	Y: 8c	SP: fd
f1dd	2007	STA	A: 24	X: 3	Y: 8c	SP: fd
f1e0	0	DEY	A: 24	X: 3	Y: 8c	SP: fd
f1e1	f1dd	BNE	A: 24	X: 3	Y: 8b	SP: fd
f1dd	2007	STA	A: 24	X: 3	Y: 8b	SP: fd
f1e0	0	DEY	A: 24	X: 3	Y: 8b	SP: fd
f1e1	f1dd	BNE	A: 24	X: 3	Y: 8a	SP: fd
f1dd	2007	STA	A: 24	X: 3	Y: 8a	SP: fd
f1e0	0	DEY	A: 24	X: 3	Y: 8a	SP: fd
f1e1	f1dd	BNE	A: 24	X: 3	Y: 89	SP: fd
f1dd	2007	STA	A: 24	X: 3	Y: 89	SP: fd
f1e0	0	DEY	A: 24	X: 3	Y: 89	SP: fd
f1e1	f1dd	BNE	A: 24	X: 3	Y: 88	SP: fd
f1dd	2007	STA	A: 24	X: 3	Y: 88	SP: fd
f1e0	0	DEY	A: 24	X: 3	Y: 88	SP: fd
f1e1	f1dd	BNE	A: 24	X: 3	Y: 87	SP: fd
f1dd	2007	STA	A: 24	X: 3	Y: 87	SP: fd
f1e0	0	DEY	A: 24	X: 3	Y: 87	SP: fd
f1e1	f1dd	BNE	A: 24	X: 3	Y: 86	SP: fd
f1dd	2007	STA	A: 24	X: 3	Y: 86	SP: fd
f1e0	0	DEY	A: 24	X: 3	Y: 86	SP: fd
f1e1	f1dd	BNE	A: 24	X: 3	Y: 85	SP: fd
f1dd	2007	STA	A: 24	X: 3	Y: 85	SP: fd
f1e0	0	DEY	A: 24	X: 3	Y: 85	SP: fd
f1e1	f1dd	BNE	A: 24	X: 3	Y: 84	SP: fd
f1dd	2007	STA	A: 24	X: 3	Y: 84	SP: fd
f1e0	0	DEY	A: 24	X: 3	Y: 84	SP: fd
f1e1	f1dd	BNE	A: 24	X: 3	Y: 83	SP: fd
f1dd	2007	STA	A: 24	X: 3	Y: 83	SP: fd
f1e0	0	DEY	A: 24	X: 3	Y: 83	SP: fd
f1e1	f1dd	BNE	A: 24	X: 3	Y: 82	SP: fd
f1dd	2007	STA	A: 24	X: 3	Y: 82	SP: fd
f1e0	0	DEY	A: 24	X: 3	Y: 82	SP: fd
f1e1	f1dd	BNE	A: 24	X: 3	Y: 81	SP: fd
f1dd	2007	STA	A: 24	X: 3	Y: 81	SP: fd
f1e0	0	DEY	A: 24	X: 3	Y: 81	SP: fd
f1e1	f1dd	BNE	A: 24	X: 3	Y: 80	SP: fd
f1dd	2007	STA	A: 24	X: 3	Y: 80	SP: fd
f1e0	0	DEY	A: 24	X: 3	Y: 80	SP: fd
f1e1	f1dd	BNE	A: 24	X: 3	Y: 7f	SP: fd
f1dd	2007	STA	A: 24	X: 3	Y: 7f	SP: fd
f1e0	0	DEY	A: 24	X: 3	Y: 7f	SP: fd
f1e1	f1dd	BNE	A: 24	X: 3	Y: 7e	SP: fd
f1dd	2007	STA	A: 24	X: 3	Y: 7e	SP: fd
f1e0	0	DEY	A: 24	X: 3	Y: 7e	SP: fd
f1e1	f1dd	BNE	A: 24	X: 3	Y: 7d	SP: fd
f1dd	2007	STA	A: 24	X: 3	Y: 7d	SP: fd
f1e0	0	DEY	A: 24	X: 3	Y: 7d	SP: fd
f1e1	f1dd	BNE	A: 24	X: 3	Y: 7c	SP: fd
f1dd	2007	STA	A: 24	X: 3	Y: 7c	SP: fd
f1e0	0	DEY	A: 24	X: 3	Y: 7c	SP: fd
f1e1	f1dd	BNE	A: 24	X: 3	Y: 7b	SP: fd
f1dd	2007	STA	A: 24	X: 3	Y: 7b	SP: fd
f1e0	0	DEY	A: 24	X: 3	Y: 7b	SP: fd
f1e1	f1dd	BNE	A: 24	X: 3	Y: 7a	SP: fd
f1dd	2007	STA	A: 24	X: 3	Y: 7a	SP: fd
f1e0	0	DEY	A: 24	X: 3	Y: 7a	SP: fd
f1e1	f1dd	BNE	A: 24	X: 3	Y: 79	SP: fd
f1dd	2007	STA	A: 24	X: 3	Y: 79	SP: fd
f1e0	0	DEY	A: 24	X: 3	Y: 79	SP: fd
f1e1	f1dd	BNE	A: 24	X: 3	Y: 78	SP: fd
f1dd	2007	STA	A: 24	X: 3	Y: 78	SP: fd
f1e0	0	DEY	A: 24	X: 3	Y: 78	SP: fd
f1e1	f1dd	BNE	A: 24	X: 3	Y: 77	SP: fd
f1dd	2007	STA	A: 24	X: 3	Y: 77	SP: fd
f1e0	0	DEY	A: 24	X: 3	Y: 77	SP: fd
f1e1	f1dd	BNE	A: 24	X: 3	Y: 76	SP: fd
f1dd	2007	STA	A: 24	X: 3	Y: 76	SP: fd
f1e0	0	DEY	A: 24	X: 3	Y: 76	SP: fd
f1e1	f1dd	BNE	A: 24	X: 3	Y: 75	SP: fd
f1dd	2007	STA	A: 24	X: 3	Y: 75	SP: fd
f1e0	0	DEY	A: 24	X: 3	Y: 75	SP: fd
f1e1	f1dd	BNE	A: 24	X: 3	Y: 74	SP: fd
f1dd	2007	STA	A: 24	X: 3	Y: 74	SP: fd
f1e0	0	DEY	A: 24	X: 3	Y: 74	SP: fd
f1e1	f1dd	BNE	A: 24	X: 3	Y: 73	SP: fd
f1dd	2007	STA	A: 24	X: 3	Y: 73	SP: fd
f1e0	0	DEY	A: 24	X: 3	Y: 73	SP: fd
f1e1	f1dd	BNE	A: 24	X: 3	Y: 72	SP: fd
f1dd	2007	STA	A: 24	X: 3	Y: 72	SP: fd
f1e0	0	DEY	A: 24	X: 3	Y: 72	SP: fd
f1e1	f1dd	BNE	A: 24	X: 3	Y: 71	SP: fd
f1dd	2007	STA	A: 24	X: 3	Y: 71	SP: fd
f1e0	0	DEY	A: 24	X: 3	Y: 71	SP: fd
f1e1	f1dd	BNE	A: 24	X: 3	Y: 70	SP: fd
f1dd	2007	STA	A: 24	X: 3	Y: 70	SP: fd
f1e0	0	DEY	A: 24	X: 3	Y: 70	SP: fd
f1e1	f1dd	BNE	A: 24	X: 3	Y: 6f	SP: fd
f1dd	2007	STA	A: 24	X: 3	Y: 6f	SP: fd
f1e0	0	DEY	A: 24	X: 3	Y: 6f	SP: fd
f1e1	f1dd	BNE	A: 24	X: 3	Y: 6e	SP: fd
f1dd	2007	STA	A: 24	X: 3	Y: 6e	SP: fd
f1e0	0	DEY	A: 24	X: 3	Y: 6e	SP: fd
f1e1	f1dd	BNE	A: 24	X: 3	Y: 6d	SP: fd
f1dd	2007	STA	A: 24	X: 3	Y: 6d	SP: fd
f1e0	0	DEY	A: 24	X: 3	Y: 6d	SP: fd
f1e1	f1dd	BNE	A: 24	X: 3	Y: 6c	SP: fd
f1dd	2007	STA	A: 24	X: 3	Y: 6c	SP: fd
f1e0	0	DEY	A: 24	X: 3	Y: 6c	SP: fd
f1e1	f1dd	BNE	A: 24	X: 3	Y: 6b	SP: fd
f1dd	2007	STA	A: 24	X: 3	Y: 6b	SP: fd
f1e0	0	DEY	A: 24	X: 3	Y: 6b	SP: fd
f1e1	f1dd	BNE	A: 24	X: 3	Y: 6a	SP: fd
f1dd	2007	STA	A: 24	X: 3	Y: 6a	SP: fd
f1e0	0	DEY	A: 24	X: 3	Y: 6a	SP: fd
f1e1	f1dd	BNE	A: 24	X: 3	Y: 69	SP: fd
f1dd	2007	STA	A: 24	X: 3	Y: 69	SP: fd
f1e0	0	DEY	A: 24	X: 3	Y: 69	SP: fd
f1e1	f1dd	BNE	A: 24	X: 3	Y: 68	SP: fd
f1dd	2007	STA	A: 24	X: 3	Y: 68	SP: fd
f1e0	0	DEY	A: 24	X: 3	Y: 68	SP: fd
f1e1	f1dd	BNE	A: 24	X: 3	Y: 67	SP: fd
f1dd	2007	STA	A: 24	X: 3	Y: 67	SP: fd
f1e0	0	DEY	A: 24	X: 3	Y: 67	SP: fd
f1e1	f1dd	BNE	A: 24	X: 3	Y: 66	SP: fd
f1dd	2007	STA	A: 24	X: 3	Y: 66	SP: fd
f1e0	0	DEY	A: 24	X: 3	Y: 66	SP: fd
f1e1	f1dd	BNE	A: 24	X: 3	Y: 65	SP: fd
f1dd	2007	STA	A: 24	X: 3	Y: 65	SP: fd
f1e0	0	DEY	A: 24	X: 3	Y: 65	SP: fd
f1e1	f1dd	BNE	A: 24	X: 3	Y: 64	SP: fd
f1dd	2007	STA	A: 24	X: 3	Y: 64	SP: fd
f1e0	0	DEY	A: 24	X: 3	Y: 64	SP: fd
f1e1	f1dd	BNE	A: 24	X: 3	Y: 63	SP: fd
f1dd	2007	STA	A: 24	X: 3	Y: 63	SP: fd
f1e0	0	DEY	A: 24	X: 3	Y: 63	SP: fd
f1e1	f1dd	BNE	A: 24	X: 3	Y: 62	SP: fd
f1dd	2007	STA	A: 24	X: 3	Y: 62	SP: fd
f1e0	0	DEY	A: 24	X: 3	Y: 62	SP: fd
f1e1	f1dd	BNE	A: 24	X: 3	Y: 61	SP: fd
f1dd	2007	STA	A: 24	X: 3	Y: 61	SP: fd
f1e0	0	DEY	A: 24	X: 3	Y: 61	SP: fd
f1e1	f1dd	BNE	A: 24	X: 3	Y: 60	SP: fd
f1dd	2007	STA	A: 24	X: 3	Y: 60	SP: fd
f1e0	0	DEY	A: 24	X: 3	Y: 60	SP: fd
f1e1	f1dd	BNE	A: 24	X: 3	Y: 5f	SP: fd
f1dd	2007	STA	A: 24	X: 3	Y: 5f	SP: fd
f1e0	0	DEY	A: 24	X: 3	Y: 5f	SP: fd
f1e1	f1dd	BNE	A: 24	X: 3	Y: 5e	SP: fd
f1dd	2007	STA	A: 24	X: 3	Y: 5e	SP: fd
f1e0	0	DEY	A: 24	X: 3	Y: 5e	SP: fd
f1e1	f1dd	BNE	A: 24	X: 3	Y: 5d	SP: fd
f1dd	2007	STA	A: 24	X: 3	Y: 5d	SP: fd
f1e0	0	DEY	A: 24	X: 3	Y: 5d	SP: fd
f1e1	f1dd	BNE	A: 24	X: 3	Y: 5c	SP: fd
f1dd	2007	STA	A: 24	X: 3	Y: 5c	SP: fd
f1e0	0	DEY	A: 24	X: 3	Y: 5c	SP: fd
f1e1	f1dd	BNE	A: 24	X: 3	Y: 5b	SP: fd
f1dd	2007	STA	A: 24	X: 3	Y: 5b	SP: fd
f1e0	0	DEY	A: 24	X: 3	Y: 5b	SP: fd
f1e1	f1dd	BNE	A: 24	X: 3	Y: 5a	SP: fd
f1dd	2007	STA	A: 24	X: 3	Y: 5a	SP: fd
f1e0	0	DEY	A: 24	X: 3	Y: 5a	SP: fd
f1e1	f1dd	BNE	A: 24	X: 3	Y: 59	SP: fd
f1dd	2007	STA	A: 24	X: 3	Y: 59	SP: fd
f1e0	0	DEY	A: 24	X: 3	Y: 59	SP: fd
f1e1	f1dd	BNE	A: 24	X: 3	Y: 58	SP: fd
f1dd	2007	STA	A: 24	X: 3	Y: 58	SP: fd
f1e0	0	DEY	A: 24	X: 3	Y: 58	SP: fd
f1e1	f1dd	BNE	A: 24	X: 3	Y: 57	SP: fd
f1dd	2007	STA	A: 24	X: 3	Y: 57	SP: fd
f1e0	0	DEY	A: 24	X: 3	Y: 57	SP: fd
f1e1	f1dd	BNE	A: 24	X: 3	Y: 56	SP: fd
f1dd	2007	STA	A: 24	X: 3	Y: 56	SP: fd
f1e0	0	DEY	A: 24	X: 3	Y: 56	SP: fd
f1e1	f1dd	BNE	A: 24	X: 3	Y: 55	SP: fd
f1dd	2007	STA	A: 24	X: 3	Y: 55	SP: fd
f1e0	0	DEY	A: 24	X: 3	Y: 55	SP: fd
f1e1	f1dd	BNE	A: 24	X: 3	Y: 54	SP: fd
f1dd	2007	STA	A: 24	X: 3	Y: 54	SP: fd
f1e0	0	DEY	A: 24	X: 3	Y: 54	SP: fd
f1e1	f1dd	BNE	A: 24	X: 3	Y: 53	SP: fd
f1dd	2007	STA	A: 24	X: 3	Y: 53	SP: fd
f1e0	0	DEY	A: 24	X: 3	Y: 53	SP: fd
f1e1	f1dd	BNE	A: 24	X: 3	Y: 52	SP: fd
f1dd	2007	STA	A: 24	X: 3	Y: 52	SP: fd
f1e0	0	DEY	A: 24	X: 3	Y: 52	SP: fd
f1e1	f1dd	BNE	A: 24	X: 3	Y: 51	SP: fd
f1dd	2007	STA	A: 24	X: 3	Y: 51	SP: fd
f1e0	0	DEY	A: 24	X: 3	Y: 51	SP: fd
f1e1	f1dd	BNE	A: 24	X: 3	Y: 50	SP: fd
f1dd	2007	STA	A: 24	X: 3	Y: 50	SP: fd
f1e0	0	DEY	A: 24	X: 3	Y: 50	SP: fd
f1e1	f1dd	BNE	A: 24	X: 3	Y: 4f	SP: fd
f1dd	2007	STA	A: 24	X: 3	Y: 4f	SP: fd
f1e0	0	DEY	A: 24	X: 3	Y: 4f	SP: fd
f1e1	f1dd	BNE	A: 24	X: 3	Y: 4e	SP: fd
f1dd	2007	STA	A: 24	X: 3	Y: 4e	SP: fd
f1e0	0	DEY	A: 24	X: 3	Y: 4e	SP: fd
f1e1	f1dd	BNE	A: 24	X: 3	Y: 4d	SP: fd
f1dd	2007	STA	A: 24	X: 3	Y: 4d	SP: fd
f1e0	0	DEY	A: 24	X: 3	Y: 4d	SP: fd
f1e1	f1dd	BNE	A: 24	X: 3	Y: 4c	SP: fd
f1dd	2007	STA	A: 24	X: 3	Y: 4c	SP: fd
f1e0	0	DEY	A: 24	X: 3	Y: 4c	SP: fd
f1e1	f1dd	BNE	A: 24	X: 3	Y: 4b	SP: fd
f1dd	2007	STA	A: 24	X: 3	Y: 4b	SP: fd
f1e0	0	DEY	A: 24	X: 3	Y: 4b	SP: fd
f1e1	f1dd	BNE	A: 24	X: 3	Y: 4a	SP: fd
f1dd	2007	STA	A: 24	X: 3	Y: 4a	SP: fd
f1e0	0	DEY	A: 24	X: 3	Y: 4a	SP: fd
f1e1	f1dd	BNE	A: 24	X: 3	Y: 49	SP: fd
f1dd	2007	STA	A: 24	X: 3	Y: 49	SP: fd
f1e0	0	DEY	A: 24	X: 3	Y: 49	SP: fd
f1e1	f1dd	BNE	A: 24	X: 3	Y: 48	SP: fd
f1dd	2007	STA	A: 24	X: 3	Y: 48	SP: fd
f1e0	0	DEY	A: 24	X: 3	Y: 48	SP: fd
f1e1	f1dd	BNE	A: 24	X: 3	Y: 47	SP: fd
f1dd	2007	STA	A: 24	X: 3	Y: 47	SP: fd
f1e0	0	DEY	A: 24	X: 3	Y: 47	SP: fd
f1e1	f1dd	BNE	A: 24	X: 3	Y: 46	SP: fd
f1dd	2007	STA	A: 24	X: 3	Y: 46	SP: fd
f1e0	0	DEY	A: 24	X: 3	Y: 46	SP: fd
f1e1	f1dd	BNE	A: 24	X: 3	Y: 45	SP: fd
f1dd	2007	STA	A: 24	X: 3	Y: 45	SP: fd
f1e0	0	DEY	A: 24	X: 3	Y: 45	SP: fd
f1e1	f1dd	BNE	A: 24	X: 3	Y: 44	SP: fd
f1dd	2007	STA	A: 24	X: 3	Y: 44	SP: fd
f1e0	0	DEY	A: 24	X: 3	Y: 44	SP: fd
f1e1	f1dd	BNE	A: 24	X: 3	Y: 43	SP: fd
f1dd	2007	STA	A: 24	X: 3	Y: 43	SP: fd
f1e0	0	DEY	A: 24	X: 3	Y: 43	SP: fd
f1e1	f1dd	BNE	A: 24	X: 3	Y: 42	SP: fd
f1dd	2007	STA	A: 24	X: 3	Y: 42	SP: fd
f1e0	0	DEY	A: 24	X: 3	Y: 42	SP: fd
f1e1	f1dd	BNE	A: 24	X: 3	Y: 41	SP: fd
f1dd	2007	STA	A: 24	X: 3	Y: 41	SP: fd
f1e0	0	DEY	A: 24	X: 3	Y: 41	SP: fd
f1e1	f1dd	BNE	A: 24	X: 3	Y: 40	SP: fd
f1dd	2007	STA	A: 24	X: 3	Y: 40	SP: fd
f1e0	0	DEY	A: 24	X: 3	Y: 40	SP: fd
f1e1	f1dd	BNE	A: 24	X: 3	Y: 3f	SP: fd
f1dd	2007	STA	A: 24	X: 3	Y: 3f	SP: fd
f1e0	0	DEY	A: 24	X: 3	Y: 3f	SP: fd
f1e1	f1dd	BNE	A: 24	X: 3	Y: 3e	SP: fd
f1dd	2007	STA	A: 24	X: 3	Y: 3e	SP: fd
f1e0	0	DEY	A: 24	X: 3	Y: 3e	SP: fd
f1e1	f1dd	BNE	A: 24	X: 3	Y: 3d	SP: fd
f1dd	2007	STA	A: 24	X: 3	Y: 3d	SP: fd
f1e0	0	DEY	A: 24	X: 3	Y: 3d	SP: fd
f1e1	f1dd	BNE	A: 24	X: 3	Y: 3c	SP: fd
f1dd	2007	STA	A: 24	X: 3	Y: 3c	SP: fd
f1e0	0	DEY	A: 24	X: 3	Y: 3c	SP: fd
f1e1	f1dd	BNE	A: 24	X: 3	Y: 3b	SP: fd
f1dd	2007	STA	A: 24	X: 3	Y: 3b	SP: fd
f1e0	0	DEY	A: 24	X: 3	Y: 3b	SP: fd
f1e1	f1dd	BNE	A: 24	X: 3	Y: 3a	SP: fd
f1dd	2007	STA	A: 24	X: 3	Y: 3a	SP: fd
f1e0	0	DEY	A: 24	X: 3	Y: 3a	SP: fd
f1e1	f1dd	BNE	A: 24	X: 3	Y: 39	SP: fd
f1dd	2007	STA	A: 24	X: 3	Y: 39	SP: fd
f1e0	0	DEY	A: 24	X: 3	Y: 39	SP: fd
f1e1	f1dd	BNE	A: 24	X: 3	Y: 38	SP: fd
f1dd	2007	STA	A: 24	X: 3	Y: 38	SP: fd
f1e0	0	DEY	A: 24	X: 3	Y: 38	SP: fd
f1e1	f1dd	BNE	A: 24	X: 3	Y: 37	SP: fd
f1dd	2007	STA	A: 24	X: 3	Y: 37	SP: fd
f1e0	0	DEY	A: 24	X: 3	Y: 37	SP: fd
f1e1	f1dd	BNE	A: 24	X: 3	Y: 36	SP: fd
f1dd	2007	STA	A: 24	X: 3	Y: 36	SP: fd
f1e0	0	DEY	A: 24	X: 3	Y: 36	SP: fd
f1e1	f1dd	BNE	A: 24	X: 3	Y: 35	SP: fd
f1dd	2007	STA	A: 24	X: 3	Y: 35	SP: fd
f1e0	0	DEY	A: 24	X: 3	Y: 35	SP: fd
f1e1	f1dd	BNE	A: 24	X: 3	Y: 34	SP: fd
f1dd	2007	STA	A: 24	X: 3	Y: 34	SP: fd
f1e0	0	DEY	A: 24	X: 3	Y: 34	SP: fd
f1e1	f1dd	BNE	A: 24	X: 3	Y: 33	SP: fd
f1dd	2007	STA	A: 24	X: 3	Y: 33	SP: fd
f1e0	0	DEY	A: 24	X: 3	Y: 33	SP: fd
f1e1	f1dd	BNE	A: 24	X: 3	Y: 32	SP: fd
f1dd	2007	STA	A: 24	X: 3	Y: 32	SP: fd
f1e0	0	DEY	A: 24	X: 3	Y: 32	SP: fd
f1e1	f1dd	BNE	A: 24	X: 3	Y: 31	SP: fd
f1dd	2007	STA	A: 24	X: 3	Y: 31	SP: fd
f1e0	0	DEY	A: 24	X: 3	Y: 31	SP: fd
f1e1	f1dd	BNE	A: 24	X: 3	Y: 30	SP: fd
f1dd	2007	STA	A: 24	X: 3	Y: 30	SP: fd
f1e0	0	DEY	A: 24	X: 3	Y: 30	SP: fd
f1e1	f1dd	BNE	A: 24	X: 3	Y: 2f	SP: fd
f1dd	2007	STA	A: 24	X: 3	Y: 2f	SP: fd
f1e0	0	DEY	A: 24	X: 3	Y: 2f	SP: fd
f1e1	f1dd	BNE	A: 24	X: 3	Y: 2e	SP: fd
f1dd	2007	STA	A: 24	X: 3	Y: 2e	SP: fd
f1e0	0	DEY	A: 24	X: 3	Y: 2e	SP: fd
f1e1	f1dd	BNE	A: 24	X: 3	Y: 2d	SP: fd
f1dd	2007	STA	A: 24	X: 3	Y: 2d	SP: fd
f1e0	0	DEY	A: 24	X: 3	Y: 2d	SP: fd
f1e1	f1dd	BNE	A: 24	X: 3	Y: 2c	SP: fd
f1dd	2007	STA	A: 24	X: 3	Y: 2c	SP: fd
f1e0	0	DEY	A: 24	X: 3	Y: 2c	SP: fd
f1e1	f1dd	BNE	A: 24	X: 3	Y: 2b	SP: fd
f1dd	2007	STA	A: 24	X: 3	Y: 2b	SP: fd
f1e0	0	DEY	A: 24	X: 3	Y: 2b	SP: fd
f1e1	f1dd	BNE	A: 24	X: 3	Y: 2a	SP: fd
f1dd	2007	STA	A: 24	X: 3	Y: 2a	SP: fd
f1e0	0	DEY	A: 24	X: 3	Y: 2a	SP: fd
f1e1	f1dd	BNE	A: 24	X: 3	Y: 29	SP: fd
f1dd	2007	STA	A: 24	X: 3	Y: 29	SP: fd
f1e0	0	DEY	A: 24	X: 3	Y: 29	SP: fd
f1e1	f1dd	BNE	A: 24	X: 3	Y: 28	SP: fd
f1dd	2007	STA	A: 24	X: 3	Y: 28	SP: fd
f1e0	0	DEY	A: 24	X: 3	Y: 28	SP: fd
f1e1	f1dd	BNE	A: 24	X: 3	Y: 27	SP: fd
f1dd	2007	STA	A: 24	X: 3	Y: 27	SP: fd
f1e0	0	DEY	A: 24	X: 3	Y: 27	SP: fd
f1e1	f1dd	BNE	A: 24	X: 3	Y: 26	SP: fd
f1dd	2007	STA	A: 24	X: 3	Y: 26	SP: fd
f1e0	0	DEY	A: 24	X: 3	Y: 26	SP: fd
f1e1	f1dd	BNE	A: 24	X: 3	Y: 25	SP: fd
f1dd	2007	STA	A: 24	X: 3	Y: 25	SP: fd
f1e0	0	DEY	A: 24	X: 3	Y: 25	SP: fd
f1e1	f1dd	BNE	A: 24	X: 3	Y: 24	SP: fd
f1dd	2007	STA	A: 24	X: 3	Y: 24	SP: fd
f1e0	0	DEY	A: 24	X: 3	Y: 24	SP: fd
f1e1	f1dd	BNE	A: 24	X: 3	Y: 23	SP: fd
f1dd	2007	STA	A: 24	X: 3	Y: 23	SP: fd
f1e0	0	DEY	A: 24	X: 3	Y: 23	SP: fd
f1e1	f1dd	BNE	A: 24	X: 3	Y: 22	SP: fd
f1dd	2007	STA	A: 24	X: 3	Y: 22	SP: fd
f1e0	0	DEY	A: 24	X: 3	Y: 22	SP: fd
f1e1	f1dd	BNE	A: 24	X: 3	Y: 21	SP: fd
f1dd	2007	STA	A: 24	X: 3	Y: 21	SP: fd
f1e0	0	DEY	A: 24	X: 3	Y: 21	SP: fd
f1e1	f1dd	BNE	A: 24	X: 3	Y: 20	SP: fd
f1dd	2007	STA	A: 24	X: 3	Y: 20	SP: fd
f1e0	0	DEY	A: 24	X: 3	Y: 20	SP: fd
f1e1	f1dd	BNE	A: 24	X: 3	Y: 1f	SP: fd
f1dd	2007	STA	A: 24	X: 3	Y: 1f	SP: fd
f1e0	0	DEY	A: 24	X: 3	Y: 1f	SP: fd
f1e1	f1dd	BNE	A: 24	X: 3	Y: 1e	SP: fd
f1dd	2007	STA	A: 24	X: 3	Y: 1e	SP: fd
f1e0	0	DEY	A: 24	X: 3	Y: 1e	SP: fd
f1e1	f1dd	BNE	A: 24	X: 3	Y: 1d	SP: fd
f1dd	2007	STA	A: 24	X: 3	Y: 1d	SP: fd
f1e0	0	DEY	A: 24	X: 3	Y: 1d	SP: fd
f1e1	f1dd	BNE	A: 24	X: 3	Y: 1c	SP: fd
f1dd	2007	STA	A: 24	X: 3	Y: 1c	SP: fd
f1e0	0	DEY	A: 24	X: 3	Y: 1c	SP: fd
f1e1	f1dd	BNE	A: 24	X: 3	Y: 1b	SP: fd
f1dd	2007	STA	A: 24	X: 3	Y: 1b	SP: fd
f1e0	0	DEY	A: 24	X: 3	Y: 1b	SP: fd
f1e1	f1dd	BNE	A: 24	X: 3	Y: 1a	SP: fd
f1dd	2007	STA	A: 24	X: 3	Y: 1a	SP: fd
f1e0	0	DEY	A: 24	X: 3	Y: 1a	SP: fd
f1e1	f1dd	BNE	A: 24	X: 3	Y: 19	SP: fd
f1dd	2007	STA	A: 24	X: 3	Y: 19	SP: fd
f1e0	0	DEY	A: 24	X: 3	Y: 19	SP: fd
f1e1	f1dd	BNE	A: 24	X: 3	Y: 18	SP: fd
f1dd	2007	STA	A: 24	X: 3	Y: 18	SP: fd
f1e0	0	DEY	A: 24	X: 3	Y: 18	SP: fd
f1e1	f1dd	BNE	A: 24	X: 3	Y: 17	SP: fd
f1dd	2007	STA	A: 24	X: 3	Y: 17	SP: fd
f1e0	0	DEY	A: 24	X: 3	Y: 17	SP: fd
f1e1	f1dd	BNE	A: 24	X: 3	Y: 16	SP: fd
f1dd	2007	STA	A: 24	X: 3	Y: 16	SP: fd
f1e0	0	DEY	A: 24	X: 3	Y: 16	SP: fd
f1e1	f1dd	BNE	A: 24	X: 3	Y: 15	SP: fd
f1dd	2007	STA	A: 24	X: 3	Y: 15	SP: fd
f1e0	0	DEY	A: 24	X: 3	Y: 15	SP: fd
f1e1	f1dd	BNE	A: 24	X: 3	Y: 14	SP: fd
f1dd	2007	STA	A: 24	X: 3	Y: 14	SP: fd
f1e0	0	DEY	A: 24	X: 3	Y: 14	SP: fd
f1e1	f1dd	BNE	A: 24	X: 3	Y: 13	SP: fd
f1dd	2007	STA	A: 24	X: 3	Y: 13	SP: fd
f1e0	0	DEY	A: 24	X: 3	Y: 13	SP: fd
f1e1	f1dd	BNE	A: 24	X: 3	Y: 12	SP: fd
f1dd	2007	STA	A: 24	X: 3	Y: 12	SP: fd
f1e0	0	DEY	A: 24	X: 3	Y: 12	SP: fd
f1e1	f1dd	BNE	A: 24	X: 3	Y: 11	SP: fd
f1dd	2007	STA	A: 24	X: 3	Y: 11	SP: fd
f1e0	0	DEY	A: 24	X: 3	Y: 11	SP: fd
f1e1	f1dd	BNE	A: 24	X: 3	Y: 10	SP: fd
f1dd	2007	STA	A: 24	X: 3	Y: 10	SP: fd
f1e0	0	DEY	A: 24	X: 3	Y: 10	SP: fd
f1e1	f1dd	BNE	A: 24	X: 3	Y: f	SP: fd
f1dd	2007	STA	A: 24	X: 3	Y: f	SP: fd
f1e0	0	DEY	A: 24	X: 3	Y: f	SP: fd
f1e1	f1dd	BNE	A: 24	X: 3	Y: e	SP: fd
f1dd	2007	STA	A: 24	X: 3	Y: e	SP: fd
f1e0	0	DEY	A: 24	X: 3	Y: e	SP: fd
f1e1	f1dd	BNE	A: 24	X: 3	Y: d	SP: fd
f1dd	2007	STA	A: 24	X: 3	Y: d	SP: fd
f1e0	0	DEY	A: 24	X: 3	Y: d	SP: fd
f1e1	f1dd	BNE	A: 24	X: 3	Y: c	SP: fd
f1dd	2007	STA	A: 24	X: 3	Y: c	SP: fd
f1e0	0	DEY	A: 24	X: 3	Y: c	SP: fd
f1e1	f1dd	BNE	A: 24	X: 3	Y: b	SP: fd
f1dd	2007	STA	A: 24	X: 3	Y: b	SP: fd
f1e0	0	DEY	A: 24	X: 3	Y: b	SP: fd
f1e1	f1dd	BNE	A: 24	X: 3	Y: a	SP: fd
f1dd	2007	STA	A: 24	X: 3	Y: a	SP: fd
f1e0	0	DEY	A: 24	X: 3	Y: a	SP: fd
f1e1	f1dd	BNE	A: 24	X: 3	Y: 9	SP: fd
f1dd	2007	STA	A: 24	X: 3	Y: 9	SP: fd
f1e0	0	DEY	A: 24	X: 3	Y: 9	SP: fd
f1e1	f1dd	BNE	A: 24	X: 3	Y: 8	SP: fd
f1dd	2007	STA	A: 24	X: 3	Y: 8	SP: fd
f1e0	0	DEY	A: 24	X: 3	Y: 8	SP: fd
f1e1	f1dd	BNE	A: 24	X: 3	Y: 7	SP: fd
f1dd	2007	STA	A: 24	X: 3	Y: 7	SP: fd
f1e0	0	DEY	A: 24	X: 3	Y: 7	SP: fd
f1e1	f1dd	BNE	A: 24	X: 3	Y: 6	SP: fd
f1dd	2007	STA	A: 24	X: 3	Y: 6	SP: fd
f1e0	0	DEY	A: 24	X: 3	Y: 6	SP: fd
f1e1	f1dd	BNE	A: 24	X: 3	Y: 5	SP: fd
f1dd	2007	STA	A: 24	X: 3	Y: 5	SP: fd
f1e0	0	DEY	A: 24	X: 3	Y: 5	SP: fd
f1e1	f1dd	BNE	A: 24	X: 3	Y: 4	SP: fd
f1dd	2007	STA	A: 24	X: 3	Y: 4	SP: fd
f1e0	0	DEY	A: 24	X: 3	Y: 4	SP: fd
f1e1	f1dd	BNE	A: 24	X: 3	Y: 3	SP: fd
f1dd	2007	STA	A: 24	X: 3	Y: 3	SP: fd
f1e0	0	DEY	A: 24	X: 3	Y: 3	SP: fd
f1e1	f1dd	BNE	A: 24	X: 3	Y: 2	SP: fd
f1dd	2007	STA	A: 24	X: 3	Y: 2	SP: fd
f1e0	0	DEY	A: 24	X: 3	Y: 2	SP: fd
f1e1	f1dd	BNE	A: 24	X: 3	Y: 1	SP: fd
f1dd	2007	STA	A: 24	X: 3	Y: 1	SP: fd
f1e0	0	DEY	A: 24	X: 3	Y: 1	SP: fd
f1e1	f1dd	BNE	A: 24	X: 3	Y: 0	SP: fd
f1e3	0	DEX	A: 24	X: 3	Y: 0	SP: fd
f1e4	f1dd	BNE	A: 24	X: 2	Y: 0	SP: fd
f1dd	2007	STA	A: 24	X: 2	Y: 0	SP: fd
f1e0	0	DEY	A: 24	X: 2	Y: 0	SP: fd
f1e1	f1dd	BNE	A: 24	X: 2	Y: ff	SP: fd
f1dd	2007	STA	A: 24	X: 2	Y: ff	SP: fd
f1e0	0	DEY	A: 24	X: 2	Y: ff	SP: fd
f1e1	f1dd	BNE	A: 24	X: 2	Y: fe	SP: fd
f1dd	2007	STA	A: 24	X: 2	Y: fe	SP: fd
f1e0	0	DEY	A: 24	X: 2	Y: fe	SP: fd
f1e1	f1dd	BNE	A: 24	X: 2	Y: fd	SP: fd
f1dd	2007	STA	A: 24	X: 2	Y: fd	SP: fd
f1e0	0	DEY	A: 24	X: 2	Y: fd	SP: fd
f1e1	f1dd	BNE	A: 24	X: 2	Y: fc	SP: fd
f1dd	2007	STA	A: 24	X: 2	Y: fc	SP: fd
f1e0	0	DEY	A: 24	X: 2	Y: fc	SP: fd
f1e1	f1dd	BNE	A: 24	X: 2	Y: fb	SP: fd
f1dd	2007	STA	A: 24	X: 2	Y: fb	SP: fd
f1e0	0	DEY	A: 24	X: 2	Y: fb	SP: fd
f1e1	f1dd	BNE	A: 24	X: 2	Y: fa	SP: fd
f1dd	2007	STA	A: 24	X: 2	Y: fa	SP: fd
f1e0	0	DEY	A: 24	X: 2	Y: fa	SP: fd
f1e1	f1dd	BNE	A: 24	X: 2	Y: f9	SP: fd
f1dd	2007	STA	A: 24	X: 2	Y: f9	SP: fd
f1e0	0	DEY	A: 24	X: 2	Y: f9	SP: fd
f1e1	f1dd	BNE	A: 24	X: 2	Y: f8	SP: fd
f1dd	2007	STA	A: 24	X: 2	Y: f8	SP: fd
f1e0	0	DEY	A: 24	X: 2	Y: f8	SP: fd
f1e1	f1dd	BNE	A: 24	X: 2	Y: f7	SP: fd
f1dd	2007	STA	A: 24	X: 2	Y: f7	SP: fd
f1e0	0	DEY	A: 24	X: 2	Y: f7	SP: fd
f1e1	f1dd	BNE	A: 24	X: 2	Y: f6	SP: fd
f1dd	2007	STA	A: 24	X: 2	Y: f6	SP: fd
f1e0	0	DEY	A: 24	X: 2	Y: f6	SP: fd
f1e1	f1dd	BNE	A: 24	X: 2	Y: f5	SP: fd
f1dd	2007	STA	A: 24	X: 2	Y: f5	SP: fd
f1e0	0	DEY	A: 24	X: 2	Y: f5	SP: fd
f1e1	f1dd	BNE	A: 24	X: 2	Y: f4	SP: fd
f1dd	2007	STA	A: 24	X: 2	Y: f4	SP: fd
f1e0	0	DEY	A: 24	X: 2	Y: f4	SP: fd
f1e1	f1dd	BNE	A: 24	X: 2	Y: f3	SP: fd
f1dd	2007	STA	A: 24	X: 2	Y: f3	SP: fd
f1e0	0	DEY	A: 24	X: 2	Y: f3	SP: fd
f1e1	f1dd	BNE	A: 24	X: 2	Y: f2	SP: fd
f1dd	2007	STA	A: 24	X: 2	Y: f2	SP: fd
f1e0	0	DEY	A: 24	X: 2	Y: f2	SP: fd
f1e1	f1dd	BNE	A: 24	X: 2	Y: f1	SP: fd
f1dd	2007	STA	A: 24	X: 2	Y: f1	SP: fd
f1e0	0	DEY	A: 24	X: 2	Y: f1	SP: fd
f1e1	f1dd	BNE	A: 24	X: 2	Y: f0	SP: fd
f1dd	2007	STA	A: 24	X: 2	Y: f0	SP: fd
f1e0	0	DEY	A: 24	X: 2	Y: f0	SP: fd
f1e1	f1dd	BNE	A: 24	X: 2	Y: ef	SP: fd
f1dd	2007	STA	A: 24	X: 2	Y: ef	SP: fd
f1e0	0	DEY	A: 24	X: 2	Y: ef	SP: fd
f1e1	f1dd	BNE	A: 24	X: 2	Y: ee	SP: fd
f1dd	2007	STA	A: 24	X: 2	Y: ee	SP: fd
f1e0	0	DEY	A: 24	X: 2	Y: ee	SP: fd
f1e1	f1dd	BNE	A: 24	X: 2	Y: ed	SP: fd
f1dd	2007	STA	A: 24	X: 2	Y: ed	SP: fd
f1e0	0	DEY	A: 24	X: 2	Y: ed	SP: fd
f1e1	f1dd	BNE	A: 24	X: 2	Y: ec	SP: fd
f1dd	2007	STA	A: 24	X: 2	Y: ec	SP: fd
f1e0	0	DEY	A: 24	X: 2	Y: ec	SP: fd
f1e1	f1dd	BNE	A: 24	X: 2	Y: eb	SP: fd
f1dd	2007	STA	A: 24	X: 2	Y: eb	SP: fd
f1e0	0	DEY	A: 24	X: 2	Y: eb	SP: fd
f1e1	f1dd	BNE	A: 24	X: 2	Y: ea	SP: fd
f1dd	2007	STA	A: 24	X: 2	Y: ea	SP: fd
f1e0	0	DEY	A: 24	X: 2	Y: ea	SP: fd
f1e1	f1dd	BNE	A: 24	X: 2	Y: e9	SP: fd
f1dd	2007	STA	A: 24	X: 2	Y: e9	SP: fd
f1e0	0	DEY	A: 24	X: 2	Y: e9	SP: fd
f1e1	f1dd	BNE	A: 24	X: 2	Y: e8	SP: fd
f1dd	2007	STA	A: 24	X: 2	Y: e8	SP: fd
f1e0	0	DEY	A: 24	X: 2	Y: e8	SP: fd
f1e1	f1dd	BNE	A: 24	X: 2	Y: e7	SP: fd
f1dd	2007	STA	A: 24	X: 2	Y: e7	SP: fd
f1e0	0	DEY	A: 24	X: 2	Y: e7	SP: fd
f1e1	f1dd	BNE	A: 24	X: 2	Y: e6	SP: fd
f1dd	2007	STA	A: 24	X: 2	Y: e6	SP: fd
f1e0	0	DEY	A: 24	X: 2	Y: e6	SP: fd
f1e1	f1dd	BNE	A: 24	X: 2	Y: e5	SP: fd
f1dd	2007	STA	A: 24	X: 2	Y: e5	SP: fd
f1e0	0	DEY	A: 24	X: 2	Y: e5	SP: fd
f1e1	f1dd	BNE	A: 24	X: 2	Y: e4	SP: fd
f1dd	2007	STA	A: 24	X: 2	Y: e4	SP: fd
f1e0	0	DEY	A: 24	X: 2	Y: e4	SP: fd
f1e1	f1dd	BNE	A: 24	X: 2	Y: e3	SP: fd
f1dd	2007	STA	A: 24	X: 2	Y: e3	SP: fd
f1e0	0	DEY	A: 24	X: 2	Y: e3	SP: fd
f1e1	f1dd	BNE	A: 24	X: 2	Y: e2	SP: fd
f1dd	2007	STA	A: 24	X: 2	Y: e2	SP: fd
f1e0	0	DEY	A: 24	X: 2	Y: e2	SP: fd
f1e1	f1dd	BNE	A: 24	X: 2	Y: e1	SP: fd
f1dd	2007	STA	A: 24	X: 2	Y: e1	SP: fd
f1e0	0	DEY	A: 24	X: 2	Y: e1	SP: fd
f1e1	f1dd	BNE	A: 24	X: 2	Y: e0	SP: fd
f1dd	2007	STA	A: 24	X: 2	Y: e0	SP: fd
f1e0	0	DEY	A: 24	X: 2	Y: e0	SP: fd
f1e1	f1dd	BNE	A: 24	X: 2	Y: df	SP: fd
f1dd	2007	STA	A: 24	X: 2	Y: df	SP: fd
f1e0	0	DEY	A: 24	X: 2	Y: df	SP: fd
f1e1	f1dd	BNE	A: 24	X: 2	Y: de	SP: fd
f1dd	2007	STA	A: 24	X: 2	Y: de	SP: fd
f1e0	0	DEY	A: 24	X: 2	Y: de	SP: fd
f1e1	f1dd	BNE	A: 24	X: 2	Y: dd	SP: fd
f1dd	2007	STA	A: 24	X: 2	Y: dd	SP: fd
f1e0	0	DEY	A: 24	X: 2	Y: dd	SP: fd
f1e1	f1dd	BNE	A: 24	X: 2	Y: dc	SP: fd
f1dd	2007	STA	A: 24	X: 2	Y: dc	SP: fd
f1e0	0	DEY	A: 24	X: 2	Y: dc	SP: fd
f1e1	f1dd	BNE	A: 24	X: 2	Y: db	SP: fd
f1dd	2007	STA	A: 24	X: 2	Y: db	SP: fd
f1e0	0	DEY	A: 24	X: 2	Y: db	SP: fd
f1e1	f1dd	BNE	A: 24	X: 2	Y: da	SP: fd
f1dd	2007	STA	A: 24	X: 2	Y: da	SP: fd
f1e0	0	DEY	A: 24	X: 2	Y: da	SP: fd
f1e1	f1dd	BNE	A: 24	X: 2	Y: d9	SP: fd
f1dd	2007	STA	A: 24	X: 2	Y: d9	SP: fd
f1e0	0	DEY	A: 24	X: 2	Y: d9	SP: fd
f1e1	f1dd	BNE	A: 24	X: 2	Y: d8	SP: fd
f1dd	2007	STA	A: 24	X: 2	Y: d8	SP: fd
f1e0	0	DEY	A: 24	X: 2	Y: d8	SP: fd
f1e1	f1dd	BNE	A: 24	X: 2	Y: d7	SP: fd
f1dd	2007	STA	A: 24	X: 2	Y: d7	SP: fd
f1e0	0	DEY	A: 24	X: 2	Y: d7	SP: fd
f1e1	f1dd	BNE	A: 24	X: 2	Y: d6	SP: fd
f1dd	2007	STA	A: 24	X: 2	Y: d6	SP: fd
f1e0	0	DEY	A: 24	X: 2	Y: d6	SP: fd
f1e1	f1dd	BNE	A: 24	X: 2	Y: d5	SP: fd
f1dd	2007	STA	A: 24	X: 2	Y: d5	SP: fd
f1e0	0	DEY	A: 24	X: 2	Y: d5	SP: fd
f1e1	f1dd	BNE	A: 24	X: 2	Y: d4	SP: fd
f1dd	2007	STA	A: 24	X: 2	Y: d4	SP: fd
f1e0	0	DEY	A: 24	X: 2	Y: d4	SP: fd
f1e1	f1dd	BNE	A: 24	X: 2	Y: d3	SP: fd
f1dd	2007	STA	A: 24	X: 2	Y: d3	SP: fd
f1e0	0	DEY	A: 24	X: 2	Y: d3	SP: fd
f1e1	f1dd	BNE	A: 24	X: 2	Y: d2	SP: fd
f1dd	2007	STA	A: 24	X: 2	Y: d2	SP: fd
f1e0	0	DEY	A: 24	X: 2	Y: d2	SP: fd
f1e1	f1dd	BNE	A: 24	X: 2	Y: d1	SP: fd
f1dd	2007	STA	A: 24	X: 2	Y: d1	SP: fd
f1e0	0	DEY	A: 24	X: 2	Y: d1	SP: fd
f1e1	f1dd	BNE	A: 24	X: 2	Y: d0	SP: fd
f1dd	2007	STA	A: 24	X: 2	Y: d0	SP: fd
f1e0	0	DEY	A: 24	X: 2	Y: d0	SP: fd
f1e1	f1dd	BNE	A: 24	X: 2	Y: cf	SP: fd
f1dd	2007	STA	A: 24	X: 2	Y: cf	SP: fd
f1e0	0	DEY	A: 24	X: 2	Y: cf	SP: fd
f1e1	f1dd	BNE	A: 24	X: 2	Y: ce	SP: fd
f1dd	2007	STA	A: 24	X: 2	Y: ce	SP: fd
f1e0	0	DEY	A: 24	X: 2	Y: ce	SP: fd
f1e1	f1dd	BNE	A: 24	X: 2	Y: cd	SP: fd
f1dd	2007	STA	A: 24	X: 2	Y: cd	SP: fd
f1e0	0	DEY	A: 24	X: 2	Y: cd	SP: fd
f1e1	f1dd	BNE	A: 24	X: 2	Y: cc	SP: fd
f1dd	2007	STA	A: 24	X: 2	Y: cc	SP: fd
f1e0	0	DEY	A: 24	X: 2	Y: cc	SP: fd
f1e1	f1dd	BNE	A: 24	X: 2	Y: cb	SP: fd
f1dd	2007	STA	A: 24	X: 2	Y: cb	SP: fd
f1e0	0	DEY	A: 24	X: 2	Y: cb	SP: fd
f1e1	f1dd	BNE	A: 24	X: 2	Y: ca	SP: fd
f1dd	2007	STA	A: 24	X: 2	Y: ca	SP: fd
f1e0	0	DEY	A: 24	X: 2	Y: ca	SP: fd
f1e1	f1dd	BNE	A: 24	X: 2	Y: c9	SP: fd
f1dd	2007	STA	A: 24	X: 2	Y: c9	SP: fd
f1e0	0	DEY	A: 24	X: 2	Y: c9	SP: fd
f1e1	f1dd	BNE	A: 24	X: 2	Y: c8	SP: fd
f1dd	2007	STA	A: 24	X: 2	Y: c8	SP: fd
f1e0	0	DEY	A: 24	X: 2	Y: c8	SP: fd
f1e1	f1dd	BNE	A: 24	X: 2	Y: c7	SP: fd
f1dd	2007	STA	A: 24	X: 2	Y: c7	SP: fd
f1e0	0	DEY	A: 24	X: 2	Y: c7	SP: fd
f1e1	f1dd	BNE	A: 24	X: 2	Y: c6	SP: fd
f1dd	2007	STA	A: 24	X: 2	Y: c6	SP: fd
f1e0	0	DEY	A: 24	X: 2	Y: c6	SP: fd
f1e1	f1dd	BNE	A: 24	X: 2	Y: c5	SP: fd
f1dd	2007	STA	A: 24	X: 2	Y: c5	SP: fd
f1e0	0	DEY	A: 24	X: 2	Y: c5	SP: fd
f1e1	f1dd	BNE	A: 24	X: 2	Y: c4	SP: fd
f1dd	2007	STA	A: 24	X: 2	Y: c4	SP: fd
f1e0	0	DEY	A: 24	X: 2	Y: c4	SP: fd
f1e1	f1dd	BNE	A: 24	X: 2	Y: c3	SP: fd
f1dd	2007	STA	A: 24	X: 2	Y: c3	SP: fd
f1e0	0	DEY	A: 24	X: 2	Y: c3	SP: fd
f1e1	f1dd	BNE	A: 24	X: 2	Y: c2	SP: fd
f1dd	2007	STA	A: 24	X: 2	Y: c2	SP: fd
f1e0	0	DEY	A: 24	X: 2	Y: c2	SP: fd
f1e1	f1dd	BNE	A: 24	X: 2	Y: c1	SP: fd
f1dd	2007	STA	A: 24	X: 2	Y: c1	SP: fd
f1e0	0	DEY	A: 24	X: 2	Y: c1	SP: fd
f1e1	f1dd	BNE	A: 24	X: 2	Y: c0	SP: fd
f1dd	2007	STA	A: 24	X: 2	Y: c0	SP: fd
f1e0	0	DEY	A: 24	X: 2	Y: c0	SP: fd
f1e1	f1dd	BNE	A: 24	X: 2	Y: bf	SP: fd
f1dd	2007	STA	A: 24	X: 2	Y: bf	SP: fd
f1e0	0	DEY	A: 24	X: 2	Y: bf	SP: fd
f1e1	f1dd	BNE	A: 24	X: 2	Y: be	SP: fd
f1dd	2007	STA	A: 24	X: 2	Y: be	SP: fd
f1e0	0	DEY	A: 24	X: 2	Y: be	SP: fd
f1e1	f1dd	BNE	A: 24	X: 2	Y: bd	SP: fd
f1dd	2007	STA	A: 24	X: 2	Y: bd	SP: fd
f1e0	0	DEY	A: 24	X: 2	Y: bd	SP: fd
f1e1	f1dd	BNE	A: 24	X: 2	Y: bc	SP: fd
f1dd	2007	STA	A: 24	X: 2	Y: bc	SP: fd
f1e0	0	DEY	A: 24	X: 2	Y: bc	SP: fd
f1e1	f1dd	BNE	A: 24	X: 2	Y: bb	SP: fd
f1dd	2007	STA	A: 24	X: 2	Y: bb	SP: fd
f1e0	0	DEY	A: 24	X: 2	Y: bb	SP: fd
f1e1	f1dd	BNE	A: 24	X: 2	Y: ba	SP: fd
f1dd	2007	STA	A: 24	X: 2	Y: ba	SP: fd
f1e0	0	DEY	A: 24	X: 2	Y: ba	SP: fd
f1e1	f1dd	BNE	A: 24	X: 2	Y: b9	SP: fd
f1dd	2007	STA	A: 24	X: 2	Y: b9	SP: fd
f1e0	0	DEY	A: 24	X: 2	Y: b9	SP: fd
f1e1	f1dd	BNE	A: 24	X: 2	Y: b8	SP: fd
f1dd	2007	STA	A: 24	X: 2	Y: b8	SP: fd
f1e0	0	DEY	A: 24	X: 2	Y: b8	SP: fd
f1e1	f1dd	BNE	A: 24	X: 2	Y: b7	SP: fd
f1dd	2007	STA	A: 24	X: 2	Y: b7	SP: fd
f1e0	0	DEY	A: 24	X: 2	Y: b7	SP: fd
f1e1	f1dd	BNE	A: 24	X: 2	Y: b6	SP: fd
f1dd	2007	STA	A: 24	X: 2	Y: b6	SP: fd
f1e0	0	DEY	A: 24	X: 2	Y: b6	SP: fd
f1e1	f1dd	BNE	A: 24	X: 2	Y: b5	SP: fd
f1dd	2007	STA	A: 24	X: 2	Y: b5	SP: fd
f1e0	0	DEY	A: 24	X: 2	Y: b5	SP: fd
f1e1	f1dd	BNE	A: 24	X: 2	Y: b4	SP: fd
f1dd	2007	STA	A: 24	X: 2	Y: b4	SP: fd
f1e0	0	DEY	A: 24	X: 2	Y: b4	SP: fd
f1e1	f1dd	BNE	A: 24	X: 2	Y: b3	SP: fd
f1dd	2007	STA	A: 24	X: 2	Y: b3	SP: fd
f1e0	0	DEY	A: 24	X: 2	Y: b3	SP: fd
f1e1	f1dd	BNE	A: 24	X: 2	Y: b2	SP: fd
f1dd	2007	STA	A: 24	X: 2	Y: b2	SP: fd
f1e0	0	DEY	A: 24	X: 2	Y: b2	SP: fd
f1e1	f1dd	BNE	A: 24	X: 2	Y: b1	SP: fd
f1dd	2007	STA	A: 24	X: 2	Y: b1	SP: fd
f1e0	0	DEY	A: 24	X: 2	Y: b1	SP: fd
f1e1	f1dd	BNE	A: 24	X: 2	Y: b0	SP: fd
f1dd	2007	STA	A: 24	X: 2	Y: b0	SP: fd
f1e0	0	DEY	A: 24	X: 2	Y: b0	SP: fd
f1e1	f1dd	BNE	A: 24	X: 2	Y: af	SP: fd
f1dd	2007	STA	A: 24	X: 2	Y: af	SP: fd
f1e0	0	DEY	A: 24	X: 2	Y: af	SP: fd
f1e1	f1dd	BNE	A: 24	X: 2	Y: ae	SP: fd
f1dd	2007	STA	A: 24	X: 2	Y: ae	SP: fd
f1e0	0	DEY	A: 24	X: 2	Y: ae	SP: fd
f1e1	f1dd	BNE	A: 24	X: 2	Y: ad	SP: fd
f1dd	2007	STA	A: 24	X: 2	Y: ad	SP: fd
f1e0	0	DEY	A: 24	X: 2	Y: ad	SP: fd
f1e1	f1dd	BNE	A: 24	X: 2	Y: ac	SP: fd
f1dd	2007	STA	A: 24	X: 2	Y: ac	SP: fd
f1e0	0	DEY	A: 24	X: 2	Y: ac	SP: fd
f1e1	f1dd	BNE	A: 24	X: 2	Y: ab	SP: fd
f1dd	2007	STA	A: 24	X: 2	Y: ab	SP: fd
f1e0	0	DEY	A: 24	X: 2	Y: ab	SP: fd
f1e1	f1dd	BNE	A: 24	X: 2	Y: aa	SP: fd
f1dd	2007	STA	A: 24	X: 2	Y: aa	SP: fd
f1e0	0	DEY	A: 24	X: 2	Y: aa	SP: fd
f1e1	f1dd	BNE	A: 24	X: 2	Y: a9	SP: fd
f1dd	2007	STA	A: 24	X: 2	Y: a9	SP: fd
f1e0	0	DEY	A: 24	X: 2	Y: a9	SP: fd
f1e1	f1dd	BNE	A: 24	X: 2	Y: a8	SP: fd
f1dd	2007	STA	A: 24	X: 2	Y: a8	SP: fd
f1e0	0	DEY	A: 24	X: 2	Y: a8	SP: fd
f1e1	f1dd	BNE	A: 24	X: 2	Y: a7	SP: fd
f1dd	2007	STA	A: 24	X: 2	Y: a7	SP: fd
f1e0	0	DEY	A: 24	X: 2	Y: a7	SP: fd
f1e1	f1dd	BNE	A: 24	X: 2	Y: a6	SP: fd
f1dd	2007	STA	A: 24	X: 2	Y: a6	SP: fd
f1e0	0	DEY	A: 24	X: 2	Y: a6	SP: fd
f1e1	f1dd	BNE	A: 24	X: 2	Y: a5	SP: fd
f1dd	2007	STA	A: 24	X: 2	Y: a5	SP: fd
f1e0	0	DEY	A: 24	X: 2	Y: a5	SP: fd
f1e1	f1dd	BNE	A: 24	X: 2	Y: a4	SP: fd
f1dd	2007	STA	A: 24	X: 2	Y: a4	SP: fd
f1e0	0	DEY	A: 24	X: 2	Y: a4	SP: fd
f1e1	f1dd	BNE	A: 24	X: 2	Y: a3	SP: fd
f1dd	2007	STA	A: 24	X: 2	Y: a3	SP: fd
f1e0	0	DEY	A: 24	X: 2	Y: a3	SP: fd
f1e1	f1dd	BNE	A: 24	X: 2	Y: a2	SP: fd
f1dd	2007	STA	A: 24	X: 2	Y: a2	SP: fd
f1e0	0	DEY	A: 24	X: 2	Y: a2	SP: fd
f1e1	f1dd	BNE	A: 24	X: 2	Y: a1	SP: fd
f1dd	2007	STA	A: 24	X: 2	Y: a1	SP: fd
f1e0	0	DEY	A: 24	X: 2	Y: a1	SP: fd
f1e1	f1dd	BNE	A: 24	X: 2	Y: a0	SP: fd
f1dd	2007	STA	A: 24	X: 2	Y: a0	SP: fd
f1e0	0	DEY	A: 24	X: 2	Y: a0	SP: fd
f1e1	f1dd	BNE	A: 24	X: 2	Y: 9f	SP: fd
f1dd	2007	STA	A: 24	X: 2	Y: 9f	SP: fd
f1e0	0	DEY	A: 24	X: 2	Y: 9f	SP: fd
f1e1	f1dd	BNE	A: 24	X: 2	Y: 9e	SP: fd
f1dd	2007	STA	A: 24	X: 2	Y: 9e	SP: fd
f1e0	0	DEY	A: 24	X: 2	Y: 9e	SP: fd
f1e1	f1dd	BNE	A: 24	X: 2	Y: 9d	SP: fd
f1dd	2007	STA	A: 24	X: 2	Y: 9d	SP: fd
f1e0	0	DEY	A: 24	X: 2	Y: 9d	SP: fd
f1e1	f1dd	BNE	A: 24	X: 2	Y: 9c	SP: fd
f1dd	2007	STA	A: 24	X: 2	Y: 9c	SP: fd
f1e0	0	DEY	A: 24	X: 2	Y: 9c	SP: fd
f1e1	f1dd	BNE	A: 24	X: 2	Y: 9b	SP: fd
f1dd	2007	STA	A: 24	X: 2	Y: 9b	SP: fd
f1e0	0	DEY	A: 24	X: 2	Y: 9b	SP: fd
f1e1	f1dd	BNE	A: 24	X: 2	Y: 9a	SP: fd
f1dd	2007	STA	A: 24	X: 2	Y: 9a	SP: fd
f1e0	0	DEY	A: 24	X: 2	Y: 9a	SP: fd
f1e1	f1dd	BNE	A: 24	X: 2	Y: 99	SP: fd
f1dd	2007	STA	A: 24	X: 2	Y: 99	SP: fd
f1e0	0	DEY	A: 24	X: 2	Y: 99	SP: fd
f1e1	f1dd	BNE	A: 24	X: 2	Y: 98	SP: fd
f1dd	2007	STA	A: 24	X: 2	Y: 98	SP: fd
f1e0	0	DEY	A: 24	X: 2	Y: 98	SP: fd
f1e1	f1dd	BNE	A: 24	X: 2	Y: 97	SP: fd
f1dd	2007	STA	A: 24	X: 2	Y: 97	SP: fd
f1e0	0	DEY	A: 24	X: 2	Y: 97	SP: fd
f1e1	f1dd	BNE	A: 24	X: 2	Y: 96	SP: fd
f1dd	2007	STA	A: 24	X: 2	Y: 96	SP: fd
f1e0	0	DEY	A: 24	X: 2	Y: 96	SP: fd
f1e1	f1dd	BNE	A: 24	X: 2	Y: 95	SP: fd
f1dd	2007	STA	A: 24	X: 2	Y: 95	SP: fd
f1e0	0	DEY	A: 24	X: 2	Y: 95	SP: fd
f1e1	f1dd	BNE	A: 24	X: 2	Y: 94	SP: fd
f1dd	2007	STA	A: 24	X: 2	Y: 94	SP: fd
f1e0	0	DEY	A: 24	X: 2	Y: 94	SP: fd
f1e1	f1dd	BNE	A: 24	X: 2	Y: 93	SP: fd
f1dd	2007	STA	A: 24	X: 2	Y: 93	SP: fd
f1e0	0	DEY	A: 24	X: 2	Y: 93	SP: fd
f1e1	f1dd	BNE	A: 24	X: 2	Y: 92	SP: fd
f1dd	2007	STA	A: 24	X: 2	Y: 92	SP: fd
f1e0	0	DEY	A: 24	X: 2	Y: 92	SP: fd
f1e1	f1dd	BNE	A: 24	X: 2	Y: 91	SP: fd
f1dd	2007	STA	A: 24	X: 2	Y: 91	SP: fd
f1e0	0	DEY	A: 24	X: 2	Y: 91	SP: fd
f1e1	f1dd	BNE	A: 24	X: 2	Y: 90	SP: fd
f1dd	2007	STA	A: 24	X: 2	Y: 90	SP: fd
f1e0	0	DEY	A: 24	X: 2	Y: 90	SP: fd
f1e1	f1dd	BNE	A: 24	X: 2	Y: 8f	SP: fd
f1dd	2007	STA	A: 24	X: 2	Y: 8f	SP: fd
f1e0	0	DEY	A: 24	X: 2	Y: 8f	SP: fd
f1e1	f1dd	BNE	A: 24	X: 2	Y: 8e	SP: fd
f1dd	2007	STA	A: 24	X: 2	Y: 8e	SP: fd
f1e0	0	DEY	A: 24	X: 2	Y: 8e	SP: fd
f1e1	f1dd	BNE	A: 24	X: 2	Y: 8d	SP: fd
f1dd	2007	STA	A: 24	X: 2	Y: 8d	SP: fd
f1e0	0	DEY	A: 24	X: 2	Y: 8d	SP: fd
f1e1	f1dd	BNE	A: 24	X: 2	Y: 8c	SP: fd
f1dd	2007	STA	A: 24	X: 2	Y: 8c	SP: fd
f1e0	0	DEY	A: 24	X: 2	Y: 8c	SP: fd
f1e1	f1dd	BNE	A: 24	X: 2	Y: 8b	SP: fd
f1dd	2007	STA	A: 24	X: 2	Y: 8b	SP: fd
f1e0	0	DEY	A: 24	X: 2	Y: 8b	SP: fd
f1e1	f1dd	BNE	A: 24	X: 2	Y: 8a	SP: fd
f1dd	2007	STA	A: 24	X: 2	Y: 8a	SP: fd
f1e0	0	DEY	A: 24	X: 2	Y: 8a	SP: fd
f1e1	f1dd	BNE	A: 24	X: 2	Y: 89	SP: fd
f1dd	2007	STA	A: 24	X: 2	Y: 89	SP: fd
f1e0	0	DEY	A: 24	X: 2	Y: 89	SP: fd
f1e1	f1dd	BNE	A: 24	X: 2	Y: 88	SP: fd
f1dd	2007	STA	A: 24	X: 2	Y: 88	SP: fd
f1e0	0	DEY	A: 24	X: 2	Y: 88	SP: fd
f1e1	f1dd	BNE	A: 24	X: 2	Y: 87	SP: fd
f1dd	2007	STA	A: 24	X: 2	Y: 87	SP: fd
f1e0	0	DEY	A: 24	X: 2	Y: 87	SP: fd
f1e1	f1dd	BNE	A: 24	X: 2	Y: 86	SP: fd
f1dd	2007	STA	A: 24	X: 2	Y: 86	SP: fd
f1e0	0	DEY	A: 24	X: 2	Y: 86	SP: fd
f1e1	f1dd	BNE	A: 24	X: 2	Y: 85	SP: fd
f1dd	2007	STA	A: 24	X: 2	Y: 85	SP: fd
f1e0	0	DEY	A: 24	X: 2	Y: 85	SP: fd
f1e1	f1dd	BNE	A: 24	X: 2	Y: 84	SP: fd
f1dd	2007	STA	A: 24	X: 2	Y: 84	SP: fd
f1e0	0	DEY	A: 24	X: 2	Y: 84	SP: fd
f1e1	f1dd	BNE	A: 24	X: 2	Y: 83	SP: fd
f1dd	2007	STA	A: 24	X: 2	Y: 83	SP: fd
f1e0	0	DEY	A: 24	X: 2	Y: 83	SP: fd
f1e1	f1dd	BNE	A: 24	X: 2	Y: 82	SP: fd
f1dd	2007	STA	A: 24	X: 2	Y: 82	SP: fd
f1e0	0	DEY	A: 24	X: 2	Y: 82	SP: fd
f1e1	f1dd	BNE	A: 24	X: 2	Y: 81	SP: fd
f1dd	2007	STA	A: 24	X: 2	Y: 81	SP: fd
f1e0	0	DEY	A: 24	X: 2	Y: 81	SP: fd
f1e1	f1dd	BNE	A: 24	X: 2	Y: 80	SP: fd
f1dd	2007	STA	A: 24	X: 2	Y: 80	SP: fd
f1e0	0	DEY	A: 24	X: 2	Y: 80	SP: fd
f1e1	f1dd	BNE	A: 24	X: 2	Y: 7f	SP: fd
f1dd	2007	STA	A: 24	X: 2	Y: 7f	SP: fd
f1e0	0	DEY	A: 24	X: 2	Y: 7f	SP: fd
f1e1	f1dd	BNE	A: 24	X: 2	Y: 7e	SP: fd
f1dd	2007	STA	A: 24	X: 2	Y: 7e	SP: fd
f1e0	0	DEY	A: 24	X: 2	Y: 7e	SP: fd
f1e1	f1dd	BNE	A: 24	X: 2	Y: 7d	SP: fd
f1dd	2007	STA	A: 24	X: 2	Y: 7d	SP: fd
f1e0	0	DEY	A: 24	X: 2	Y: 7d	SP: fd
f1e1	f1dd	BNE	A: 24	X: 2	Y: 7c	SP: fd
f1dd	2007	STA	A: 24	X: 2	Y: 7c	SP: fd
f1e0	0	DEY	A: 24	X: 2	Y: 7c	SP: fd
f1e1	f1dd	BNE	A: 24	X: 2	Y: 7b	SP: fd
f1dd	2007	STA	A: 24	X: 2	Y: 7b	SP: fd
f1e0	0	DEY	A: 24	X: 2	Y: 7b	SP: fd
f1e1	f1dd	BNE	A: 24	X: 2	Y: 7a	SP: fd
f1dd	2007	STA	A: 24	X: 2	Y: 7a	SP: fd
f1e0	0	DEY	A: 24	X: 2	Y: 7a	SP: fd
f1e1	f1dd	BNE	A: 24	X: 2	Y: 79	SP: fd
f1dd	2007	STA	A: 24	X: 2	Y: 79	SP: fd
f1e0	0	DEY	A: 24	X: 2	Y: 79	SP: fd
f1e1	f1dd	BNE	A: 24	X: 2	Y: 78	SP: fd
f1dd	2007	STA	A: 24	X: 2	Y: 78	SP: fd
f1e0	0	DEY	A: 24	X: 2	Y: 78	SP: fd
f1e1	f1dd	BNE	A: 24	X: 2	Y: 77	SP: fd
f1dd	2007	STA	A: 24	X: 2	Y: 77	SP: fd
f1e0	0	DEY	A: 24	X: 2	Y: 77	SP: fd
f1e1	f1dd	BNE	A: 24	X: 2	Y: 76	SP: fd
f1dd	2007	STA	A: 24	X: 2	Y: 76	SP: fd
f1e0	0	DEY	A: 24	X: 2	Y: 76	SP: fd
f1e1	f1dd	BNE	A: 24	X: 2	Y: 75	SP: fd
f1dd	2007	STA	A: 24	X: 2	Y: 75	SP: fd
f1e0	0	DEY	A: 24	X: 2	Y: 75	SP: fd
f1e1	f1dd	BNE	A: 24	X: 2	Y: 74	SP: fd
f1dd	2007	STA	A: 24	X: 2	Y: 74	SP: fd
f1e0	0	DEY	A: 24	X: 2	Y: 74	SP: fd
f1e1	f1dd	BNE	A: 24	X: 2	Y: 73	SP: fd
f1dd	2007	STA	A: 24	X: 2	Y: 73	SP: fd
f1e0	0	DEY	A: 24	X: 2	Y: 73	SP: fd
f1e1	f1dd	BNE	A: 24	X: 2	Y: 72	SP: fd
f1dd	2007	STA	A: 24	X: 2	Y: 72	SP: fd
f1e0	0	DEY	A: 24	X: 2	Y: 72	SP: fd
f1e1	f1dd	BNE	A: 24	X: 2	Y: 71	SP: fd
f1dd	2007	STA	A: 24	X: 2	Y: 71	SP: fd
f1e0	0	DEY	A: 24	X: 2	Y: 71	SP: fd
f1e1	f1dd	BNE	A: 24	X: 2	Y: 70	SP: fd
f1dd	2007	STA	A: 24	X: 2	Y: 70	SP: fd
f1e0	0	DEY	A: 24	X: 2	Y: 70	SP: fd
f1e1	f1dd	BNE	A: 24	X: 2	Y: 6f	SP: fd
f1dd	2007	STA	A: 24	X: 2	Y: 6f	SP: fd
f1e0	0	DEY	A: 24	X: 2	Y: 6f	SP: fd
f1e1	f1dd	BNE	A: 24	X: 2	Y: 6e	SP: fd
f1dd	2007	STA	A: 24	X: 2	Y: 6e	SP: fd
f1e0	0	DEY	A: 24	X: 2	Y: 6e	SP: fd
f1e1	f1dd	BNE	A: 24	X: 2	Y: 6d	SP: fd
f1dd	2007	STA	A: 24	X: 2	Y: 6d	SP: fd
f1e0	0	DEY	A: 24	X: 2	Y: 6d	SP: fd
f1e1	f1dd	BNE	A: 24	X: 2	Y: 6c	SP: fd
f1dd	2007	STA	A: 24	X: 2	Y: 6c	SP: fd
f1e0	0	DEY	A: 24	X: 2	Y: 6c	SP: fd
f1e1	f1dd	BNE	A: 24	X: 2	Y: 6b	SP: fd
f1dd	2007	STA	A: 24	X: 2	Y: 6b	SP: fd
f1e0	0	DEY	A: 24	X: 2	Y: 6b	SP: fd
f1e1	f1dd	BNE	A: 24	X: 2	Y: 6a	SP: fd
f1dd	2007	STA	A: 24	X: 2	Y: 6a	SP: fd
f1e0	0	DEY	A: 24	X: 2	Y: 6a	SP: fd
f1e1	f1dd	BNE	A: 24	X: 2	Y: 69	SP: fd
f1dd	2007	STA	A: 24	X: 2	Y: 69	SP: fd
f1e0	0	DEY	A: 24	X: 2	Y: 69	SP: fd
f1e1	f1dd	BNE	A: 24	X: 2	Y: 68	SP: fd
f1dd	2007	STA	A: 24	X: 2	Y: 68	SP: fd
f1e0	0	DEY	A: 24	X: 2	Y: 68	SP: fd
f1e1	f1dd	BNE	A: 24	X: 2	Y: 67	SP: fd
f1dd	2007	STA	A: 24	X: 2	Y: 67	SP: fd
f1e0	0	DEY	A: 24	X: 2	Y: 67	SP: fd
f1e1	f1dd	BNE	A: 24	X: 2	Y: 66	SP: fd
f1dd	2007	STA	A: 24	X: 2	Y: 66	SP: fd
f1e0	0	DEY	A: 24	X: 2	Y: 66	SP: fd
f1e1	f1dd	BNE	A: 24	X: 2	Y: 65	SP: fd
f1dd	2007	STA	A: 24	X: 2	Y: 65	SP: fd
f1e0	0	DEY	A: 24	X: 2	Y: 65	SP: fd
f1e1	f1dd	BNE	A: 24	X: 2	Y: 64	SP: fd
f1dd	2007	STA	A: 24	X: 2	Y: 64	SP: fd
f1e0	0	DEY	A: 24	X: 2	Y: 64	SP: fd
f1e1	f1dd	BNE	A: 24	X: 2	Y: 63	SP: fd
f1dd	2007	STA	A: 24	X: 2	Y: 63	SP: fd
f1e0	0	DEY	A: 24	X: 2	Y: 63	SP: fd
f1e1	f1dd	BNE	A: 24	X: 2	Y: 62	SP: fd
f1dd	2007	STA	A: 24	X: 2	Y: 62	SP: fd
f1e0	0	DEY	A: 24	X: 2	Y: 62	SP: fd
f1e1	f1dd	BNE	A: 24	X: 2	Y: 61	SP: fd
f1dd	2007	STA	A: 24	X: 2	Y: 61	SP: fd
f1e0	0	DEY	A: 24	X: 2	Y: 61	SP: fd
f1e1	f1dd	BNE	A: 24	X: 2	Y: 60	SP: fd
f1dd	2007	STA	A: 24	X: 2	Y: 60	SP: fd
f1e0	0	DEY	A: 24	X: 2	Y: 60	SP: fd
f1e1	f1dd	BNE	A: 24	X: 2	Y: 5f	SP: fd
f1dd	2007	STA	A: 24	X: 2	Y: 5f	SP: fd
f1e0	0	DEY	A: 24	X: 2	Y: 5f	SP: fd
f1e1	f1dd	BNE	A: 24	X: 2	Y: 5e	SP: fd
f1dd	2007	STA	A: 24	X: 2	Y: 5e	SP: fd
f1e0	0	DEY	A: 24	X: 2	Y: 5e	SP: fd
f1e1	f1dd	BNE	A: 24	X: 2	Y: 5d	SP: fd
f1dd	2007	STA	A: 24	X: 2	Y: 5d	SP: fd
f1e0	0	DEY	A: 24	X: 2	Y: 5d	SP: fd
f1e1	f1dd	BNE	A: 24	X: 2	Y: 5c	SP: fd
f1dd	2007	STA	A: 24	X: 2	Y: 5c	SP: fd
f1e0	0	DEY	A: 24	X: 2	Y: 5c	SP: fd
f1e1	f1dd	BNE	A: 24	X: 2	Y: 5b	SP: fd
f1dd	2007	STA	A: 24	X: 2	Y: 5b	SP: fd
f1e0	0	DEY	A: 24	X: 2	Y: 5b	SP: fd
f1e1	f1dd	BNE	A: 24	X: 2	Y: 5a	SP: fd
f1dd	2007	STA	A: 24	X: 2	Y: 5a	SP: fd
f1e0	0	DEY	A: 24	X: 2	Y: 5a	SP: fd
f1e1	f1dd	BNE	A: 24	X: 2	Y: 59	SP: fd
f1dd	2007	STA	A: 24	X: 2	Y: 59	SP: fd
f1e0	0	DEY	A: 24	X: 2	Y: 59	SP: fd
f1e1	f1dd	BNE	A: 24	X: 2	Y: 58	SP: fd
f1dd	2007	STA	A: 24	X: 2	Y: 58	SP: fd
f1e0	0	DEY	A: 24	X: 2	Y: 58	SP: fd
f1e1	f1dd	BNE	A: 24	X: 2	Y: 57	SP: fd
f1dd	2007	STA	A: 24	X: 2	Y: 57	SP: fd
f1e0	0	DEY	A: 24	X: 2	Y: 57	SP: fd
f1e1	f1dd	BNE	A: 24	X: 2	Y: 56	SP: fd
f1dd	2007	STA	A: 24	X: 2	Y: 56	SP: fd
f1e0	0	DEY	A: 24	X: 2	Y: 56	SP: fd
f1e1	f1dd	BNE	A: 24	X: 2	Y: 55	SP: fd
f1dd	2007	STA	A: 24	X: 2	Y: 55	SP: fd
f1e0	0	DEY	A: 24	X: 2	Y: 55	SP: fd
f1e1	f1dd	BNE	A: 24	X: 2	Y: 54	SP: fd
f1dd	2007	STA	A: 24	X: 2	Y: 54	SP: fd
f1e0	0	DEY	A: 24	X: 2	Y: 54	SP: fd
f1e1	f1dd	BNE	A: 24	X: 2	Y: 53	SP: fd
f1dd	2007	STA	A: 24	X: 2	Y: 53	SP: fd
f1e0	0	DEY	A: 24	X: 2	Y: 53	SP: fd
f1e1	f1dd	BNE	A: 24	X: 2	Y: 52	SP: fd
f1dd	2007	STA	A: 24	X: 2	Y: 52	SP: fd
f1e0	0	DEY	A: 24	X: 2	Y: 52	SP: fd
f1e1	f1dd	BNE	A: 24	X: 2	Y: 51	SP: fd
f1dd	2007	STA	A: 24	X: 2	Y: 51	SP: fd
f1e0	0	DEY	A: 24	X: 2	Y: 51	SP: fd
f1e1	f1dd	BNE	A: 24	X: 2	Y: 50	SP: fd
f1dd	2007	STA	A: 24	X: 2	Y: 50	SP: fd
f1e0	0	DEY	A: 24	X: 2	Y: 50	SP: fd
f1e1	f1dd	BNE	A: 24	X: 2	Y: 4f	SP: fd
f1dd	2007	STA	A: 24	X: 2	Y: 4f	SP: fd
f1e0	0	DEY	A: 24	X: 2	Y: 4f	SP: fd
f1e1	f1dd	BNE	A: 24	X: 2	Y: 4e	SP: fd
f1dd	2007	STA	A: 24	X: 2	Y: 4e	SP: fd
f1e0	0	DEY	A: 24	X: 2	Y: 4e	SP: fd
f1e1	f1dd	BNE	A: 24	X: 2	Y: 4d	SP: fd
f1dd	2007	STA	A: 24	X: 2	Y: 4d	SP: fd
f1e0	0	DEY	A: 24	X: 2	Y: 4d	SP: fd
f1e1	f1dd	BNE	A: 24	X: 2	Y: 4c	SP: fd
f1dd	2007	STA	A: 24	X: 2	Y: 4c	SP: fd
f1e0	0	DEY	A: 24	X: 2	Y: 4c	SP: fd
f1e1	f1dd	BNE	A: 24	X: 2	Y: 4b	SP: fd
f1dd	2007	STA	A: 24	X: 2	Y: 4b	SP: fd
f1e0	0	DEY	A: 24	X: 2	Y: 4b	SP: fd
f1e1	f1dd	BNE	A: 24	X: 2	Y: 4a	SP: fd
f1dd	2007	STA	A: 24	X: 2	Y: 4a	SP: fd
f1e0	0	DEY	A: 24	X: 2	Y: 4a	SP: fd
f1e1	f1dd	BNE	A: 24	X: 2	Y: 49	SP: fd
f1dd	2007	STA	A: 24	X: 2	Y: 49	SP: fd
f1e0	0	DEY	A: 24	X: 2	Y: 49	SP: fd
f1e1	f1dd	BNE	A: 24	X: 2	Y: 48	SP: fd
f1dd	2007	STA	A: 24	X: 2	Y: 48	SP: fd
f1e0	0	DEY	A: 24	X: 2	Y: 48	SP: fd
f1e1	f1dd	BNE	A: 24	X: 2	Y: 47	SP: fd
f1dd	2007	STA	A: 24	X: 2	Y: 47	SP: fd
f1e0	0	DEY	A: 24	X: 2	Y: 47	SP: fd
f1e1	f1dd	BNE	A: 24	X: 2	Y: 46	SP: fd
f1dd	2007	STA	A: 24	X: 2	Y: 46	SP: fd
f1e0	0	DEY	A: 24	X: 2	Y: 46	SP: fd
f1e1	f1dd	BNE	A: 24	X: 2	Y: 45	SP: fd
f1dd	2007	STA	A: 24	X: 2	Y: 45	SP: fd
f1e0	0	DEY	A: 24	X: 2	Y: 45	SP: fd
f1e1	f1dd	BNE	A: 24	X: 2	Y: 44	SP: fd
f1dd	2007	STA	A: 24	X: 2	Y: 44	SP: fd
f1e0	0	DEY	A: 24	X: 2	Y: 44	SP: fd
f1e1	f1dd	BNE	A: 24	X: 2	Y: 43	SP: fd
f1dd	2007	STA	A: 24	X: 2	Y: 43	SP: fd
f1e0	0	DEY	A: 24	X: 2	Y: 43	SP: fd
f1e1	f1dd	BNE	A: 24	X: 2	Y: 42	SP: fd
f1dd	2007	STA	A: 24	X: 2	Y: 42	SP: fd
f1e0	0	DEY	A: 24	X: 2	Y: 42	SP: fd
f1e1	f1dd	BNE	A: 24	X: 2	Y: 41	SP: fd
f1dd	2007	STA	A: 24	X: 2	Y: 41	SP: fd
f1e0	0	DEY	A: 24	X: 2	Y: 41	SP: fd
f1e1	f1dd	BNE	A: 24	X: 2	Y: 40	SP: fd
f1dd	2007	STA	A: 24	X: 2	Y: 40	SP: fd
f1e0	0	DEY	A: 24	X: 2	Y: 40	SP: fd
f1e1	f1dd	BNE	A: 24	X: 2	Y: 3f	SP: fd
f1dd	2007	STA	A: 24	X: 2	Y: 3f	SP: fd
f1e0	0	DEY	A: 24	X: 2	Y: 3f	SP: fd
f1e1	f1dd	BNE	A: 24	X: 2	Y: 3e	SP: fd
f1dd	2007	STA	A: 24	X: 2	Y: 3e	SP: fd
f1e0	0	DEY	A: 24	X: 2	Y: 3e	SP: fd
f1e1	f1dd	BNE	A: 24	X: 2	Y: 3d	SP: fd
f1dd	2007	STA	A: 24	X: 2	Y: 3d	SP: fd
f1e0	0	DEY	A: 24	X: 2	Y: 3d	SP: fd
f1e1	f1dd	BNE	A: 24	X: 2	Y: 3c	SP: fd
f1dd	2007	STA	A: 24	X: 2	Y: 3c	SP: fd
f1e0	0	DEY	A: 24	X: 2	Y: 3c	SP: fd
f1e1	f1dd	BNE	A: 24	X: 2	Y: 3b	SP: fd
f1dd	2007	STA	A: 24	X: 2	Y: 3b	SP: fd
f1e0	0	DEY	A: 24	X: 2	Y: 3b	SP: fd
f1e1	f1dd	BNE	A: 24	X: 2	Y: 3a	SP: fd
f1dd	2007	STA	A: 24	X: 2	Y: 3a	SP: fd
f1e0	0	DEY	A: 24	X: 2	Y: 3a	SP: fd
f1e1	f1dd	BNE	A: 24	X: 2	Y: 39	SP: fd
f1dd	2007	STA	A: 24	X: 2	Y: 39	SP: fd
f1e0	0	DEY	A: 24	X: 2	Y: 39	SP: fd
f1e1	f1dd	BNE	A: 24	X: 2	Y: 38	SP: fd
f1dd	2007	STA	A: 24	X: 2	Y: 38	SP: fd
f1e0	0	DEY	A: 24	X: 2	Y: 38	SP: fd
f1e1	f1dd	BNE	A: 24	X: 2	Y: 37	SP: fd
f1dd	2007	STA	A: 24	X: 2	Y: 37	SP: fd
f1e0	0	DEY	A: 24	X: 2	Y: 37	SP: fd
f1e1	f1dd	BNE	A: 24	X: 2	Y: 36	SP: fd
f1dd	2007	STA	A: 24	X: 2	Y: 36	SP: fd
f1e0	0	DEY	A: 24	X: 2	Y: 36	SP: fd
f1e1	f1dd	BNE	A: 24	X: 2	Y: 35	SP: fd
f1dd	2007	STA	A: 24	X: 2	Y: 35	SP: fd
f1e0	0	DEY	A: 24	X: 2	Y: 35	SP: fd
f1e1	f1dd	BNE	A: 24	X: 2	Y: 34	SP: fd
f1dd	2007	STA	A: 24	X: 2	Y: 34	SP: fd
f1e0	0	DEY	A: 24	X: 2	Y: 34	SP: fd
f1e1	f1dd	BNE	A: 24	X: 2	Y: 33	SP: fd
f1dd	2007	STA	A: 24	X: 2	Y: 33	SP: fd
f1e0	0	DEY	A: 24	X: 2	Y: 33	SP: fd
f1e1	f1dd	BNE	A: 24	X: 2	Y: 32	SP: fd
f1dd	2007	STA	A: 24	X: 2	Y: 32	SP: fd
f1e0	0	DEY	A: 24	X: 2	Y: 32	SP: fd
f1e1	f1dd	BNE	A: 24	X: 2	Y: 31	SP: fd
f1dd	2007	STA	A: 24	X: 2	Y: 31	SP: fd
f1e0	0	DEY	A: 24	X: 2	Y: 31	SP: fd
f1e1	f1dd	BNE	A: 24	X: 2	Y: 30	SP: fd
f1dd	2007	STA	A: 24	X: 2	Y: 30	SP: fd
f1e0	0	DEY	A: 24	X: 2	Y: 30	SP: fd
f1e1	f1dd	BNE	A: 24	X: 2	Y: 2f	SP: fd
f1dd	2007	STA	A: 24	X: 2	Y: 2f	SP: fd
f1e0	0	DEY	A: 24	X: 2	Y: 2f	SP: fd
f1e1	f1dd	BNE	A: 24	X: 2	Y: 2e	SP: fd
f1dd	2007	STA	A: 24	X: 2	Y: 2e	SP: fd
f1e0	0	DEY	A: 24	X: 2	Y: 2e	SP: fd
f1e1	f1dd	BNE	A: 24	X: 2	Y: 2d	SP: fd
f1dd	2007	STA	A: 24	X: 2	Y: 2d	SP: fd
f1e0	0	DEY	A: 24	X: 2	Y: 2d	SP: fd
f1e1	f1dd	BNE	A: 24	X: 2	Y: 2c	SP: fd
f1dd	2007	STA	A: 24	X: 2	Y: 2c	SP: fd
f1e0	0	DEY	A: 24	X: 2	Y: 2c	SP: fd
f1e1	f1dd	BNE	A: 24	X: 2	Y: 2b	SP: fd
f1dd	2007	STA	A: 24	X: 2	Y: 2b	SP: fd
f1e0	0	DEY	A: 24	X: 2	Y: 2b	SP: fd
f1e1	f1dd	BNE	A: 24	X: 2	Y: 2a	SP: fd
f1dd	2007	STA	A: 24	X: 2	Y: 2a	SP: fd
f1e0	0	DEY	A: 24	X: 2	Y: 2a	SP: fd
f1e1	f1dd	BNE	A: 24	X: 2	Y: 29	SP: fd
f1dd	2007	STA	A: 24	X: 2	Y: 29	SP: fd
f1e0	0	DEY	A: 24	X: 2	Y: 29	SP: fd
f1e1	f1dd	BNE	A: 24	X: 2	Y: 28	SP: fd
f1dd	2007	STA	A: 24	X: 2	Y: 28	SP: fd
f1e0	0	DEY	A: 24	X: 2	Y: 28	SP: fd
f1e1	f1dd	BNE	A: 24	X: 2	Y: 27	SP: fd
f1dd	2007	STA	A: 24	X: 2	Y: 27	SP: fd
f1e0	0	DEY	A: 24	X: 2	Y: 27	SP: fd
f1e1	f1dd	BNE	A: 24	X: 2	Y: 26	SP: fd
f1dd	2007	STA	A: 24	X: 2	Y: 26	SP: fd
f1e0	0	DEY	A: 24	X: 2	Y: 26	SP: fd
f1e1	f1dd	BNE	A: 24	X: 2	Y: 25	SP: fd
f1dd	2007	STA	A: 24	X: 2	Y: 25	SP: fd
f1e0	0	DEY	A: 24	X: 2	Y: 25	SP: fd
f1e1	f1dd	BNE	A: 24	X: 2	Y: 24	SP: fd
f1dd	2007	STA	A: 24	X: 2	Y: 24	SP: fd
f1e0	0	DEY	A: 24	X: 2	Y: 24	SP: fd
f1e1	f1dd	BNE	A: 24	X: 2	Y: 23	SP: fd
f1dd	2007	STA	A: 24	X: 2	Y: 23	SP: fd
f1e0	0	DEY	A: 24	X: 2	Y: 23	SP: fd
f1e1	f1dd	BNE	A: 24	X: 2	Y: 22	SP: fd
f1dd	2007	STA	A: 24	X: 2	Y: 22	SP: fd
f1e0	0	DEY	A: 24	X: 2	Y: 22	SP: fd
f1e1	f1dd	BNE	A: 24	X: 2	Y: 21	SP: fd
f1dd	2007	STA	A: 24	X: 2	Y: 21	SP: fd
f1e0	0	DEY	A: 24	X: 2	Y: 21	SP: fd
f1e1	f1dd	BNE	A: 24	X: 2	Y: 20	SP: fd
f1dd	2007	STA	A: 24	X: 2	Y: 20	SP: fd
f1e0	0	DEY	A: 24	X: 2	Y: 20	SP: fd
f1e1	f1dd	BNE	A: 24	X: 2	Y: 1f	SP: fd
f1dd	2007	STA	A: 24	X: 2	Y: 1f	SP: fd
f1e0	0	DEY	A: 24	X: 2	Y: 1f	SP: fd
f1e1	f1dd	BNE	A: 24	X: 2	Y: 1e	SP: fd
f1dd	2007	STA	A: 24	X: 2	Y: 1e	SP: fd
f1e0	0	DEY	A: 24	X: 2	Y: 1e	SP: fd
f1e1	f1dd	BNE	A: 24	X: 2	Y: 1d	SP: fd
f1dd	2007	STA	A: 24	X: 2	Y: 1d	SP: fd
f1e0	0	DEY	A: 24	X: 2	Y: 1d	SP: fd
f1e1	f1dd	BNE	A: 24	X: 2	Y: 1c	SP: fd
f1dd	2007	STA	A: 24	X: 2	Y: 1c	SP: fd
f1e0	0	DEY	A: 24	X: 2	Y: 1c	SP: fd
f1e1	f1dd	BNE	A: 24	X: 2	Y: 1b	SP: fd
f1dd	2007	STA	A: 24	X: 2	Y: 1b	SP: fd
f1e0	0	DEY	A: 24	X: 2	Y: 1b	SP: fd
f1e1	f1dd	BNE	A: 24	X: 2	Y: 1a	SP: fd
f1dd	2007	STA	A: 24	X: 2	Y: 1a	SP: fd
f1e0	0	DEY	A: 24	X: 2	Y: 1a	SP: fd
f1e1	f1dd	BNE	A: 24	X: 2	Y: 19	SP: fd
f1dd	2007	STA	A: 24	X: 2	Y: 19	SP: fd
f1e0	0	DEY	A: 24	X: 2	Y: 19	SP: fd
f1e1	f1dd	BNE	A: 24	X: 2	Y: 18	SP: fd
f1dd	2007	STA	A: 24	X: 2	Y: 18	SP: fd
f1e0	0	DEY	A: 24	X: 2	Y: 18	SP: fd
f1e1	f1dd	BNE	A: 24	X: 2	Y: 17	SP: fd
f1dd	2007	STA	A: 24	X: 2	Y: 17	SP: fd
f1e0	0	DEY	A: 24	X: 2	Y: 17	SP: fd
f1e1	f1dd	BNE	A: 24	X: 2	Y: 16	SP: fd
f1dd	2007	STA	A: 24	X: 2	Y: 16	SP: fd
f1e0	0	DEY	A: 24	X: 2	Y: 16	SP: fd
f1e1	f1dd	BNE	A: 24	X: 2	Y: 15	SP: fd
f1dd	2007	STA	A: 24	X: 2	Y: 15	SP: fd
f1e0	0	DEY	A: 24	X: 2	Y: 15	SP: fd
f1e1	f1dd	BNE	A: 24	X: 2	Y: 14	SP: fd
f1dd	2007	STA	A: 24	X: 2	Y: 14	SP: fd
f1e0	0	DEY	A: 24	X: 2	Y: 14	SP: fd
f1e1	f1dd	BNE	A: 24	X: 2	Y: 13	SP: fd
f1dd	2007	STA	A: 24	X: 2	Y: 13	SP: fd
f1e0	0	DEY	A: 24	X: 2	Y: 13	SP: fd
f1e1	f1dd	BNE	A: 24	X: 2	Y: 12	SP: fd
f1dd	2007	STA	A: 24	X: 2	Y: 12	SP: fd
f1e0	0	DEY	A: 24	X: 2	Y: 12	SP: fd
f1e1	f1dd	BNE	A: 24	X: 2	Y: 11	SP: fd
f1dd	2007	STA	A: 24	X: 2	Y: 11	SP: fd
f1e0	0	DEY	A: 24	X: 2	Y: 11	SP: fd
f1e1	f1dd	BNE	A: 24	X: 2	Y: 10	SP: fd
f1dd	2007	STA	A: 24	X: 2	Y: 10	SP: fd
f1e0	0	DEY	A: 24	X: 2	Y: 10	SP: fd
f1e1	f1dd	BNE	A: 24	X: 2	Y: f	SP: fd
f1dd	2007	STA	A: 24	X: 2	Y: f	SP: fd
f1e0	0	DEY	A: 24	X: 2	Y: f	SP: fd
f1e1	f1dd	BNE	A: 24	X: 2	Y: e	SP: fd
f1dd	2007	STA	A: 24	X: 2	Y: e	SP: fd
f1e0	0	DEY	A: 24	X: 2	Y: e	SP: fd
f1e1	f1dd	BNE	A: 24	X: 2	Y: d	SP: fd
f1dd	2007	STA	A: 24	X: 2	Y: d	SP: fd
f1e0	0	DEY	A: 24	X: 2	Y: d	SP: fd
f1e1	f1dd	BNE	A: 24	X: 2	Y: c	SP: fd
f1dd	2007	STA	A: 24	X: 2	Y: c	SP: fd
f1e0	0	DEY	A: 24	X: 2	Y: c	SP: fd
f1e1	f1dd	BNE	A: 24	X: 2	Y: b	SP: fd
f1dd	2007	STA	A: 24	X: 2	Y: b	SP: fd
f1e0	0	DEY	A: 24	X: 2	Y: b	SP: fd
f1e1	f1dd	BNE	A: 24	X: 2	Y: a	SP: fd
f1dd	2007	STA	A: 24	X: 2	Y: a	SP: fd
f1e0	0	DEY	A: 24	X: 2	Y: a	SP: fd
f1e1	f1dd	BNE	A: 24	X: 2	Y: 9	SP: fd
f1dd	2007	STA	A: 24	X: 2	Y: 9	SP: fd
f1e0	0	DEY	A: 24	X: 2	Y: 9	SP: fd
f1e1	f1dd	BNE	A: 24	X: 2	Y: 8	SP: fd
f1dd	2007	STA	A: 24	X: 2	Y: 8	SP: fd
f1e0	0	DEY	A: 24	X: 2	Y: 8	SP: fd
f1e1	f1dd	BNE	A: 24	X: 2	Y: 7	SP: fd
f1dd	2007	STA	A: 24	X: 2	Y: 7	SP: fd
f1e0	0	DEY	A: 24	X: 2	Y: 7	SP: fd
f1e1	f1dd	BNE	A: 24	X: 2	Y: 6	SP: fd
f1dd	2007	STA	A: 24	X: 2	Y: 6	SP: fd
f1e0	0	DEY	A: 24	X: 2	Y: 6	SP: fd
f1e1	f1dd	BNE	A: 24	X: 2	Y: 5	SP: fd
f1dd	2007	STA	A: 24	X: 2	Y: 5	SP: fd
f1e0	0	DEY	A: 24	X: 2	Y: 5	SP: fd
f1e1	f1dd	BNE	A: 24	X: 2	Y: 4	SP: fd
f1dd	2007	STA	A: 24	X: 2	Y: 4	SP: fd
f1e0	0	DEY	A: 24	X: 2	Y: 4	SP: fd
f1e1	f1dd	BNE	A: 24	X: 2	Y: 3	SP: fd
f1dd	2007	STA	A: 24	X: 2	Y: 3	SP: fd
f1e0	0	DEY	A: 24	X: 2	Y: 3	SP: fd
f1e1	f1dd	BNE	A: 24	X: 2	Y: 2	SP: fd
f1dd	2007	STA	A: 24	X: 2	Y: 2	SP: fd
f1e0	0	DEY	A: 24	X: 2	Y: 2	SP: fd
f1e1	f1dd	BNE	A: 24	X: 2	Y: 1	SP: fd
f1dd	2007	STA	A: 24	X: 2	Y: 1	SP: fd
f1e0	0	DEY	A: 24	X: 2	Y: 1	SP: fd
f1e1	f1dd	BNE	A: 24	X: 2	Y: 0	SP: fd
f1e3	0	DEX	A: 24	X: 2	Y: 0	SP: fd
f1e4	f1dd	BNE	A: 24	X: 1	Y: 0	SP: fd
f1dd	2007	STA	A: 24	X: 1	Y: 0	SP: fd
f1e0	0	DEY	A: 24	X: 1	Y: 0	SP: fd
f1e1	f1dd	BNE	A: 24	X: 1	Y: ff	SP: fd
f1dd	2007	STA	A: 24	X: 1	Y: ff	SP: fd
f1e0	0	DEY	A: 24	X: 1	Y: ff	SP: fd
f1e1	f1dd	BNE	A: 24	X: 1	Y: fe	SP: fd
f1dd	2007	STA	A: 24	X: 1	Y: fe	SP: fd
f1e0	0	DEY	A: 24	X: 1	Y: fe	SP: fd
f1e1	f1dd	BNE	A: 24	X: 1	Y: fd	SP: fd
f1dd	2007	STA	A: 24	X: 1	Y: fd	SP: fd
f1e0	0	DEY	A: 24	X: 1	Y: fd	SP: fd
f1e1	f1dd	BNE	A: 24	X: 1	Y: fc	SP: fd
f1dd	2007	STA	A: 24	X: 1	Y: fc	SP: fd
f1e0	0	DEY	A: 24	X: 1	Y: fc	SP: fd
f1e1	f1dd	BNE	A: 24	X: 1	Y: fb	SP: fd
f1dd	2007	STA	A: 24	X: 1	Y: fb	SP: fd
f1e0	0	DEY	A: 24	X: 1	Y: fb	SP: fd
f1e1	f1dd	BNE	A: 24	X: 1	Y: fa	SP: fd
f1dd	2007	STA	A: 24	X: 1	Y: fa	SP: fd
f1e0	0	DEY	A: 24	X: 1	Y: fa	SP: fd
f1e1	f1dd	BNE	A: 24	X: 1	Y: f9	SP: fd
f1dd	2007	STA	A: 24	X: 1	Y: f9	SP: fd
f1e0	0	DEY	A: 24	X: 1	Y: f9	SP: fd
f1e1	f1dd	BNE	A: 24	X: 1	Y: f8	SP: fd
f1dd	2007	STA	A: 24	X: 1	Y: f8	SP: fd
f1e0	0	DEY	A: 24	X: 1	Y: f8	SP: fd
f1e1	f1dd	BNE	A: 24	X: 1	Y: f7	SP: fd
f1dd	2007	STA	A: 24	X: 1	Y: f7	SP: fd
f1e0	0	DEY	A: 24	X: 1	Y: f7	SP: fd
f1e1	f1dd	BNE	A: 24	X: 1	Y: f6	SP: fd
f1dd	2007	STA	A: 24	X: 1	Y: f6	SP: fd
f1e0	0	DEY	A: 24	X: 1	Y: f6	SP: fd
f1e1	f1dd	BNE	A: 24	X: 1	Y: f5	SP: fd
f1dd	2007	STA	A: 24	X: 1	Y: f5	SP: fd
f1e0	0	DEY	A: 24	X: 1	Y: f5	SP: fd
f1e1	f1dd	BNE	A: 24	X: 1	Y: f4	SP: fd
f1dd	2007	STA	A: 24	X: 1	Y: f4	SP: fd
f1e0	0	DEY	A: 24	X: 1	Y: f4	SP: fd
f1e1	f1dd	BNE	A: 24	X: 1	Y: f3	SP: fd
f1dd	2007	STA	A: 24	X: 1	Y: f3	SP: fd
f1e0	0	DEY	A: 24	X: 1	Y: f3	SP: fd
f1e1	f1dd	BNE	A: 24	X: 1	Y: f2	SP: fd
f1dd	2007	STA	A: 24	X: 1	Y: f2	SP: fd
f1e0	0	DEY	A: 24	X: 1	Y: f2	SP: fd
f1e1	f1dd	BNE	A: 24	X: 1	Y: f1	SP: fd
f1dd	2007	STA	A: 24	X: 1	Y: f1	SP: fd
f1e0	0	DEY	A: 24	X: 1	Y: f1	SP: fd
f1e1	f1dd	BNE	A: 24	X: 1	Y: f0	SP: fd
f1dd	2007	STA	A: 24	X: 1	Y: f0	SP: fd
f1e0	0	DEY	A: 24	X: 1	Y: f0	SP: fd
f1e1	f1dd	BNE	A: 24	X: 1	Y: ef	SP: fd
f1dd	2007	STA	A: 24	X: 1	Y: ef	SP: fd
f1e0	0	DEY	A: 24	X: 1	Y: ef	SP: fd
f1e1	f1dd	BNE	A: 24	X: 1	Y: ee	SP: fd
f1dd	2007	STA	A: 24	X: 1	Y: ee	SP: fd
f1e0	0	DEY	A: 24	X: 1	Y: ee	SP: fd
f1e1	f1dd	BNE	A: 24	X: 1	Y: ed	SP: fd
f1dd	2007	STA	A: 24	X: 1	Y: ed	SP: fd
f1e0	0	DEY	A: 24	X: 1	Y: ed	SP: fd
f1e1	f1dd	BNE	A: 24	X: 1	Y: ec	SP: fd
f1dd	2007	STA	A: 24	X: 1	Y: ec	SP: fd
f1e0	0	DEY	A: 24	X: 1	Y: ec	SP: fd
f1e1	f1dd	BNE	A: 24	X: 1	Y: eb	SP: fd
f1dd	2007	STA	A: 24	X: 1	Y: eb	SP: fd
f1e0	0	DEY	A: 24	X: 1	Y: eb	SP: fd
f1e1	f1dd	BNE	A: 24	X: 1	Y: ea	SP: fd
f1dd	2007	STA	A: 24	X: 1	Y: ea	SP: fd
f1e0	0	DEY	A: 24	X: 1	Y: ea	SP: fd
f1e1	f1dd	BNE	A: 24	X: 1	Y: e9	SP: fd
f1dd	2007	STA	A: 24	X: 1	Y: e9	SP: fd
f1e0	0	DEY	A: 24	X: 1	Y: e9	SP: fd
f1e1	f1dd	BNE	A: 24	X: 1	Y: e8	SP: fd
f1dd	2007	STA	A: 24	X: 1	Y: e8	SP: fd
f1e0	0	DEY	A: 24	X: 1	Y: e8	SP: fd
f1e1	f1dd	BNE	A: 24	X: 1	Y: e7	SP: fd
f1dd	2007	STA	A: 24	X: 1	Y: e7	SP: fd
f1e0	0	DEY	A: 24	X: 1	Y: e7	SP: fd
f1e1	f1dd	BNE	A: 24	X: 1	Y: e6	SP: fd
f1dd	2007	STA	A: 24	X: 1	Y: e6	SP: fd
f1e0	0	DEY	A: 24	X: 1	Y: e6	SP: fd
f1e1	f1dd	BNE	A: 24	X: 1	Y: e5	SP: fd
f1dd	2007	STA	A: 24	X: 1	Y: e5	SP: fd
f1e0	0	DEY	A: 24	X: 1	Y: e5	SP: fd
f1e1	f1dd	BNE	A: 24	X: 1	Y: e4	SP: fd
f1dd	2007	STA	A: 24	X: 1	Y: e4	SP: fd
f1e0	0	DEY	A: 24	X: 1	Y: e4	SP: fd
f1e1	f1dd	BNE	A: 24	X: 1	Y: e3	SP: fd
f1dd	2007	STA	A: 24	X: 1	Y: e3	SP: fd
f1e0	0	DEY	A: 24	X: 1	Y: e3	SP: fd
f1e1	f1dd	BNE	A: 24	X: 1	Y: e2	SP: fd
f1dd	2007	STA	A: 24	X: 1	Y: e2	SP: fd
f1e0	0	DEY	A: 24	X: 1	Y: e2	SP: fd
f1e1	f1dd	BNE	A: 24	X: 1	Y: e1	SP: fd
f1dd	2007	STA	A: 24	X: 1	Y: e1	SP: fd
f1e0	0	DEY	A: 24	X: 1	Y: e1	SP: fd
f1e1	f1dd	BNE	A: 24	X: 1	Y: e0	SP: fd
f1dd	2007	STA	A: 24	X: 1	Y: e0	SP: fd
f1e0	0	DEY	A: 24	X: 1	Y: e0	SP: fd
f1e1	f1dd	BNE	A: 24	X: 1	Y: df	SP: fd
f1dd	2007	STA	A: 24	X: 1	Y: df	SP: fd
f1e0	0	DEY	A: 24	X: 1	Y: df	SP: fd
f1e1	f1dd	BNE	A: 24	X: 1	Y: de	SP: fd
f1dd	2007	STA	A: 24	X: 1	Y: de	SP: fd
f1e0	0	DEY	A: 24	X: 1	Y: de	SP: fd
f1e1	f1dd	BNE	A: 24	X: 1	Y: dd	SP: fd
f1dd	2007	STA	A: 24	X: 1	Y: dd	SP: fd
f1e0	0	DEY	A: 24	X: 1	Y: dd	SP: fd
f1e1	f1dd	BNE	A: 24	X: 1	Y: dc	SP: fd
f1dd	2007	STA	A: 24	X: 1	Y: dc	SP: fd
f1e0	0	DEY	A: 24	X: 1	Y: dc	SP: fd
f1e1	f1dd	BNE	A: 24	X: 1	Y: db	SP: fd
f1dd	2007	STA	A: 24	X: 1	Y: db	SP: fd
f1e0	0	DEY	A: 24	X: 1	Y: db	SP: fd
f1e1	f1dd	BNE	A: 24	X: 1	Y: da	SP: fd
f1dd	2007	STA	A: 24	X: 1	Y: da	SP: fd
f1e0	0	DEY	A: 24	X: 1	Y: da	SP: fd
f1e1	f1dd	BNE	A: 24	X: 1	Y: d9	SP: fd
f1dd	2007	STA	A: 24	X: 1	Y: d9	SP: fd
f1e0	0	DEY	A: 24	X: 1	Y: d9	SP: fd
f1e1	f1dd	BNE	A: 24	X: 1	Y: d8	SP: fd
f1dd	2007	STA	A: 24	X: 1	Y: d8	SP: fd
f1e0	0	DEY	A: 24	X: 1	Y: d8	SP: fd
f1e1	f1dd	BNE	A: 24	X: 1	Y: d7	SP: fd
f1dd	2007	STA	A: 24	X: 1	Y: d7	SP: fd
f1e0	0	DEY	A: 24	X: 1	Y: d7	SP: fd
f1e1	f1dd	BNE	A: 24	X: 1	Y: d6	SP: fd
f1dd	2007	STA	A: 24	X: 1	Y: d6	SP: fd
f1e0	0	DEY	A: 24	X: 1	Y: d6	SP: fd
f1e1	f1dd	BNE	A: 24	X: 1	Y: d5	SP: fd
f1dd	2007	STA	A: 24	X: 1	Y: d5	SP: fd
f1e0	0	DEY	A: 24	X: 1	Y: d5	SP: fd
f1e1	f1dd	BNE	A: 24	X: 1	Y: d4	SP: fd
f1dd	2007	STA	A: 24	X: 1	Y: d4	SP: fd
f1e0	0	DEY	A: 24	X: 1	Y: d4	SP: fd
f1e1	f1dd	BNE	A: 24	X: 1	Y: d3	SP: fd
f1dd	2007	STA	A: 24	X: 1	Y: d3	SP: fd
f1e0	0	DEY	A: 24	X: 1	Y: d3	SP: fd
f1e1	f1dd	BNE	A: 24	X: 1	Y: d2	SP: fd
f1dd	2007	STA	A: 24	X: 1	Y: d2	SP: fd
f1e0	0	DEY	A: 24	X: 1	Y: d2	SP: fd
f1e1	f1dd	BNE	A: 24	X: 1	Y: d1	SP: fd
f1dd	2007	STA	A: 24	X: 1	Y: d1	SP: fd
f1e0	0	DEY	A: 24	X: 1	Y: d1	SP: fd
f1e1	f1dd	BNE	A: 24	X: 1	Y: d0	SP: fd
f1dd	2007	STA	A: 24	X: 1	Y: d0	SP: fd
f1e0	0	DEY	A: 24	X: 1	Y: d0	SP: fd
f1e1	f1dd	BNE	A: 24	X: 1	Y: cf	SP: fd
f1dd	2007	STA	A: 24	X: 1	Y: cf	SP: fd
f1e0	0	DEY	A: 24	X: 1	Y: cf	SP: fd
f1e1	f1dd	BNE	A: 24	X: 1	Y: ce	SP: fd
f1dd	2007	STA	A: 24	X: 1	Y: ce	SP: fd
f1e0	0	DEY	A: 24	X: 1	Y: ce	SP: fd
f1e1	f1dd	BNE	A: 24	X: 1	Y: cd	SP: fd
f1dd	2007	STA	A: 24	X: 1	Y: cd	SP: fd
f1e0	0	DEY	A: 24	X: 1	Y: cd	SP: fd
f1e1	f1dd	BNE	A: 24	X: 1	Y: cc	SP: fd
f1dd	2007	STA	A: 24	X: 1	Y: cc	SP: fd
f1e0	0	DEY	A: 24	X: 1	Y: cc	SP: fd
f1e1	f1dd	BNE	A: 24	X: 1	Y: cb	SP: fd
f1dd	2007	STA	A: 24	X: 1	Y: cb	SP: fd
f1e0	0	DEY	A: 24	X: 1	Y: cb	SP: fd
f1e1	f1dd	BNE	A: 24	X: 1	Y: ca	SP: fd
f1dd	2007	STA	A: 24	X: 1	Y: ca	SP: fd
f1e0	0	DEY	A: 24	X: 1	Y: ca	SP: fd
f1e1	f1dd	BNE	A: 24	X: 1	Y: c9	SP: fd
f1dd	2007	STA	A: 24	X: 1	Y: c9	SP: fd
f1e0	0	DEY	A: 24	X: 1	Y: c9	SP: fd
f1e1	f1dd	BNE	A: 24	X: 1	Y: c8	SP: fd
f1dd	2007	STA	A: 24	X: 1	Y: c8	SP: fd
f1e0	0	DEY	A: 24	X: 1	Y: c8	SP: fd
f1e1	f1dd	BNE	A: 24	X: 1	Y: c7	SP: fd
f1dd	2007	STA	A: 24	X: 1	Y: c7	SP: fd
f1e0	0	DEY	A: 24	X: 1	Y: c7	SP: fd
f1e1	f1dd	BNE	A: 24	X: 1	Y: c6	SP: fd
f1dd	2007	STA	A: 24	X: 1	Y: c6	SP: fd
f1e0	0	DEY	A: 24	X: 1	Y: c6	SP: fd
f1e1	f1dd	BNE	A: 24	X: 1	Y: c5	SP: fd
f1dd	2007	STA	A: 24	X: 1	Y: c5	SP: fd
f1e0	0	DEY	A: 24	X: 1	Y: c5	SP: fd
f1e1	f1dd	BNE	A: 24	X: 1	Y: c4	SP: fd
f1dd	2007	STA	A: 24	X: 1	Y: c4	SP: fd
f1e0	0	DEY	A: 24	X: 1	Y: c4	SP: fd
f1e1	f1dd	BNE	A: 24	X: 1	Y: c3	SP: fd
f1dd	2007	STA	A: 24	X: 1	Y: c3	SP: fd
f1e0	0	DEY	A: 24	X: 1	Y: c3	SP: fd
f1e1	f1dd	BNE	A: 24	X: 1	Y: c2	SP: fd
f1dd	2007	STA	A: 24	X: 1	Y: c2	SP: fd
f1e0	0	DEY	A: 24	X: 1	Y: c2	SP: fd
f1e1	f1dd	BNE	A: 24	X: 1	Y: c1	SP: fd
f1dd	2007	STA	A: 24	X: 1	Y: c1	SP: fd
f1e0	0	DEY	A: 24	X: 1	Y: c1	SP: fd
f1e1	f1dd	BNE	A: 24	X: 1	Y: c0	SP: fd
f1dd	2007	STA	A: 24	X: 1	Y: c0	SP: fd
f1e0	0	DEY	A: 24	X: 1	Y: c0	SP: fd
f1e1	f1dd	BNE	A: 24	X: 1	Y: bf	SP: fd
f1dd	2007	STA	A: 24	X: 1	Y: bf	SP: fd
f1e0	0	DEY	A: 24	X: 1	Y: bf	SP: fd
f1e1	f1dd	BNE	A: 24	X: 1	Y: be	SP: fd
f1dd	2007	STA	A: 24	X: 1	Y: be	SP: fd
f1e0	0	DEY	A: 24	X: 1	Y: be	SP: fd
f1e1	f1dd	BNE	A: 24	X: 1	Y: bd	SP: fd
f1dd	2007	STA	A: 24	X: 1	Y: bd	SP: fd
f1e0	0	DEY	A: 24	X: 1	Y: bd	SP: fd
f1e1	f1dd	BNE	A: 24	X: 1	Y: bc	SP: fd
f1dd	2007	STA	A: 24	X: 1	Y: bc	SP: fd
f1e0	0	DEY	A: 24	X: 1	Y: bc	SP: fd
f1e1	f1dd	BNE	A: 24	X: 1	Y: bb	SP: fd
f1dd	2007	STA	A: 24	X: 1	Y: bb	SP: fd
f1e0	0	DEY	A: 24	X: 1	Y: bb	SP: fd
f1e1	f1dd	BNE	A: 24	X: 1	Y: ba	SP: fd
f1dd	2007	STA	A: 24	X: 1	Y: ba	SP: fd
f1e0	0	DEY	A: 24	X: 1	Y: ba	SP: fd
f1e1	f1dd	BNE	A: 24	X: 1	Y: b9	SP: fd
f1dd	2007	STA	A: 24	X: 1	Y: b9	SP: fd
f1e0	0	DEY	A: 24	X: 1	Y: b9	SP: fd
f1e1	f1dd	BNE	A: 24	X: 1	Y: b8	SP: fd
f1dd	2007	STA	A: 24	X: 1	Y: b8	SP: fd
f1e0	0	DEY	A: 24	X: 1	Y: b8	SP: fd
f1e1	f1dd	BNE	A: 24	X: 1	Y: b7	SP: fd
f1dd	2007	STA	A: 24	X: 1	Y: b7	SP: fd
f1e0	0	DEY	A: 24	X: 1	Y: b7	SP: fd
f1e1	f1dd	BNE	A: 24	X: 1	Y: b6	SP: fd
f1dd	2007	STA	A: 24	X: 1	Y: b6	SP: fd
f1e0	0	DEY	A: 24	X: 1	Y: b6	SP: fd
f1e1	f1dd	BNE	A: 24	X: 1	Y: b5	SP: fd
f1dd	2007	STA	A: 24	X: 1	Y: b5	SP: fd
f1e0	0	DEY	A: 24	X: 1	Y: b5	SP: fd
f1e1	f1dd	BNE	A: 24	X: 1	Y: b4	SP: fd
f1dd	2007	STA	A: 24	X: 1	Y: b4	SP: fd
f1e0	0	DEY	A: 24	X: 1	Y: b4	SP: fd
f1e1	f1dd	BNE	A: 24	X: 1	Y: b3	SP: fd
f1dd	2007	STA	A: 24	X: 1	Y: b3	SP: fd
f1e0	0	DEY	A: 24	X: 1	Y: b3	SP: fd
f1e1	f1dd	BNE	A: 24	X: 1	Y: b2	SP: fd
f1dd	2007	STA	A: 24	X: 1	Y: b2	SP: fd
f1e0	0	DEY	A: 24	X: 1	Y: b2	SP: fd
f1e1	f1dd	BNE	A: 24	X: 1	Y: b1	SP: fd
f1dd	2007	STA	A: 24	X: 1	Y: b1	SP: fd
f1e0	0	DEY	A: 24	X: 1	Y: b1	SP: fd
f1e1	f1dd	BNE	A: 24	X: 1	Y: b0	SP: fd
f1dd	2007	STA	A: 24	X: 1	Y: b0	SP: fd
f1e0	0	DEY	A: 24	X: 1	Y: b0	SP: fd
f1e1	f1dd	BNE	A: 24	X: 1	Y: af	SP: fd
f1dd	2007	STA	A: 24	X: 1	Y: af	SP: fd
f1e0	0	DEY	A: 24	X: 1	Y: af	SP: fd
f1e1	f1dd	BNE	A: 24	X: 1	Y: ae	SP: fd
f1dd	2007	STA	A: 24	X: 1	Y: ae	SP: fd
f1e0	0	DEY	A: 24	X: 1	Y: ae	SP: fd
f1e1	f1dd	BNE	A: 24	X: 1	Y: ad	SP: fd
f1dd	2007	STA	A: 24	X: 1	Y: ad	SP: fd
f1e0	0	DEY	A: 24	X: 1	Y: ad	SP: fd
f1e1	f1dd	BNE	A: 24	X: 1	Y: ac	SP: fd
f1dd	2007	STA	A: 24	X: 1	Y: ac	SP: fd
f1e0	0	DEY	A: 24	X: 1	Y: ac	SP: fd
f1e1	f1dd	BNE	A: 24	X: 1	Y: ab	SP: fd
f1dd	2007	STA	A: 24	X: 1	Y: ab	SP: fd
f1e0	0	DEY	A: 24	X: 1	Y: ab	SP: fd
f1e1	f1dd	BNE	A: 24	X: 1	Y: aa	SP: fd
f1dd	2007	STA	A: 24	X: 1	Y: aa	SP: fd
f1e0	0	DEY	A: 24	X: 1	Y: aa	SP: fd
f1e1	f1dd	BNE	A: 24	X: 1	Y: a9	SP: fd
f1dd	2007	STA	A: 24	X: 1	Y: a9	SP: fd
f1e0	0	DEY	A: 24	X: 1	Y: a9	SP: fd
f1e1	f1dd	BNE	A: 24	X: 1	Y: a8	SP: fd
f1dd	2007	STA	A: 24	X: 1	Y: a8	SP: fd
f1e0	0	DEY	A: 24	X: 1	Y: a8	SP: fd
f1e1	f1dd	BNE	A: 24	X: 1	Y: a7	SP: fd
f1dd	2007	STA	A: 24	X: 1	Y: a7	SP: fd
f1e0	0	DEY	A: 24	X: 1	Y: a7	SP: fd
f1e1	f1dd	BNE	A: 24	X: 1	Y: a6	SP: fd
f1dd	2007	STA	A: 24	X: 1	Y: a6	SP: fd
f1e0	0	DEY	A: 24	X: 1	Y: a6	SP: fd
f1e1	f1dd	BNE	A: 24	X: 1	Y: a5	SP: fd
f1dd	2007	STA	A: 24	X: 1	Y: a5	SP: fd
f1e0	0	DEY	A: 24	X: 1	Y: a5	SP: fd
f1e1	f1dd	BNE	A: 24	X: 1	Y: a4	SP: fd
f1dd	2007	STA	A: 24	X: 1	Y: a4	SP: fd
f1e0	0	DEY	A: 24	X: 1	Y: a4	SP: fd
f1e1	f1dd	BNE	A: 24	X: 1	Y: a3	SP: fd
f1dd	2007	STA	A: 24	X: 1	Y: a3	SP: fd
f1e0	0	DEY	A: 24	X: 1	Y: a3	SP: fd
f1e1	f1dd	BNE	A: 24	X: 1	Y: a2	SP: fd
f1dd	2007	STA	A: 24	X: 1	Y: a2	SP: fd
f1e0	0	DEY	A: 24	X: 1	Y: a2	SP: fd
f1e1	f1dd	BNE	A: 24	X: 1	Y: a1	SP: fd
f1dd	2007	STA	A: 24	X: 1	Y: a1	SP: fd
f1e0	0	DEY	A: 24	X: 1	Y: a1	SP: fd
f1e1	f1dd	BNE	A: 24	X: 1	Y: a0	SP: fd
f1dd	2007	STA	A: 24	X: 1	Y: a0	SP: fd
f1e0	0	DEY	A: 24	X: 1	Y: a0	SP: fd
f1e1	f1dd	BNE	A: 24	X: 1	Y: 9f	SP: fd
f1dd	2007	STA	A: 24	X: 1	Y: 9f	SP: fd
f1e0	0	DEY	A: 24	X: 1	Y: 9f	SP: fd
f1e1	f1dd	BNE	A: 24	X: 1	Y: 9e	SP: fd
f1dd	2007	STA	A: 24	X: 1	Y: 9e	SP: fd
f1e0	0	DEY	A: 24	X: 1	Y: 9e	SP: fd
f1e1	f1dd	BNE	A: 24	X: 1	Y: 9d	SP: fd
f1dd	2007	STA	A: 24	X: 1	Y: 9d	SP: fd
f1e0	0	DEY	A: 24	X: 1	Y: 9d	SP: fd
f1e1	f1dd	BNE	A: 24	X: 1	Y: 9c	SP: fd
f1dd	2007	STA	A: 24	X: 1	Y: 9c	SP: fd
f1e0	0	DEY	A: 24	X: 1	Y: 9c	SP: fd
f1e1	f1dd	BNE	A: 24	X: 1	Y: 9b	SP: fd
f1dd	2007	STA	A: 24	X: 1	Y: 9b	SP: fd
f1e0	0	DEY	A: 24	X: 1	Y: 9b	SP: fd
f1e1	f1dd	BNE	A: 24	X: 1	Y: 9a	SP: fd
f1dd	2007	STA	A: 24	X: 1	Y: 9a	SP: fd
f1e0	0	DEY	A: 24	X: 1	Y: 9a	SP: fd
f1e1	f1dd	BNE	A: 24	X: 1	Y: 99	SP: fd
f1dd	2007	STA	A: 24	X: 1	Y: 99	SP: fd
f1e0	0	DEY	A: 24	X: 1	Y: 99	SP: fd
f1e1	f1dd	BNE	A: 24	X: 1	Y: 98	SP: fd
f1dd	2007	STA	A: 24	X: 1	Y: 98	SP: fd
f1e0	0	DEY	A: 24	X: 1	Y: 98	SP: fd
f1e1	f1dd	BNE	A: 24	X: 1	Y: 97	SP: fd
f1dd	2007	STA	A: 24	X: 1	Y: 97	SP: fd
f1e0	0	DEY	A: 24	X: 1	Y: 97	SP: fd
f1e1	f1dd	BNE	A: 24	X: 1	Y: 96	SP: fd
f1dd	2007	STA	A: 24	X: 1	Y: 96	SP: fd
f1e0	0	DEY	A: 24	X: 1	Y: 96	SP: fd
f1e1	f1dd	BNE	A: 24	X: 1	Y: 95	SP: fd
f1dd	2007	STA	A: 24	X: 1	Y: 95	SP: fd
f1e0	0	DEY	A: 24	X: 1	Y: 95	SP: fd
f1e1	f1dd	BNE	A: 24	X: 1	Y: 94	SP: fd
f1dd	2007	STA	A: 24	X: 1	Y: 94	SP: fd
f1e0	0	DEY	A: 24	X: 1	Y: 94	SP: fd
f1e1	f1dd	BNE	A: 24	X: 1	Y: 93	SP: fd
f1dd	2007	STA	A: 24	X: 1	Y: 93	SP: fd
f1e0	0	DEY	A: 24	X: 1	Y: 93	SP: fd
f1e1	f1dd	BNE	A: 24	X: 1	Y: 92	SP: fd
f1dd	2007	STA	A: 24	X: 1	Y: 92	SP: fd
f1e0	0	DEY	A: 24	X: 1	Y: 92	SP: fd
f1e1	f1dd	BNE	A: 24	X: 1	Y: 91	SP: fd
f1dd	2007	STA	A: 24	X: 1	Y: 91	SP: fd
f1e0	0	DEY	A: 24	X: 1	Y: 91	SP: fd
f1e1	f1dd	BNE	A: 24	X: 1	Y: 90	SP: fd
f1dd	2007	STA	A: 24	X: 1	Y: 90	SP: fd
f1e0	0	DEY	A: 24	X: 1	Y: 90	SP: fd
f1e1	f1dd	BNE	A: 24	X: 1	Y: 8f	SP: fd
f1dd	2007	STA	A: 24	X: 1	Y: 8f	SP: fd
f1e0	0	DEY	A: 24	X: 1	Y: 8f	SP: fd
f1e1	f1dd	BNE	A: 24	X: 1	Y: 8e	SP: fd
f1dd	2007	STA	A: 24	X: 1	Y: 8e	SP: fd
f1e0	0	DEY	A: 24	X: 1	Y: 8e	SP: fd
f1e1	f1dd	BNE	A: 24	X: 1	Y: 8d	SP: fd
f1dd	2007	STA	A: 24	X: 1	Y: 8d	SP: fd
f1e0	0	DEY	A: 24	X: 1	Y: 8d	SP: fd
f1e1	f1dd	BNE	A: 24	X: 1	Y: 8c	SP: fd
f1dd	2007	STA	A: 24	X: 1	Y: 8c	SP: fd
f1e0	0	DEY	A: 24	X: 1	Y: 8c	SP: fd
f1e1	f1dd	BNE	A: 24	X: 1	Y: 8b	SP: fd
f1dd	2007	STA	A: 24	X: 1	Y: 8b	SP: fd
f1e0	0	DEY	A: 24	X: 1	Y: 8b	SP: fd
f1e1	f1dd	BNE	A: 24	X: 1	Y: 8a	SP: fd
f1dd	2007	STA	A: 24	X: 1	Y: 8a	SP: fd
f1e0	0	DEY	A: 24	X: 1	Y: 8a	SP: fd
f1e1	f1dd	BNE	A: 24	X: 1	Y: 89	SP: fd
f1dd	2007	STA	A: 24	X: 1	Y: 89	SP: fd
f1e0	0	DEY	A: 24	X: 1	Y: 89	SP: fd
f1e1	f1dd	BNE	A: 24	X: 1	Y: 88	SP: fd
f1dd	2007	STA	A: 24	X: 1	Y: 88	SP: fd
f1e0	0	DEY	A: 24	X: 1	Y: 88	SP: fd
f1e1	f1dd	BNE	A: 24	X: 1	Y: 87	SP: fd
f1dd	2007	STA	A: 24	X: 1	Y: 87	SP: fd
f1e0	0	DEY	A: 24	X: 1	Y: 87	SP: fd
f1e1	f1dd	BNE	A: 24	X: 1	Y: 86	SP: fd
f1dd	2007	STA	A: 24	X: 1	Y: 86	SP: fd
f1e0	0	DEY	A: 24	X: 1	Y: 86	SP: fd
f1e1	f1dd	BNE	A: 24	X: 1	Y: 85	SP: fd
f1dd	2007	STA	A: 24	X: 1	Y: 85	SP: fd
f1e0	0	DEY	A: 24	X: 1	Y: 85	SP: fd
f1e1	f1dd	BNE	A: 24	X: 1	Y: 84	SP: fd
f1dd	2007	STA	A: 24	X: 1	Y: 84	SP: fd
f1e0	0	DEY	A: 24	X: 1	Y: 84	SP: fd
f1e1	f1dd	BNE	A: 24	X: 1	Y: 83	SP: fd
f1dd	2007	STA	A: 24	X: 1	Y: 83	SP: fd
f1e0	0	DEY	A: 24	X: 1	Y: 83	SP: fd
f1e1	f1dd	BNE	A: 24	X: 1	Y: 82	SP: fd
f1dd	2007	STA	A: 24	X: 1	Y: 82	SP: fd
f1e0	0	DEY	A: 24	X: 1	Y: 82	SP: fd
f1e1	f1dd	BNE	A: 24	X: 1	Y: 81	SP: fd
f1dd	2007	STA	A: 24	X: 1	Y: 81	SP: fd
f1e0	0	DEY	A: 24	X: 1	Y: 81	SP: fd
f1e1	f1dd	BNE	A: 24	X: 1	Y: 80	SP: fd
f1dd	2007	STA	A: 24	X: 1	Y: 80	SP: fd
f1e0	0	DEY	A: 24	X: 1	Y: 80	SP: fd
f1e1	f1dd	BNE	A: 24	X: 1	Y: 7f	SP: fd
f1dd	2007	STA	A: 24	X: 1	Y: 7f	SP: fd
f1e0	0	DEY	A: 24	X: 1	Y: 7f	SP: fd
f1e1	f1dd	BNE	A: 24	X: 1	Y: 7e	SP: fd
f1dd	2007	STA	A: 24	X: 1	Y: 7e	SP: fd
f1e0	0	DEY	A: 24	X: 1	Y: 7e	SP: fd
f1e1	f1dd	BNE	A: 24	X: 1	Y: 7d	SP: fd
f1dd	2007	STA	A: 24	X: 1	Y: 7d	SP: fd
f1e0	0	DEY	A: 24	X: 1	Y: 7d	SP: fd
f1e1	f1dd	BNE	A: 24	X: 1	Y: 7c	SP: fd
f1dd	2007	STA	A: 24	X: 1	Y: 7c	SP: fd
f1e0	0	DEY	A: 24	X: 1	Y: 7c	SP: fd
f1e1	f1dd	BNE	A: 24	X: 1	Y: 7b	SP: fd
f1dd	2007	STA	A: 24	X: 1	Y: 7b	SP: fd
f1e0	0	DEY	A: 24	X: 1	Y: 7b	SP: fd
f1e1	f1dd	BNE	A: 24	X: 1	Y: 7a	SP: fd
f1dd	2007	STA	A: 24	X: 1	Y: 7a	SP: fd
f1e0	0	DEY	A: 24	X: 1	Y: 7a	SP: fd
f1e1	f1dd	BNE	A: 24	X: 1	Y: 79	SP: fd
f1dd	2007	STA	A: 24	X: 1	Y: 79	SP: fd
f1e0	0	DEY	A: 24	X: 1	Y: 79	SP: fd
f1e1	f1dd	BNE	A: 24	X: 1	Y: 78	SP: fd
f1dd	2007	STA	A: 24	X: 1	Y: 78	SP: fd
f1e0	0	DEY	A: 24	X: 1	Y: 78	SP: fd
f1e1	f1dd	BNE	A: 24	X: 1	Y: 77	SP: fd
f1dd	2007	STA	A: 24	X: 1	Y: 77	SP: fd
f1e0	0	DEY	A: 24	X: 1	Y: 77	SP: fd
f1e1	f1dd	BNE	A: 24	X: 1	Y: 76	SP: fd
f1dd	2007	STA	A: 24	X: 1	Y: 76	SP: fd
f1e0	0	DEY	A: 24	X: 1	Y: 76	SP: fd
f1e1	f1dd	BNE	A: 24	X: 1	Y: 75	SP: fd
f1dd	2007	STA	A: 24	X: 1	Y: 75	SP: fd
f1e0	0	DEY	A: 24	X: 1	Y: 75	SP: fd
f1e1	f1dd	BNE	A: 24	X: 1	Y: 74	SP: fd
f1dd	2007	STA	A: 24	X: 1	Y: 74	SP: fd
f1e0	0	DEY	A: 24	X: 1	Y: 74	SP: fd
f1e1	f1dd	BNE	A: 24	X: 1	Y: 73	SP: fd
f1dd	2007	STA	A: 24	X: 1	Y: 73	SP: fd
f1e0	0	DEY	A: 24	X: 1	Y: 73	SP: fd
f1e1	f1dd	BNE	A: 24	X: 1	Y: 72	SP: fd
f1dd	2007	STA	A: 24	X: 1	Y: 72	SP: fd
f1e0	0	DEY	A: 24	X: 1	Y: 72	SP: fd
f1e1	f1dd	BNE	A: 24	X: 1	Y: 71	SP: fd
f1dd	2007	STA	A: 24	X: 1	Y: 71	SP: fd
f1e0	0	DEY	A: 24	X: 1	Y: 71	SP: fd
f1e1	f1dd	BNE	A: 24	X: 1	Y: 70	SP: fd
f1dd	2007	STA	A: 24	X: 1	Y: 70	SP: fd
f1e0	0	DEY	A: 24	X: 1	Y: 70	SP: fd
f1e1	f1dd	BNE	A: 24	X: 1	Y: 6f	SP: fd
f1dd	2007	STA	A: 24	X: 1	Y: 6f	SP: fd
f1e0	0	DEY	A: 24	X: 1	Y: 6f	SP: fd
f1e1	f1dd	BNE	A: 24	X: 1	Y: 6e	SP: fd
f1dd	2007	STA	A: 24	X: 1	Y: 6e	SP: fd
f1e0	0	DEY	A: 24	X: 1	Y: 6e	SP: fd
f1e1	f1dd	BNE	A: 24	X: 1	Y: 6d	SP: fd
f1dd	2007	STA	A: 24	X: 1	Y: 6d	SP: fd
f1e0	0	DEY	A: 24	X: 1	Y: 6d	SP: fd
f1e1	f1dd	BNE	A: 24	X: 1	Y: 6c	SP: fd
f1dd	2007	STA	A: 24	X: 1	Y: 6c	SP: fd
f1e0	0	DEY	A: 24	X: 1	Y: 6c	SP: fd
f1e1	f1dd	BNE	A: 24	X: 1	Y: 6b	SP: fd
f1dd	2007	STA	A: 24	X: 1	Y: 6b	SP: fd
f1e0	0	DEY	A: 24	X: 1	Y: 6b	SP: fd
f1e1	f1dd	BNE	A: 24	X: 1	Y: 6a	SP: fd
f1dd	2007	STA	A: 24	X: 1	Y: 6a	SP: fd
f1e0	0	DEY	A: 24	X: 1	Y: 6a	SP: fd
f1e1	f1dd	BNE	A: 24	X: 1	Y: 69	SP: fd
f1dd	2007	STA	A: 24	X: 1	Y: 69	SP: fd
f1e0	0	DEY	A: 24	X: 1	Y: 69	SP: fd
f1e1	f1dd	BNE	A: 24	X: 1	Y: 68	SP: fd
f1dd	2007	STA	A: 24	X: 1	Y: 68	SP: fd
f1e0	0	DEY	A: 24	X: 1	Y: 68	SP: fd
f1e1	f1dd	BNE	A: 24	X: 1	Y: 67	SP: fd
f1dd	2007	STA	A: 24	X: 1	Y: 67	SP: fd
f1e0	0	DEY	A: 24	X: 1	Y: 67	SP: fd
f1e1	f1dd	BNE	A: 24	X: 1	Y: 66	SP: fd
f1dd	2007	STA	A: 24	X: 1	Y: 66	SP: fd
f1e0	0	DEY	A: 24	X: 1	Y: 66	SP: fd
f1e1	f1dd	BNE	A: 24	X: 1	Y: 65	SP: fd
f1dd	2007	STA	A: 24	X: 1	Y: 65	SP: fd
f1e0	0	DEY	A: 24	X: 1	Y: 65	SP: fd
f1e1	f1dd	BNE	A: 24	X: 1	Y: 64	SP: fd
f1dd	2007	STA	A: 24	X: 1	Y: 64	SP: fd
f1e0	0	DEY	A: 24	X: 1	Y: 64	SP: fd
f1e1	f1dd	BNE	A: 24	X: 1	Y: 63	SP: fd
f1dd	2007	STA	A: 24	X: 1	Y: 63	SP: fd
f1e0	0	DEY	A: 24	X: 1	Y: 63	SP: fd
f1e1	f1dd	BNE	A: 24	X: 1	Y: 62	SP: fd
f1dd	2007	STA	A: 24	X: 1	Y: 62	SP: fd
f1e0	0	DEY	A: 24	X: 1	Y: 62	SP: fd
f1e1	f1dd	BNE	A: 24	X: 1	Y: 61	SP: fd
f1dd	2007	STA	A: 24	X: 1	Y: 61	SP: fd
f1e0	0	DEY	A: 24	X: 1	Y: 61	SP: fd
f1e1	f1dd	BNE	A: 24	X: 1	Y: 60	SP: fd
f1dd	2007	STA	A: 24	X: 1	Y: 60	SP: fd
f1e0	0	DEY	A: 24	X: 1	Y: 60	SP: fd
f1e1	f1dd	BNE	A: 24	X: 1	Y: 5f	SP: fd
f1dd	2007	STA	A: 24	X: 1	Y: 5f	SP: fd
f1e0	0	DEY	A: 24	X: 1	Y: 5f	SP: fd
f1e1	f1dd	BNE	A: 24	X: 1	Y: 5e	SP: fd
f1dd	2007	STA	A: 24	X: 1	Y: 5e	SP: fd
f1e0	0	DEY	A: 24	X: 1	Y: 5e	SP: fd
f1e1	f1dd	BNE	A: 24	X: 1	Y: 5d	SP: fd
f1dd	2007	STA	A: 24	X: 1	Y: 5d	SP: fd
f1e0	0	DEY	A: 24	X: 1	Y: 5d	SP: fd
f1e1	f1dd	BNE	A: 24	X: 1	Y: 5c	SP: fd
f1dd	2007	STA	A: 24	X: 1	Y: 5c	SP: fd
f1e0	0	DEY	A: 24	X: 1	Y: 5c	SP: fd
f1e1	f1dd	BNE	A: 24	X: 1	Y: 5b	SP: fd
f1dd	2007	STA	A: 24	X: 1	Y: 5b	SP: fd
f1e0	0	DEY	A: 24	X: 1	Y: 5b	SP: fd
f1e1	f1dd	BNE	A: 24	X: 1	Y: 5a	SP: fd
f1dd	2007	STA	A: 24	X: 1	Y: 5a	SP: fd
f1e0	0	DEY	A: 24	X: 1	Y: 5a	SP: fd
f1e1	f1dd	BNE	A: 24	X: 1	Y: 59	SP: fd
f1dd	2007	STA	A: 24	X: 1	Y: 59	SP: fd
f1e0	0	DEY	A: 24	X: 1	Y: 59	SP: fd
f1e1	f1dd	BNE	A: 24	X: 1	Y: 58	SP: fd
f1dd	2007	STA	A: 24	X: 1	Y: 58	SP: fd
f1e0	0	DEY	A: 24	X: 1	Y: 58	SP: fd
f1e1	f1dd	BNE	A: 24	X: 1	Y: 57	SP: fd
f1dd	2007	STA	A: 24	X: 1	Y: 57	SP: fd
f1e0	0	DEY	A: 24	X: 1	Y: 57	SP: fd
f1e1	f1dd	BNE	A: 24	X: 1	Y: 56	SP: fd
f1dd	2007	STA	A: 24	X: 1	Y: 56	SP: fd
f1e0	0	DEY	A: 24	X: 1	Y: 56	SP: fd
f1e1	f1dd	BNE	A: 24	X: 1	Y: 55	SP: fd
f1dd	2007	STA	A: 24	X: 1	Y: 55	SP: fd
f1e0	0	DEY	A: 24	X: 1	Y: 55	SP: fd
f1e1	f1dd	BNE	A: 24	X: 1	Y: 54	SP: fd
f1dd	2007	STA	A: 24	X: 1	Y: 54	SP: fd
f1e0	0	DEY	A: 24	X: 1	Y: 54	SP: fd
f1e1	f1dd	BNE	A: 24	X: 1	Y: 53	SP: fd
f1dd	2007	STA	A: 24	X: 1	Y: 53	SP: fd
f1e0	0	DEY	A: 24	X: 1	Y: 53	SP: fd
f1e1	f1dd	BNE	A: 24	X: 1	Y: 52	SP: fd
f1dd	2007	STA	A: 24	X: 1	Y: 52	SP: fd
f1e0	0	DEY	A: 24	X: 1	Y: 52	SP: fd
f1e1	f1dd	BNE	A: 24	X: 1	Y: 51	SP: fd
f1dd	2007	STA	A: 24	X: 1	Y: 51	SP: fd
f1e0	0	DEY	A: 24	X: 1	Y: 51	SP: fd
f1e1	f1dd	BNE	A: 24	X: 1	Y: 50	SP: fd
f1dd	2007	STA	A: 24	X: 1	Y: 50	SP: fd
f1e0	0	DEY	A: 24	X: 1	Y: 50	SP: fd
f1e1	f1dd	BNE	A: 24	X: 1	Y: 4f	SP: fd
f1dd	2007	STA	A: 24	X: 1	Y: 4f	SP: fd
f1e0	0	DEY	A: 24	X: 1	Y: 4f	SP: fd
f1e1	f1dd	BNE	A: 24	X: 1	Y: 4e	SP: fd
f1dd	2007	STA	A: 24	X: 1	Y: 4e	SP: fd
f1e0	0	DEY	A: 24	X: 1	Y: 4e	SP: fd
f1e1	f1dd	BNE	A: 24	X: 1	Y: 4d	SP: fd
f1dd	2007	STA	A: 24	X: 1	Y: 4d	SP: fd
f1e0	0	DEY	A: 24	X: 1	Y: 4d	SP: fd
f1e1	f1dd	BNE	A: 24	X: 1	Y: 4c	SP: fd
f1dd	2007	STA	A: 24	X: 1	Y: 4c	SP: fd
f1e0	0	DEY	A: 24	X: 1	Y: 4c	SP: fd
f1e1	f1dd	BNE	A: 24	X: 1	Y: 4b	SP: fd
f1dd	2007	STA	A: 24	X: 1	Y: 4b	SP: fd
f1e0	0	DEY	A: 24	X: 1	Y: 4b	SP: fd
f1e1	f1dd	BNE	A: 24	X: 1	Y: 4a	SP: fd
f1dd	2007	STA	A: 24	X: 1	Y: 4a	SP: fd
f1e0	0	DEY	A: 24	X: 1	Y: 4a	SP: fd
f1e1	f1dd	BNE	A: 24	X: 1	Y: 49	SP: fd
f1dd	2007	STA	A: 24	X: 1	Y: 49	SP: fd
f1e0	0	DEY	A: 24	X: 1	Y: 49	SP: fd
f1e1	f1dd	BNE	A: 24	X: 1	Y: 48	SP: fd
f1dd	2007	STA	A: 24	X: 1	Y: 48	SP: fd
f1e0	0	DEY	A: 24	X: 1	Y: 48	SP: fd
f1e1	f1dd	BNE	A: 24	X: 1	Y: 47	SP: fd
f1dd	2007	STA	A: 24	X: 1	Y: 47	SP: fd
f1e0	0	DEY	A: 24	X: 1	Y: 47	SP: fd
f1e1	f1dd	BNE	A: 24	X: 1	Y: 46	SP: fd
f1dd	2007	STA	A: 24	X: 1	Y: 46	SP: fd
f1e0	0	DEY	A: 24	X: 1	Y: 46	SP: fd
f1e1	f1dd	BNE	A: 24	X: 1	Y: 45	SP: fd
f1dd	2007	STA	A: 24	X: 1	Y: 45	SP: fd
f1e0	0	DEY	A: 24	X: 1	Y: 45	SP: fd
f1e1	f1dd	BNE	A: 24	X: 1	Y: 44	SP: fd
f1dd	2007	STA	A: 24	X: 1	Y: 44	SP: fd
f1e0	0	DEY	A: 24	X: 1	Y: 44	SP: fd
f1e1	f1dd	BNE	A: 24	X: 1	Y: 43	SP: fd
f1dd	2007	STA	A: 24	X: 1	Y: 43	SP: fd
f1e0	0	DEY	A: 24	X: 1	Y: 43	SP: fd
f1e1	f1dd	BNE	A: 24	X: 1	Y: 42	SP: fd
f1dd	2007	STA	A: 24	X: 1	Y: 42	SP: fd
f1e0	0	DEY	A: 24	X: 1	Y: 42	SP: fd
f1e1	f1dd	BNE	A: 24	X: 1	Y: 41	SP: fd
f1dd	2007	STA	A: 24	X: 1	Y: 41	SP: fd
f1e0	0	DEY	A: 24	X: 1	Y: 41	SP: fd
f1e1	f1dd	BNE	A: 24	X: 1	Y: 40	SP: fd
f1dd	2007	STA	A: 24	X: 1	Y: 40	SP: fd
f1e0	0	DEY	A: 24	X: 1	Y: 40	SP: fd
f1e1	f1dd	BNE	A: 24	X: 1	Y: 3f	SP: fd
f1dd	2007	STA	A: 24	X: 1	Y: 3f	SP: fd
f1e0	0	DEY	A: 24	X: 1	Y: 3f	SP: fd
f1e1	f1dd	BNE	A: 24	X: 1	Y: 3e	SP: fd
f1dd	2007	STA	A: 24	X: 1	Y: 3e	SP: fd
f1e0	0	DEY	A: 24	X: 1	Y: 3e	SP: fd
f1e1	f1dd	BNE	A: 24	X: 1	Y: 3d	SP: fd
f1dd	2007	STA	A: 24	X: 1	Y: 3d	SP: fd
f1e0	0	DEY	A: 24	X: 1	Y: 3d	SP: fd
f1e1	f1dd	BNE	A: 24	X: 1	Y: 3c	SP: fd
f1dd	2007	STA	A: 24	X: 1	Y: 3c	SP: fd
f1e0	0	DEY	A: 24	X: 1	Y: 3c	SP: fd
f1e1	f1dd	BNE	A: 24	X: 1	Y: 3b	SP: fd
f1dd	2007	STA	A: 24	X: 1	Y: 3b	SP: fd
f1e0	0	DEY	A: 24	X: 1	Y: 3b	SP: fd
f1e1	f1dd	BNE	A: 24	X: 1	Y: 3a	SP: fd
f1dd	2007	STA	A: 24	X: 1	Y: 3a	SP: fd
f1e0	0	DEY	A: 24	X: 1	Y: 3a	SP: fd
f1e1	f1dd	BNE	A: 24	X: 1	Y: 39	SP: fd
f1dd	2007	STA	A: 24	X: 1	Y: 39	SP: fd
f1e0	0	DEY	A: 24	X: 1	Y: 39	SP: fd
f1e1	f1dd	BNE	A: 24	X: 1	Y: 38	SP: fd
f1dd	2007	STA	A: 24	X: 1	Y: 38	SP: fd
f1e0	0	DEY	A: 24	X: 1	Y: 38	SP: fd
f1e1	f1dd	BNE	A: 24	X: 1	Y: 37	SP: fd
f1dd	2007	STA	A: 24	X: 1	Y: 37	SP: fd
f1e0	0	DEY	A: 24	X: 1	Y: 37	SP: fd
f1e1	f1dd	BNE	A: 24	X: 1	Y: 36	SP: fd
f1dd	2007	STA	A: 24	X: 1	Y: 36	SP: fd
f1e0	0	DEY	A: 24	X: 1	Y: 36	SP: fd
f1e1	f1dd	BNE	A: 24	X: 1	Y: 35	SP: fd
f1dd	2007	STA	A: 24	X: 1	Y: 35	SP: fd
f1e0	0	DEY	A: 24	X: 1	Y: 35	SP: fd
f1e1	f1dd	BNE	A: 24	X: 1	Y: 34	SP: fd
f1dd	2007	STA	A: 24	X: 1	Y: 34	SP: fd
f1e0	0	DEY	A: 24	X: 1	Y: 34	SP: fd
f1e1	f1dd	BNE	A: 24	X: 1	Y: 33	SP: fd
f1dd	2007	STA	A: 24	X: 1	Y: 33	SP: fd
f1e0	0	DEY	A: 24	X: 1	Y: 33	SP: fd
f1e1	f1dd	BNE	A: 24	X: 1	Y: 32	SP: fd
f1dd	2007	STA	A: 24	X: 1	Y: 32	SP: fd
f1e0	0	DEY	A: 24	X: 1	Y: 32	SP: fd
f1e1	f1dd	BNE	A: 24	X: 1	Y: 31	SP: fd
f1dd	2007	STA	A: 24	X: 1	Y: 31	SP: fd
f1e0	0	DEY	A: 24	X: 1	Y: 31	SP: fd
f1e1	f1dd	BNE	A: 24	X: 1	Y: 30	SP: fd
f1dd	2007	STA	A: 24	X: 1	Y: 30	SP: fd
f1e0	0	DEY	A: 24	X: 1	Y: 30	SP: fd
f1e1	f1dd	BNE	A: 24	X: 1	Y: 2f	SP: fd
f1dd	2007	STA	A: 24	X: 1	Y: 2f	SP: fd
f1e0	0	DEY	A: 24	X: 1	Y: 2f	SP: fd
f1e1	f1dd	BNE	A: 24	X: 1	Y: 2e	SP: fd
f1dd	2007	STA	A: 24	X: 1	Y: 2e	SP: fd
f1e0	0	DEY	A: 24	X: 1	Y: 2e	SP: fd
f1e1	f1dd	BNE	A: 24	X: 1	Y: 2d	SP: fd
f1dd	2007	STA	A: 24	X: 1	Y: 2d	SP: fd
f1e0	0	DEY	A: 24	X: 1	Y: 2d	SP: fd
f1e1	f1dd	BNE	A: 24	X: 1	Y: 2c	SP: fd
f1dd	2007	STA	A: 24	X: 1	Y: 2c	SP: fd
f1e0	0	DEY	A: 24	X: 1	Y: 2c	SP: fd
f1e1	f1dd	BNE	A: 24	X: 1	Y: 2b	SP: fd
f1dd	2007	STA	A: 24	X: 1	Y: 2b	SP: fd
f1e0	0	DEY	A: 24	X: 1	Y: 2b	SP: fd
f1e1	f1dd	BNE	A: 24	X: 1	Y: 2a	SP: fd
f1dd	2007	STA	A: 24	X: 1	Y: 2a	SP: fd
f1e0	0	DEY	A: 24	X: 1	Y: 2a	SP: fd
f1e1	f1dd	BNE	A: 24	X: 1	Y: 29	SP: fd
f1dd	2007	STA	A: 24	X: 1	Y: 29	SP: fd
f1e0	0	DEY	A: 24	X: 1	Y: 29	SP: fd
f1e1	f1dd	BNE	A: 24	X: 1	Y: 28	SP: fd
f1dd	2007	STA	A: 24	X: 1	Y: 28	SP: fd
f1e0	0	DEY	A: 24	X: 1	Y: 28	SP: fd
f1e1	f1dd	BNE	A: 24	X: 1	Y: 27	SP: fd
f1dd	2007	STA	A: 24	X: 1	Y: 27	SP: fd
f1e0	0	DEY	A: 24	X: 1	Y: 27	SP: fd
f1e1	f1dd	BNE	A: 24	X: 1	Y: 26	SP: fd
f1dd	2007	STA	A: 24	X: 1	Y: 26	SP: fd
f1e0	0	DEY	A: 24	X: 1	Y: 26	SP: fd
f1e1	f1dd	BNE	A: 24	X: 1	Y: 25	SP: fd
f1dd	2007	STA	A: 24	X: 1	Y: 25	SP: fd
f1e0	0	DEY	A: 24	X: 1	Y: 25	SP: fd
f1e1	f1dd	BNE	A: 24	X: 1	Y: 24	SP: fd
f1dd	2007	STA	A: 24	X: 1	Y: 24	SP: fd
f1e0	0	DEY	A: 24	X: 1	Y: 24	SP: fd
f1e1	f1dd	BNE	A: 24	X: 1	Y: 23	SP: fd
f1dd	2007	STA	A: 24	X: 1	Y: 23	SP: fd
f1e0	0	DEY	A: 24	X: 1	Y: 23	SP: fd
f1e1	f1dd	BNE	A: 24	X: 1	Y: 22	SP: fd
f1dd	2007	STA	A: 24	X: 1	Y: 22	SP: fd
f1e0	0	DEY	A: 24	X: 1	Y: 22	SP: fd
f1e1	f1dd	BNE	A: 24	X: 1	Y: 21	SP: fd
f1dd	2007	STA	A: 24	X: 1	Y: 21	SP: fd
f1e0	0	DEY	A: 24	X: 1	Y: 21	SP: fd
f1e1	f1dd	BNE	A: 24	X: 1	Y: 20	SP: fd
f1dd	2007	STA	A: 24	X: 1	Y: 20	SP: fd
f1e0	0	DEY	A: 24	X: 1	Y: 20	SP: fd
f1e1	f1dd	BNE	A: 24	X: 1	Y: 1f	SP: fd
f1dd	2007	STA	A: 24	X: 1	Y: 1f	SP: fd
f1e0	0	DEY	A: 24	X: 1	Y: 1f	SP: fd
f1e1	f1dd	BNE	A: 24	X: 1	Y: 1e	SP: fd
f1dd	2007	STA	A: 24	X: 1	Y: 1e	SP: fd
f1e0	0	DEY	A: 24	X: 1	Y: 1e	SP: fd
f1e1	f1dd	BNE	A: 24	X: 1	Y: 1d	SP: fd
f1dd	2007	STA	A: 24	X: 1	Y: 1d	SP: fd
f1e0	0	DEY	A: 24	X: 1	Y: 1d	SP: fd
f1e1	f1dd	BNE	A: 24	X: 1	Y: 1c	SP: fd
f1dd	2007	STA	A: 24	X: 1	Y: 1c	SP: fd
f1e0	0	DEY	A: 24	X: 1	Y: 1c	SP: fd
f1e1	f1dd	BNE	A: 24	X: 1	Y: 1b	SP: fd
f1dd	2007	STA	A: 24	X: 1	Y: 1b	SP: fd
f1e0	0	DEY	A: 24	X: 1	Y: 1b	SP: fd
f1e1	f1dd	BNE	A: 24	X: 1	Y: 1a	SP: fd
f1dd	2007	STA	A: 24	X: 1	Y: 1a	SP: fd
f1e0	0	DEY	A: 24	X: 1	Y: 1a	SP: fd
f1e1	f1dd	BNE	A: 24	X: 1	Y: 19	SP: fd
f1dd	2007	STA	A: 24	X: 1	Y: 19	SP: fd
f1e0	0	DEY	A: 24	X: 1	Y: 19	SP: fd
f1e1	f1dd	BNE	A: 24	X: 1	Y: 18	SP: fd
f1dd	2007	STA	A: 24	X: 1	Y: 18	SP: fd
f1e0	0	DEY	A: 24	X: 1	Y: 18	SP: fd
f1e1	f1dd	BNE	A: 24	X: 1	Y: 17	SP: fd
f1dd	2007	STA	A: 24	X: 1	Y: 17	SP: fd
f1e0	0	DEY	A: 24	X: 1	Y: 17	SP: fd
f1e1	f1dd	BNE	A: 24	X: 1	Y: 16	SP: fd
f1dd	2007	STA	A: 24	X: 1	Y: 16	SP: fd
f1e0	0	DEY	A: 24	X: 1	Y: 16	SP: fd
f1e1	f1dd	BNE	A: 24	X: 1	Y: 15	SP: fd
f1dd	2007	STA	A: 24	X: 1	Y: 15	SP: fd
f1e0	0	DEY	A: 24	X: 1	Y: 15	SP: fd
f1e1	f1dd	BNE	A: 24	X: 1	Y: 14	SP: fd
f1dd	2007	STA	A: 24	X: 1	Y: 14	SP: fd
f1e0	0	DEY	A: 24	X: 1	Y: 14	SP: fd
f1e1	f1dd	BNE	A: 24	X: 1	Y: 13	SP: fd
f1dd	2007	STA	A: 24	X: 1	Y: 13	SP: fd
f1e0	0	DEY	A: 24	X: 1	Y: 13	SP: fd
f1e1	f1dd	BNE	A: 24	X: 1	Y: 12	SP: fd
f1dd	2007	STA	A: 24	X: 1	Y: 12	SP: fd
f1e0	0	DEY	A: 24	X: 1	Y: 12	SP: fd
f1e1	f1dd	BNE	A: 24	X: 1	Y: 11	SP: fd
f1dd	2007	STA	A: 24	X: 1	Y: 11	SP: fd
f1e0	0	DEY	A: 24	X: 1	Y: 11	SP: fd
f1e1	f1dd	BNE	A: 24	X: 1	Y: 10	SP: fd
f1dd	2007	STA	A: 24	X: 1	Y: 10	SP: fd
f1e0	0	DEY	A: 24	X: 1	Y: 10	SP: fd
f1e1	f1dd	BNE	A: 24	X: 1	Y: f	SP: fd
f1dd	2007	STA	A: 24	X: 1	Y: f	SP: fd
f1e0	0	DEY	A: 24	X: 1	Y: f	SP: fd
f1e1	f1dd	BNE	A: 24	X: 1	Y: e	SP: fd
f1dd	2007	STA	A: 24	X: 1	Y: e	SP: fd
f1e0	0	DEY	A: 24	X: 1	Y: e	SP: fd
f1e1	f1dd	BNE	A: 24	X: 1	Y: d	SP: fd
f1dd	2007	STA	A: 24	X: 1	Y: d	SP: fd
f1e0	0	DEY	A: 24	X: 1	Y: d	SP: fd
f1e1	f1dd	BNE	A: 24	X: 1	Y: c	SP: fd
f1dd	2007	STA	A: 24	X: 1	Y: c	SP: fd
f1e0	0	DEY	A: 24	X: 1	Y: c	SP: fd
f1e1	f1dd	BNE	A: 24	X: 1	Y: b	SP: fd
f1dd	2007	STA	A: 24	X: 1	Y: b	SP: fd
f1e0	0	DEY	A: 24	X: 1	Y: b	SP: fd
f1e1	f1dd	BNE	A: 24	X: 1	Y: a	SP: fd
f1dd	2007	STA	A: 24	X: 1	Y: a	SP: fd
f1e0	0	DEY	A: 24	X: 1	Y: a	SP: fd
f1e1	f1dd	BNE	A: 24	X: 1	Y: 9	SP: fd
f1dd	2007	STA	A: 24	X: 1	Y: 9	SP: fd
f1e0	0	DEY	A: 24	X: 1	Y: 9	SP: fd
f1e1	f1dd	BNE	A: 24	X: 1	Y: 8	SP: fd
f1dd	2007	STA	A: 24	X: 1	Y: 8	SP: fd
f1e0	0	DEY	A: 24	X: 1	Y: 8	SP: fd
f1e1	f1dd	BNE	A: 24	X: 1	Y: 7	SP: fd
f1dd	2007	STA	A: 24	X: 1	Y: 7	SP: fd
f1e0	0	DEY	A: 24	X: 1	Y: 7	SP: fd
f1e1	f1dd	BNE	A: 24	X: 1	Y: 6	SP: fd
f1dd	2007	STA	A: 24	X: 1	Y: 6	SP: fd
f1e0	0	DEY	A: 24	X: 1	Y: 6	SP: fd
f1e1	f1dd	BNE	A: 24	X: 1	Y: 5	SP: fd
f1dd	2007	STA	A: 24	X: 1	Y: 5	SP: fd
f1e0	0	DEY	A: 24	X: 1	Y: 5	SP: fd
f1e1	f1dd	BNE	A: 24	X: 1	Y: 4	SP: fd
f1dd	2007	STA	A: 24	X: 1	Y: 4	SP: fd
f1e0	0	DEY	A: 24	X: 1	Y: 4	SP: fd
f1e1	f1dd	BNE	A: 24	X: 1	Y: 3	SP: fd
f1dd	2007	STA	A: 24	X: 1	Y: 3	SP: fd
f1e0	0	DEY	A: 24	X: 1	Y: 3	SP: fd
f1e1	f1dd	BNE	A: 24	X: 1	Y: 2	SP: fd
f1dd	2007	STA	A: 24	X: 1	Y: 2	SP: fd
f1e0	0	DEY	A: 24	X: 1	Y: 2	SP: fd
f1e1	f1dd	BNE	A: 24	X: 1	Y: 1	SP: fd
f1dd	2007	STA	A: 24	X: 1	Y: 1	SP: fd
f1e0	0	DEY	A: 24	X: 1	Y: 1	SP: fd
f1e1	f1dd	BNE	A: 24	X: 1	Y: 0	SP: fd
f1e3	0	DEX	A: 24	X: 1	Y: 0	SP: fd
f1e4	f1dd	BNE	A: 24	X: 0	Y: 0	SP: fd
f1e6	f1e7	LDA	A: 24	X: 0	Y: 0	SP: fd
f1e8	2006	STA	A: 23	X: 0	Y: 0	SP: fd
f1eb	f1ec	LDA	A: 23	X: 0	Y: 0	SP: fd
f1ed	2006	STA	A: c0	X: 0	Y: 0	SP: fd
f1f0	f1f1	LDY	A: c0	X: 0	Y: 0	SP: fd
f1f2	f1f3	LDA	A: c0	X: 0	Y: 40	SP: fd
f1f4	2007	STA	A: 0	X: 0	Y: 40	SP: fd
f1f7	0	DEY	A: 0	X: 0	Y: 40	SP: fd
f1f8	f1f4	BNE	A: 0	X: 0	Y: 3f	SP: fd
f1f4	2007	STA	A: 0	X: 0	Y: 3f	SP: fd
f1f7	0	DEY	A: 0	X: 0	Y: 3f	SP: fd
f1f8	f1f4	BNE	A: 0	X: 0	Y: 3e	SP: fd
f1f4	2007	STA	A: 0	X: 0	Y: 3e	SP: fd
f1f7	0	DEY	A: 0	X: 0	Y: 3e	SP: fd
f1f8	f1f4	BNE	A: 0	X: 0	Y: 3d	SP: fd
f1f4	2007	STA	A: 0	X: 0	Y: 3d	SP: fd
f1f7	0	DEY	A: 0	X: 0	Y: 3d	SP: fd
f1f8	f1f4	BNE	A: 0	X: 0	Y: 3c	SP: fd
f1f4	2007	STA	A: 0	X: 0	Y: 3c	SP: fd
f1f7	0	DEY	A: 0	X: 0	Y: 3c	SP: fd
f1f8	f1f4	BNE	A: 0	X: 0	Y: 3b	SP: fd
f1f4	2007	STA	A: 0	X: 0	Y: 3b	SP: fd
f1f7	0	DEY	A: 0	X: 0	Y: 3b	SP: fd
f1f8	f1f4	BNE	A: 0	X: 0	Y: 3a	SP: fd
f1f4	2007	STA	A: 0	X: 0	Y: 3a	SP: fd
f1f7	0	DEY	A: 0	X: 0	Y: 3a	SP: fd
f1f8	f1f4	BNE	A: 0	X: 0	Y: 39	SP: fd
f1f4	2007	STA	A: 0	X: 0	Y: 39	SP: fd
f1f7	0	DEY	A: 0	X: 0	Y: 39	SP: fd
f1f8	f1f4	BNE	A: 0	X: 0	Y: 38	SP: fd
f1f4	2007	STA	A: 0	X: 0	Y: 38	SP: fd
f1f7	0	DEY	A: 0	X: 0	Y: 38	SP: fd
f1f8	f1f4	BNE	A: 0	X: 0	Y: 37	SP: fd
f1f4	2007	STA	A: 0	X: 0	Y: 37	SP: fd
f1f7	0	DEY	A: 0	X: 0	Y: 37	SP: fd
f1f8	f1f4	BNE	A: 0	X: 0	Y: 36	SP: fd
f1f4	2007	STA	A: 0	X: 0	Y: 36	SP: fd
f1f7	0	DEY	A: 0	X: 0	Y: 36	SP: fd
f1f8	f1f4	BNE	A: 0	X: 0	Y: 35	SP: fd
f1f4	2007	STA	A: 0	X: 0	Y: 35	SP: fd
f1f7	0	DEY	A: 0	X: 0	Y: 35	SP: fd
f1f8	f1f4	BNE	A: 0	X: 0	Y: 34	SP: fd
f1f4	2007	STA	A: 0	X: 0	Y: 34	SP: fd
f1f7	0	DEY	A: 0	X: 0	Y: 34	SP: fd
f1f8	f1f4	BNE	A: 0	X: 0	Y: 33	SP: fd
f1f4	2007	STA	A: 0	X: 0	Y: 33	SP: fd
f1f7	0	DEY	A: 0	X: 0	Y: 33	SP: fd
f1f8	f1f4	BNE	A: 0	X: 0	Y: 32	SP: fd
f1f4	2007	STA	A: 0	X: 0	Y: 32	SP: fd
f1f7	0	DEY	A: 0	X: 0	Y: 32	SP: fd
f1f8	f1f4	BNE	A: 0	X: 0	Y: 31	SP: fd
f1f4	2007	STA	A: 0	X: 0	Y: 31	SP: fd
f1f7	0	DEY	A: 0	X: 0	Y: 31	SP: fd
f1f8	f1f4	BNE	A: 0	X: 0	Y: 30	SP: fd
f1f4	2007	STA	A: 0	X: 0	Y: 30	SP: fd
f1f7	0	DEY	A: 0	X: 0	Y: 30	SP: fd
f1f8	f1f4	BNE	A: 0	X: 0	Y: 2f	SP: fd
f1f4	2007	STA	A: 0	X: 0	Y: 2f	SP: fd
f1f7	0	DEY	A: 0	X: 0	Y: 2f	SP: fd
f1f8	f1f4	BNE	A: 0	X: 0	Y: 2e	SP: fd
f1f4	2007	STA	A: 0	X: 0	Y: 2e	SP: fd
f1f7	0	DEY	A: 0	X: 0	Y: 2e	SP: fd
f1f8	f1f4	BNE	A: 0	X: 0	Y: 2d	SP: fd
f1f4	2007	STA	A: 0	X: 0	Y: 2d	SP: fd
f1f7	0	DEY	A: 0	X: 0	Y: 2d	SP: fd
f1f8	f1f4	BNE	A: 0	X: 0	Y: 2c	SP: fd
f1f4	2007	STA	A: 0	X: 0	Y: 2c	SP: fd
f1f7	0	DEY	A: 0	X: 0	Y: 2c	SP: fd
f1f8	f1f4	BNE	A: 0	X: 0	Y: 2b	SP: fd
f1f4	2007	STA	A: 0	X: 0	Y: 2b	SP: fd
f1f7	0	DEY	A: 0	X: 0	Y: 2b	SP: fd
f1f8	f1f4	BNE	A: 0	X: 0	Y: 2a	SP: fd
f1f4	2007	STA	A: 0	X: 0	Y: 2a	SP: fd
f1f7	0	DEY	A: 0	X: 0	Y: 2a	SP: fd
f1f8	f1f4	BNE	A: 0	X: 0	Y: 29	SP: fd
f1f4	2007	STA	A: 0	X: 0	Y: 29	SP: fd
f1f7	0	DEY	A: 0	X: 0	Y: 29	SP: fd
f1f8	f1f4	BNE	A: 0	X: 0	Y: 28	SP: fd
f1f4	2007	STA	A: 0	X: 0	Y: 28	SP: fd
f1f7	0	DEY	A: 0	X: 0	Y: 28	SP: fd
f1f8	f1f4	BNE	A: 0	X: 0	Y: 27	SP: fd
f1f4	2007	STA	A: 0	X: 0	Y: 27	SP: fd
f1f7	0	DEY	A: 0	X: 0	Y: 27	SP: fd
f1f8	f1f4	BNE	A: 0	X: 0	Y: 26	SP: fd
f1f4	2007	STA	A: 0	X: 0	Y: 26	SP: fd
f1f7	0	DEY	A: 0	X: 0	Y: 26	SP: fd
f1f8	f1f4	BNE	A: 0	X: 0	Y: 25	SP: fd
f1f4	2007	STA	A: 0	X: 0	Y: 25	SP: fd
f1f7	0	DEY	A: 0	X: 0	Y: 25	SP: fd
f1f8	f1f4	BNE	A: 0	X: 0	Y: 24	SP: fd
f1f4	2007	STA	A: 0	X: 0	Y: 24	SP: fd
f1f7	0	DEY	A: 0	X: 0	Y: 24	SP: fd
f1f8	f1f4	BNE	A: 0	X: 0	Y: 23	SP: fd
f1f4	2007	STA	A: 0	X: 0	Y: 23	SP: fd
f1f7	0	DEY	A: 0	X: 0	Y: 23	SP: fd
f1f8	f1f4	BNE	A: 0	X: 0	Y: 22	SP: fd
f1f4	2007	STA	A: 0	X: 0	Y: 22	SP: fd
f1f7	0	DEY	A: 0	X: 0	Y: 22	SP: fd
f1f8	f1f4	BNE	A: 0	X: 0	Y: 21	SP: fd
f1f4	2007	STA	A: 0	X: 0	Y: 21	SP: fd
f1f7	0	DEY	A: 0	X: 0	Y: 21	SP: fd
f1f8	f1f4	BNE	A: 0	X: 0	Y: 20	SP: fd
f1f4	2007	STA	A: 0	X: 0	Y: 20	SP: fd
f1f7	0	DEY	A: 0	X: 0	Y: 20	SP: fd
f1f8	f1f4	BNE	A: 0	X: 0	Y: 1f	SP: fd
f1f4	2007	STA	A: 0	X: 0	Y: 1f	SP: fd
f1f7	0	DEY	A: 0	X: 0	Y: 1f	SP: fd
f1f8	f1f4	BNE	A: 0	X: 0	Y: 1e	SP: fd
f1f4	2007	STA	A: 0	X: 0	Y: 1e	SP: fd
f1f7	0	DEY	A: 0	X: 0	Y: 1e	SP: fd
f1f8	f1f4	BNE	A: 0	X: 0	Y: 1d	SP: fd
f1f4	2007	STA	A: 0	X: 0	Y: 1d	SP: fd
f1f7	0	DEY	A: 0	X: 0	Y: 1d	SP: fd
f1f8	f1f4	BNE	A: 0	X: 0	Y: 1c	SP: fd
f1f4	2007	STA	A: 0	X: 0	Y: 1c	SP: fd
f1f7	0	DEY	A: 0	X: 0	Y: 1c	SP: fd
f1f8	f1f4	BNE	A: 0	X: 0	Y: 1b	SP: fd
f1f4	2007	STA	A: 0	X: 0	Y: 1b	SP: fd
f1f7	0	DEY	A: 0	X: 0	Y: 1b	SP: fd
f1f8	f1f4	BNE	A: 0	X: 0	Y: 1a	SP: fd
f1f4	2007	STA	A: 0	X: 0	Y: 1a	SP: fd
f1f7	0	DEY	A: 0	X: 0	Y: 1a	SP: fd
f1f8	f1f4	BNE	A: 0	X: 0	Y: 19	SP: fd
f1f4	2007	STA	A: 0	X: 0	Y: 19	SP: fd
f1f7	0	DEY	A: 0	X: 0	Y: 19	SP: fd
f1f8	f1f4	BNE	A: 0	X: 0	Y: 18	SP: fd
f1f4	2007	STA	A: 0	X: 0	Y: 18	SP: fd
f1f7	0	DEY	A: 0	X: 0	Y: 18	SP: fd
f1f8	f1f4	BNE	A: 0	X: 0	Y: 17	SP: fd
f1f4	2007	STA	A: 0	X: 0	Y: 17	SP: fd
f1f7	0	DEY	A: 0	X: 0	Y: 17	SP: fd
f1f8	f1f4	BNE	A: 0	X: 0	Y: 16	SP: fd
f1f4	2007	STA	A: 0	X: 0	Y: 16	SP: fd
f1f7	0	DEY	A: 0	X: 0	Y: 16	SP: fd
f1f8	f1f4	BNE	A: 0	X: 0	Y: 15	SP: fd
f1f4	2007	STA	A: 0	X: 0	Y: 15	SP: fd
f1f7	0	DEY	A: 0	X: 0	Y: 15	SP: fd
f1f8	f1f4	BNE	A: 0	X: 0	Y: 14	SP: fd
f1f4	2007	STA	A: 0	X: 0	Y: 14	SP: fd
f1f7	0	DEY	A: 0	X: 0	Y: 14	SP: fd
f1f8	f1f4	BNE	A: 0	X: 0	Y: 13	SP: fd
f1f4	2007	STA	A: 0	X: 0	Y: 13	SP: fd
f1f7	0	DEY	A: 0	X: 0	Y: 13	SP: fd
f1f8	f1f4	BNE	A: 0	X: 0	Y: 12	SP: fd
f1f4	2007	STA	A: 0	X: 0	Y: 12	SP: fd
f1f7	0	DEY	A: 0	X: 0	Y: 12	SP: fd
f1f8	f1f4	BNE	A: 0	X: 0	Y: 11	SP: fd
f1f4	2007	STA	A: 0	X: 0	Y: 11	SP: fd
f1f7	0	DEY	A: 0	X: 0	Y: 11	SP: fd
f1f8	f1f4	BNE	A: 0	X: 0	Y: 10	SP: fd
f1f4	2007	STA	A: 0	X: 0	Y: 10	SP: fd
f1f7	0	DEY	A: 0	X: 0	Y: 10	SP: fd
f1f8	f1f4	BNE	A: 0	X: 0	Y: f	SP: fd
f1f4	2007	STA	A: 0	X: 0	Y: f	SP: fd
f1f7	0	DEY	A: 0	X: 0	Y: f	SP: fd
f1f8	f1f4	BNE	A: 0	X: 0	Y: e	SP: fd
f1f4	2007	STA	A: 0	X: 0	Y: e	SP: fd
f1f7	0	DEY	A: 0	X: 0	Y: e	SP: fd
f1f8	f1f4	BNE	A: 0	X: 0	Y: d	SP: fd
f1f4	2007	STA	A: 0	X: 0	Y: d	SP: fd
f1f7	0	DEY	A: 0	X: 0	Y: d	SP: fd
f1f8	f1f4	BNE	A: 0	X: 0	Y: c	SP: fd
f1f4	2007	STA	A: 0	X: 0	Y: c	SP: fd
f1f7	0	DEY	A: 0	X: 0	Y: c	SP: fd
f1f8	f1f4	BNE	A: 0	X: 0	Y: b	SP: fd
f1f4	2007	STA	A: 0	X: 0	Y: b	SP: fd
f1f7	0	DEY	A: 0	X: 0	Y: b	SP: fd
f1f8	f1f4	BNE	A: 0	X: 0	Y: a	SP: fd
f1f4	2007	STA	A: 0	X: 0	Y: a	SP: fd
f1f7	0	DEY	A: 0	X: 0	Y: a	SP: fd
f1f8	f1f4	BNE	A: 0	X: 0	Y: 9	SP: fd
f1f4	2007	STA	A: 0	X: 0	Y: 9	SP: fd
f1f7	0	DEY	A: 0	X: 0	Y: 9	SP: fd
f1f8	f1f4	BNE	A: 0	X: 0	Y: 8	SP: fd
f1f4	2007	STA	A: 0	X: 0	Y: 8	SP: fd
f1f7	0	DEY	A: 0	X: 0	Y: 8	SP: fd
f1f8	f1f4	BNE	A: 0	X: 0	Y: 7	SP: fd
f1f4	2007	STA	A: 0	X: 0	Y: 7	SP: fd
f1f7	0	DEY	A: 0	X: 0	Y: 7	SP: fd
f1f8	f1f4	BNE	A: 0	X: 0	Y: 6	SP: fd
f1f4	2007	STA	A: 0	X: 0	Y: 6	SP: fd
f1f7	0	DEY	A: 0	X: 0	Y: 6	SP: fd
f1f8	f1f4	BNE	A: 0	X: 0	Y: 5	SP: fd
f1f4	2007	STA	A: 0	X: 0	Y: 5	SP: fd
f1f7	0	DEY	A: 0	X: 0	Y: 5	SP: fd
f1f8	f1f4	BNE	A: 0	X: 0	Y: 4	SP: fd
f1f4	2007	STA	A: 0	X: 0	Y: 4	SP: fd
f1f7	0	DEY	A: 0	X: 0	Y: 4	SP: fd
f1f8	f1f4	BNE	A: 0	X: 0	Y: 3	SP: fd
f1f4	2007	STA	A: 0	X: 0	Y: 3	SP: fd
f1f7	0	DEY	A: 0	X: 0	Y: 3	SP: fd
f1f8	f1f4	BNE	A: 0	X: 0	Y: 2	SP: fd
f1f4	2007	STA	A: 0	X: 0	Y: 2	SP: fd
f1f7	0	DEY	A: 0	X: 0	Y: 2	SP: fd
f1f8	f1f4	BNE	A: 0	X: 0	Y: 1	SP: fd
f1f4	2007	STA	A: 0	X: 0	Y: 1	SP: fd
f1f7	0	DEY	A: 0	X: 0	Y: 1	SP: fd
f1f8	f1f4	BNE	A: 0	X: 0	Y: 0	SP: fd
f1fa	0	RTS	A: 0	X: 0	Y: 0	SP: fd
c7c5	c7c6	LDA	A: 0	X: 0	Y: 0	SP: ff
c7c7	511	STA	A: 7f	X: 0	Y: 0	SP: ff
c7ca	c7cb	LDA	A: 7f	X: 0	Y: 0	SP: ff
c7cc	51	STA	A: 18	X: 0	Y: 0	SP: ff
c7ce	c7cf	LDA	A: 18	X: 0	Y: 0	SP: ff
c7d0	4e	STA	A: 1	X: 0	Y: 0	SP: ff
c7d2	55	STA	A: 1	X: 0	Y: 0	SP: ff
c7d4	c7d5	LDA	A: 1	X: 0	Y: 0	SP: ff
c7d6	4f	STA	A: 0	X: 0	Y: 0	SP: ff
c7d8	10	LDA	A: 0	X: 0	Y: 0	SP: ff
c7da	c7db	EOR	A: 10	X: 0	Y: 0	SP: ff
c7dc	2000	STA	A: 90	X: 0	Y: 0	SP: ff
c7df	10	STA	A: 90	X: 0	Y: 0	SP: ff
c7e1	f4fc	JSR	A: 90	X: 0	Y: 0	SP: ff
f4fc	18	LDA	A: 90	X: 0	Y: 0	SP: fd
f4fe	f4ff	AND	A: 0	X: 0	Y: 0	SP: fd
f500	0	STA	A: 0	X: 0	Y: 0	SP: fd
f502	19	LDA	A: 0	X: 0	Y: 0	SP: fd
f504	f505	AND	A: 0	X: 0	Y: 0	SP: fd
f506	0	EOR	A: 0	X: 0	Y: 0	SP: fd
f508	0	CLC	A: 0	X: 0	Y: 0	SP: fd
f509	f50c	BEQ	A: 0	X: 0	Y: 0	SP: fd
f50c	18	ROR	A: 0	X: 0	Y: 0	SP: fd
f50e	19	ROR	A: 0	X: 0	Y: 0	SP: fd
f510	1a	ROR	A: 0	X: 0	Y: 0	SP: fd
f512	1b	ROR	A: 0	X: 0	Y: 0	SP: fd
f514	1c	ROR	A: 0	X: 0	Y: 0	SP: fd
f516	1d	ROR	A: 0	X: 0	Y: 0	SP: fd
f518	1e	ROR	A: 0	X: 0	Y: 0	SP: fd
f51a	1f	ROR	A: 0	X: 0	Y: 0	SP: fd
f51c	0	RTS	A: 0	X: 0	Y: 0	SP: fd
c7e4	c7e1	JMP	A: 0	X: 0	Y: 0	SP: ff
c7e1	f4fc	JSR	A: 0	X: 0	Y: 0	SP: ff
f4fc	18	LDA	A: 0	X: 0	Y: 0	SP: fd
f4fe	f4ff	AND	A: 0	X: 0	Y: 0	SP: fd
f500	0	STA	A: 0	X: 0	Y: 0	SP: fd
f502	19	LDA	A: 0	X: 0	Y: 0	SP: fd
f504	f505	AND	A: 0	X: 0	Y: 0	SP: fd
f506	0	EOR	A: 0	X: 0	Y: 0	SP: fd
f508	0	CLC	A: 0	X: 0	Y: 0	SP: fd
f509	f50c	BEQ	A: 0	X: 0	Y: 0	SP: fd
f50c	18	ROR	A: 0	X: 0	Y: 0	SP: fd
f50e	19	ROR	A: 0	X: 0	Y: 0	SP: fd
f510	1a	ROR	A: 0	X: 0	Y: 0	SP: fd
f512	1b	ROR	A: 0	X: 0	Y: 0	SP: fd
f514	1c	ROR	A: 0	X: 0	Y: 0	SP: fd
f516	1d	ROR	A: 0	X: 0	Y: 0	SP: fd
f518	1e	ROR	A: 0	X: 0	Y: 0	SP: fd
f51a	1f	ROR	A: 0	X: 0	Y: 0	SP: fd
f51c	0	RTS	A: 0	X: 0	Y: 0	SP: fd
c7e4	c7e1	JMP	A: 0	X: 0	Y: 0	SP: ff
c7e1	f4fc	JSR	A: 0	X: 0	Y: 0	SP: ff
f4fc	18	LDA	A: 0	X: 0	Y: 0	SP: fd
f4fe	f4ff	AND	A: 0	X: 0	Y: 0	SP: fd
f500	0	STA	A: 0	X: 0	Y: 0	SP: fd
f502	19	LDA	A: 0	X: 0	Y: 0	SP: fd
f504	f505	AND	A: 0	X: 0	Y: 0	SP: fd
f506	0	EOR	A: 0	X: 0	Y: 0	SP: fd
f508	0	CLC	A: 0	X: 0	Y: 0	SP: fd
f509	f50c	BEQ	A: 0	X: 0	Y: 0	SP: fd
f50c	18	ROR	A: 0	X: 0	Y: 0	SP: fd
f50e	19	ROR	A: 0	X: 0	Y: 0	SP: fd
f510	1a	ROR	A: 0	X: 0	Y: 0	SP: fd
f512	1b	ROR	A: 0	X: 0	Y: 0	SP: fd
f514	1c	ROR	A: 0	X: 0	Y: 0	SP: fd
f516	1d	ROR	A: 0	X: 0	Y: 0	SP: fd
f518	1e	ROR	A: 0	X: 0	Y: 0	SP: fd
f51a	1f	ROR	A: 0	X: 0	Y: 0	SP: fd
f51c	0	RTS	A: 0	X: 0	Y: 0	SP: fd
c7e4	c7e1	JMP	A: 0	X: 0	Y: 0	SP: ff
c7e1	f4fc	JSR	A: 0	X: 0	Y: 0	SP: ff
f4fc	18	LDA	A: 0	X: 0	Y: 0	SP: fd
f4fe	f4ff	AND	A: 0	X: 0	Y: 0	SP: fd
f500	0	STA	A: 0	X: 0	Y: 0	SP: fd
f502	19	LDA	A: 0	X: 0	Y: 0	SP: fd
f504	f505	AND	A: 0	X: 0	Y: 0	SP: fd
f506	0	EOR	A: 0	X: 0	Y: 0	SP: fd
f508	0	CLC	A: 0	X: 0	Y: 0	SP: fd
f509	f50c	BEQ	A: 0	X: 0	Y: 0	SP: fd
f50c	18	ROR	A: 0	X: 0	Y: 0	SP: fd
f50e	19	ROR	A: 0	X: 0	Y: 0	SP: fd
f510	1a	ROR	A: 0	X: 0	Y: 0	SP: fd
f512	1b	ROR	A: 0	X: 0	Y: 0	SP: fd
f514	1c	ROR	A: 0	X: 0	Y: 0	SP: fd
f516	1d	ROR	A: 0	X: 0	Y: 0	SP: fd
f518	1e	ROR	A: 0	X: 0	Y: 0	SP: fd
f51a	1f	ROR	A: 0	X: 0	Y: 0	SP: fd
f51c	0	RTS	A: 0	X: 0	Y: 0	SP: fd
c7e4	c7e1	JMP	A: 0	X: 0	Y: 0	SP: ff
c7e1	f4fc	JSR	A: 0	X: 0	Y: 0	SP: ff
f4fc	18	LDA	A: 0	X: 0	Y: 0	SP: fd
f4fe	f4ff	AND	A: 0	X: 0	Y: 0	SP: fd
f500	0	STA	A: 0	X: 0	Y: 0	SP: fd
f502	19	LDA	A: 0	X: 0	Y: 0	SP: fd
f504	f505	AND	A: 0	X: 0	Y: 0	SP: fd
f506	0	EOR	A: 0	X: 0	Y: 0	SP: fd
f508	0	CLC	A: 0	X: 0	Y: 0	SP: fd
f509	f50c	BEQ	A: 0	X: 0	Y: 0	SP: fd
f50c	18	ROR	A: 0	X: 0	Y: 0	SP: fd
f50e	19	ROR	A: 0	X: 0	Y: 0	SP: fd
f510	1a	ROR	A: 0	X: 0	Y: 0	SP: fd
f512	1b	ROR	A: 0	X: 0	Y: 0	SP: fd
f514	1c	ROR	A: 0	X: 0	Y: 0	SP: fd
f516	1d	ROR	A: 0	X: 0	Y: 0	SP: fd
f518	1e	ROR	A: 0	X: 0	Y: 0	SP: fd
f51a	1f	ROR	A: 0	X: 0	Y: 0	SP: fd
f51c	0	RTS	A: 0	X: 0	Y: 0	SP: fd
c7e4	c7e1	JMP	A: 0	X: 0	Y: 0	SP: ff
c7e1	f4fc	JSR	A: 0	X: 0	Y: 0	SP: ff
f4fc	18	LDA	A: 0	X: 0	Y: 0	SP: fd
f4fe	f4ff	AND	A: 0	X: 0	Y: 0	SP: fd
f500	0	STA	A: 0	X: 0	Y: 0	SP: fd
f502	19	LDA	A: 0	X: 0	Y: 0	SP: fd
f504	f505	AND	A: 0	X: 0	Y: 0	SP: fd
f506	0	EOR	A: 0	X: 0	Y: 0	SP: fd
f508	0	CLC	A: 0	X: 0	Y: 0	SP: fd
f509	f50c	BEQ	A: 0	X: 0	Y: 0	SP: fd
f50c	18	ROR	A: 0	X: 0	Y: 0	SP: fd
f50e	19	ROR	A: 0	X: 0	Y: 0	SP: fd
f510	1a	ROR	A: 0	X: 0	Y: 0	SP: fd
f512	1b	ROR	A: 0	X: 0	Y: 0	SP: fd
f514	1c	ROR	A: 0	X: 0	Y: 0	SP: fd
f516	1d	ROR	A: 0	X: 0	Y: 0	SP: fd
f518	1e	ROR	A: 0	X: 0	Y: 0	SP: fd
f51a	1f	ROR	A: 0	X: 0	Y: 0	SP: fd
f51c	0	RTS	A: 0	X: 0	Y: 0	SP: fd
c7e4	c7e1	JMP	A: 0	X: 0	Y: 0	SP: ff
c7e1	f4fc	JSR	A: 0	X: 0	Y: 0	SP: ff
f4fc	18	LDA	A: 0	X: 0	Y: 0	SP: fd
f4fe	f4ff	AND	A: 0	X: 0	Y: 0	SP: fd
f500	0	STA	A: 0	X: 0	Y: 0	SP: fd
f502	19	LDA	A: 0	X: 0	Y: 0	SP: fd
f504	f505	AND	A: 0	X: 0	Y: 0	SP: fd
f506	0	EOR	A: 0	X: 0	Y: 0	SP: fd
f508	0	CLC	A: 0	X: 0	Y: 0	SP: fd
f509	f50c	BEQ	A: 0	X: 0	Y: 0	SP: fd
f50c	18	ROR	A: 0	X: 0	Y: 0	SP: fd
f50e	19	ROR	A: 0	X: 0	Y: 0	SP: fd
f510	1a	ROR	A: 0	X: 0	Y: 0	SP: fd
f512	1b	ROR	A: 0	X: 0	Y: 0	SP: fd
f514	1c	ROR	A: 0	X: 0	Y: 0	SP: fd
f516	1d	ROR	A: 0	X: 0	Y: 0	SP: fd
f518	1e	ROR	A: 0	X: 0	Y: 0	SP: fd
f51a	1f	ROR	A: 0	X: 0	Y: 0	SP: fd
f51c	0	RTS	A: 0	X: 0	Y: 0	SP: fd
c7e4	c7e1	JMP	A: 0	X: 0	Y: 0	SP: ff
c7e1	f4fc	JSR	A: 0	X: 0	Y: 0	SP: ff
f4fc	18	LDA	A: 0	X: 0	Y: 0	SP: fd
f4fe	f4ff	AND	A: 0	X: 0	Y: 0	SP: fd
f500	0	STA	A: 0	X: 0	Y: 0	SP: fd
f502	19	LDA	A: 0	X: 0	Y: 0	SP: fd
f504	f505	AND	A: 0	X: 0	Y: 0	SP: fd
f506	0	EOR	A: 0	X: 0	Y: 0	SP: fd
f508	0	CLC	A: 0	X: 0	Y: 0	SP: fd
f509	f50c	BEQ	A: 0	X: 0	Y: 0	SP: fd
f50c	18	ROR	A: 0	X: 0	Y: 0	SP: fd
f50e	19	ROR	A: 0	X: 0	Y: 0	SP: fd
f510	1a	ROR	A: 0	X: 0	Y: 0	SP: fd
f512	1b	ROR	A: 0	X: 0	Y: 0	SP: fd
f514	1c	ROR	A: 0	X: 0	Y: 0	SP: fd
f516	1d	ROR	A: 0	X: 0	Y: 0	SP: fd
f518	1e	ROR	A: 0	X: 0	Y: 0	SP: fd
f51a	1f	ROR	A: 0	X: 0	Y: 0	SP: fd
f51c	0	RTS	A: 0	X: 0	Y: 0	SP: fd
c7e4	c7e1	JMP	A: 0	X: 0	Y: 0	SP: ff
c7e1	f4fc	JSR	A: 0	X: 0	Y: 0	SP: ff
f4fc	18	LDA	A: 0	X: 0	Y: 0	SP: fd
f4fe	f4ff	AND	A: 0	X: 0	Y: 0	SP: fd
f500	0	STA	A: 0	X: 0	Y: 0	SP: fd
f502	19	LDA	A: 0	X: 0	Y: 0	SP: fd
f504	f505	AND	A: 0	X: 0	Y: 0	SP: fd
f506	0	EOR	A: 0	X: 0	Y: 0	SP: fd
f508	0	CLC	A: 0	X: 0	Y: 0	SP: fd
f509	f50c	BEQ	A: 0	X: 0	Y: 0	SP: fd
f50c	18	ROR	A: 0	X: 0	Y: 0	SP: fd
f50e	19	ROR	A: 0	X: 0	Y: 0	SP: fd
f510	1a	ROR	A: 0	X: 0	Y: 0	SP: fd
f512	1b	ROR	A: 0	X: 0	Y: 0	SP: fd
f514	1c	ROR	A: 0	X: 0	Y: 0	SP: fd
f516	1d	ROR	A: 0	X: 0	Y: 0	SP: fd
f518	1e	ROR	A: 0	X: 0	Y: 0	SP: fd
f51a	1f	ROR	A: 0	X: 0	Y: 0	SP: fd
f51c	0	RTS	A: 0	X: 0	Y: 0	SP: fd
c7e4	c7e1	JMP	A: 0	X: 0	Y: 0	SP: ff
c7e1	f4fc	JSR	A: 0	X: 0	Y: 0	SP: ff
f4fc	18	LDA	A: 0	X: 0	Y: 0	SP: fd
f4fe	f4ff	AND	A: 0	X: 0	Y: 0	SP: fd
f500	0	STA	A: 0	X: 0	Y: 0	SP: fd
f502	19	LDA	A: 0	X: 0	Y: 0	SP: fd
f504	f505	AND	A: 0	X: 0	Y: 0	SP: fd
f506	0	EOR	A: 0	X: 0	Y: 0	SP: fd
f508	0	CLC	A: 0	X: 0	Y: 0	SP: fd
f509	f50c	BEQ	A: 0	X: 0	Y: 0	SP: fd
f50c	18	ROR	A: 0	X: 0	Y: 0	SP: fd
f50e	19	ROR	A: 0	X: 0	Y: 0	SP: fd
f510	1a	ROR	A: 0	X: 0	Y: 0	SP: fd
f512	1b	ROR	A: 0	X: 0	Y: 0	SP: fd
f514	1c	ROR	A: 0	X: 0	Y: 0	SP: fd
f516	1d	ROR	A: 0	X: 0	Y: 0	SP: fd
f518	1e	ROR	A: 0	X: 0	Y: 0	SP: fd
f51a	1f	ROR	A: 0	X: 0	Y: 0	SP: fd
f51c	0	RTS	A: 0	X: 0	Y: 0	SP: fd
c7e4	c7e1	JMP	A: 0	X: 0	Y: 0	SP: ff
c7e1	f4fc	JSR	A: 0	X: 0	Y: 0	SP: ff
f4fc	18	LDA	A: 0	X: 0	Y: 0	SP: fd
f4fe	f4ff	AND	A: 0	X: 0	Y: 0	SP: fd
f500	0	STA	A: 0	X: 0	Y: 0	SP: fd
f502	19	LDA	A: 0	X: 0	Y: 0	SP: fd
f504	f505	AND	A: 0	X: 0	Y: 0	SP: fd
f506	0	EOR	A: 0	X: 0	Y: 0	SP: fd
f508	0	CLC	A: 0	X: 0	Y: 0	SP: fd
f509	f50c	BEQ	A: 0	X: 0	Y: 0	SP: fd
f50c	18	ROR	A: 0	X: 0	Y: 0	SP: fd
f50e	19	ROR	A: 0	X: 0	Y: 0	SP: fd
f510	1a	ROR	A: 0	X: 0	Y: 0	SP: fd
f512	1b	ROR	A: 0	X: 0	Y: 0	SP: fd
f514	1c	ROR	A: 0	X: 0	Y: 0	SP: fd
f516	1d	ROR	A: 0	X: 0	Y: 0	SP: fd
f518	1e	ROR	A: 0	X: 0	Y: 0	SP: fd
f51a	1f	ROR	A: 0	X: 0	Y: 0	SP: fd
f51c	0	RTS	A: 0	X: 0	Y: 0	SP: fd
c7e4	c7e1	JMP	A: 0	X: 0	Y: 0	SP: ff
c7e1	f4fc	JSR	A: 0	X: 0	Y: 0	SP: ff
f4fc	18	LDA	A: 0	X: 0	Y: 0	SP: fd
f4fe	f4ff	AND	A: 0	X: 0	Y: 0	SP: fd
f500	0	STA	A: 0	X: 0	Y: 0	SP: fd
f502	19	LDA	A: 0	X: 0	Y: 0	SP: fd
f504	f505	AND	A: 0	X: 0	Y: 0	SP: fd
f506	0	EOR	A: 0	X: 0	Y: 0	SP: fd
f508	0	CLC	A: 0	X: 0	Y: 0	SP: fd
f509	f50c	BEQ	A: 0	X: 0	Y: 0	SP: fd
f50c	18	ROR	A: 0	X: 0	Y: 0	SP: fd
f50e	19	ROR	A: 0	X: 0	Y: 0	SP: fd
f510	1a	ROR	A: 0	X: 0	Y: 0	SP: fd
f512	1b	ROR	A: 0	X: 0	Y: 0	SP: fd
f514	1c	ROR	A: 0	X: 0	Y: 0	SP: fd
f516	1d	ROR	A: 0	X: 0	Y: 0	SP: fd
f518	1e	ROR	A: 0	X: 0	Y: 0	SP: fd
f51a	1f	ROR	A: 0	X: 0	Y: 0	SP: fd
f51c	0	RTS	A: 0	X: 0	Y: 0	SP: fd
c7e4	c7e1	JMP	A: 0	X: 0	Y: 0	SP: ff
c7e1	f4fc	JSR	A: 0	X: 0	Y: 0	SP: ff
f4fc	18	LDA	A: 0	X: 0	Y: 0	SP: fd
f4fe	f4ff	AND	A: 0	X: 0	Y: 0	SP: fd
f500	0	STA	A: 0	X: 0	Y: 0	SP: fd
f502	19	LDA	A: 0	X: 0	Y: 0	SP: fd
f504	f505	AND	A: 0	X: 0	Y: 0	SP: fd
f506	0	EOR	A: 0	X: 0	Y: 0	SP: fd
f508	0	CLC	A: 0	X: 0	Y: 0	SP: fd
f509	f50c	BEQ	A: 0	X: 0	Y: 0	SP: fd
f50c	18	ROR	A: 0	X: 0	Y: 0	SP: fd
f50e	19	ROR	A: 0	X: 0	Y: 0	SP: fd
f510	1a	ROR	A: 0	X: 0	Y: 0	SP: fd
f512	1b	ROR	A: 0	X: 0	Y: 0	SP: fd
f514	1c	ROR	A: 0	X: 0	Y: 0	SP: fd
f516	1d	ROR	A: 0	X: 0	Y: 0	SP: fd
f518	1e	ROR	A: 0	X: 0	Y: 0	SP: fd
f51a	1f	ROR	A: 0	X: 0	Y: 0	SP: fd
f51c	0	RTS	A: 0	X: 0	Y: 0	SP: fd
c7e4	c7e1	JMP	A: 0	X: 0	Y: 0	SP: ff
c7e1	f4fc	JSR	A: 0	X: 0	Y: 0	SP: ff
f4fc	18	LDA	A: 0	X: 0	Y: 0	SP: fd
f4fe	f4ff	AND	A: 0	X: 0	Y: 0	SP: fd
f500	0	STA	A: 0	X: 0	Y: 0	SP: fd
f502	19	LDA	A: 0	X: 0	Y: 0	SP: fd
f504	f505	AND	A: 0	X: 0	Y: 0	SP: fd
f506	0	EOR	A: 0	X: 0	Y: 0	SP: fd
f508	0	CLC	A: 0	X: 0	Y: 0	SP: fd
f509	f50c	BEQ	A: 0	X: 0	Y: 0	SP: fd
f50c	18	ROR	A: 0	X: 0	Y: 0	SP: fd
f50e	19	ROR	A: 0	X: 0	Y: 0	SP: fd
f510	1a	ROR	A: 0	X: 0	Y: 0	SP: fd
f512	1b	ROR	A: 0	X: 0	Y: 0	SP: fd
f514	1c	ROR	A: 0	X: 0	Y: 0	SP: fd
f516	1d	ROR	A: 0	X: 0	Y: 0	SP: fd
f518	1e	ROR	A: 0	X: 0	Y: 0	SP: fd
f51a	1f	ROR	A: 0	X: 0	Y: 0	SP: fd
f51c	0	RTS	A: 0	X: 0	Y: 0	SP: fd
c7e4	c7e1	JMP	A: 0	X: 0	Y: 0	SP: ff
c7e1	f4fc	JSR	A: 0	X: 0	Y: 0	SP: ff
f4fc	18	LDA	A: 0	X: 0	Y: 0	SP: fd
f4fe	f4ff	AND	A: 0	X: 0	Y: 0	SP: fd
f500	0	STA	A: 0	X: 0	Y: 0	SP: fd
f502	19	LDA	A: 0	X: 0	Y: 0	SP: fd
f504	f505	AND	A: 0	X: 0	Y: 0	SP: fd
f506	0	EOR	A: 0	X: 0	Y: 0	SP: fd
f508	0	CLC	A: 0	X: 0	Y: 0	SP: fd
f509	f50c	BEQ	A: 0	X: 0	Y: 0	SP: fd
f50c	18	ROR	A: 0	X: 0	Y: 0	SP: fd
f50e	19	ROR	A: 0	X: 0	Y: 0	SP: fd
f510	1a	ROR	A: 0	X: 0	Y: 0	SP: fd
f512	1b	ROR	A: 0	X: 0	Y: 0	SP: fd
f514	1c	ROR	A: 0	X: 0	Y: 0	SP: fd
f516	1d	ROR	A: 0	X: 0	Y: 0	SP: fd
f518	1e	ROR	A: 0	X: 0	Y: 0	SP: fd
f51a	1f	ROR	A: 0	X: 0	Y: 0	SP: fd
f51c	0	RTS	A: 0	X: 0	Y: 0	SP: fd
c7e4	c7e1	JMP	A: 0	X: 0	Y: 0	SP: ff
c7e1	f4fc	JSR	A: 0	X: 0	Y: 0	SP: ff
f4fc	18	LDA	A: 0	X: 0	Y: 0	SP: fd
f4fe	f4ff	AND	A: 0	X: 0	Y: 0	SP: fd
f500	0	STA	A: 0	X: 0	Y: 0	SP: fd
f502	19	LDA	A: 0	X: 0	Y: 0	SP: fd
f504	f505	AND	A: 0	X: 0	Y: 0	SP: fd
f506	0	EOR	A: 0	X: 0	Y: 0	SP: fd
f508	0	CLC	A: 0	X: 0	Y: 0	SP: fd
f509	f50c	BEQ	A: 0	X: 0	Y: 0	SP: fd
f50c	18	ROR	A: 0	X: 0	Y: 0	SP: fd
f50e	19	ROR	A: 0	X: 0	Y: 0	SP: fd
f510	1a	ROR	A: 0	X: 0	Y: 0	SP: fd
f512	1b	ROR	A: 0	X: 0	Y: 0	SP: fd
f514	1c	ROR	A: 0	X: 0	Y: 0	SP: fd
f516	1d	ROR	A: 0	X: 0	Y: 0	SP: fd
f518	1e	ROR	A: 0	X: 0	Y: 0	SP: fd
f51a	1f	ROR	A: 0	X: 0	Y: 0	SP: fd
f51c	0	RTS	A: 0	X: 0	Y: 0	SP: fd
c7e4	c7e1	JMP	A: 0	X: 0	Y: 0	SP: ff
c7e1	f4fc	JSR	A: 0	X: 0	Y: 0	SP: ff
f4fc	18	LDA	A: 0	X: 0	Y: 0	SP: fd
f4fe	f4ff	AND	A: 0	X: 0	Y: 0	SP: fd
f500	0	STA	A: 0	X: 0	Y: 0	SP: fd
f502	19	LDA	A: 0	X: 0	Y: 0	SP: fd
f504	f505	AND	A: 0	X: 0	Y: 0	SP: fd
f506	0	EOR	A: 0	X: 0	Y: 0	SP: fd
f508	0	CLC	A: 0	X: 0	Y: 0	SP: fd
f509	f50c	BEQ	A: 0	X: 0	Y: 0	SP: fd
f50c	18	ROR	A: 0	X: 0	Y: 0	SP: fd
f50e	19	ROR	A: 0	X: 0	Y: 0	SP: fd
f510	1a	ROR	A: 0	X: 0	Y: 0	SP: fd
f512	1b	ROR	A: 0	X: 0	Y: 0	SP: fd
f514	1c	ROR	A: 0	X: 0	Y: 0	SP: fd
f516	1d	ROR	A: 0	X: 0	Y: 0	SP: fd
f518	1e	ROR	A: 0	X: 0	Y: 0	SP: fd
f51a	1f	ROR	A: 0	X: 0	Y: 0	SP: fd
f51c	0	RTS	A: 0	X: 0	Y: 0	SP: fd
c7e4	c7e1	JMP	A: 0	X: 0	Y: 0	SP: ff
c7e1	f4fc	JSR	A: 0	X: 0	Y: 0	SP: ff
f4fc	18	LDA	A: 0	X: 0	Y: 0	SP: fd
f4fe	f4ff	AND	A: 0	X: 0	Y: 0	SP: fd
f500	0	STA	A: 0	X: 0	Y: 0	SP: fd
f502	19	LDA	A: 0	X: 0	Y: 0	SP: fd
f504	f505	AND	A: 0	X: 0	Y: 0	SP: fd
f506	0	EOR	A: 0	X: 0	Y: 0	SP: fd
f508	0	CLC	A: 0	X: 0	Y: 0	SP: fd
f509	f50c	BEQ	A: 0	X: 0	Y: 0	SP: fd
f50c	18	ROR	A: 0	X: 0	Y: 0	SP: fd
f50e	19	ROR	A: 0	X: 0	Y: 0	SP: fd
f510	1a	ROR	A: 0	X: 0	Y: 0	SP: fd
f512	1b	ROR	A: 0	X: 0	Y: 0	SP: fd
f514	1c	ROR	A: 0	X: 0	Y: 0	SP: fd
f516	1d	ROR	A: 0	X: 0	Y: 0	SP: fd
f518	1e	ROR	A: 0	X: 0	Y: 0	SP: fd
f51a	1f	ROR	A: 0	X: 0	Y: 0	SP: fd
f51c	0	RTS	A: 0	X: 0	Y: 0	SP: fd
c7e4	c7e1	JMP	A: 0	X: 0	Y: 0	SP: ff
c7e1	f4fc	JSR	A: 0	X: 0	Y: 0	SP: ff
f4fc	18	LDA	A: 0	X: 0	Y: 0	SP: fd
f4fe	f4ff	AND	A: 0	X: 0	Y: 0	SP: fd
f500	0	STA	A: 0	X: 0	Y: 0	SP: fd
f502	19	LDA	A: 0	X: 0	Y: 0	SP: fd
f504	f505	AND	A: 0	X: 0	Y: 0	SP: fd
f506	0	EOR	A: 0	X: 0	Y: 0	SP: fd
f508	0	CLC	A: 0	X: 0	Y: 0	SP: fd
f509	f50c	BEQ	A: 0	X: 0	Y: 0	SP: fd
f50c	18	ROR	A: 0	X: 0	Y: 0	SP: fd
f50e	19	ROR	A: 0	X: 0	Y: 0	SP: fd
f510	1a	ROR	A: 0	X: 0	Y: 0	SP: fd
f512	1b	ROR	A: 0	X: 0	Y: 0	SP: fd
f514	1c	ROR	A: 0	X: 0	Y: 0	SP: fd
f516	1d	ROR	A: 0	X: 0	Y: 0	SP: fd
f518	1e	ROR	A: 0	X: 0	Y: 0	SP: fd
f51a	1f	ROR	A: 0	X: 0	Y: 0	SP: fd
f51c	0	RTS	A: 0	X: 0	Y: 0	SP: fd
c7e4	c7e1	JMP	A: 0	X: 0	Y: 0	SP: ff
c7e1	f4fc	JSR	A: 0	X: 0	Y: 0	SP: ff
f4fc	18	LDA	A: 0	X: 0	Y: 0	SP: fd
f4fe	f4ff	AND	A: 0	X: 0	Y: 0	SP: fd
f500	0	STA	A: 0	X: 0	Y: 0	SP: fd
f502	19	LDA	A: 0	X: 0	Y: 0	SP: fd
f504	f505	AND	A: 0	X: 0	Y: 0	SP: fd
f506	0	EOR	A: 0	X: 0	Y: 0	SP: fd
f508	0	CLC	A: 0	X: 0	Y: 0	SP: fd
f509	f50c	BEQ	A: 0	X: 0	Y: 0	SP: fd
f50c	18	ROR	A: 0	X: 0	Y: 0	SP: fd
f50e	19	ROR	A: 0	X: 0	Y: 0	SP: fd
f510	1a	ROR	A: 0	X: 0	Y: 0	SP: fd
f512	1b	ROR	A: 0	X: 0	Y: 0	SP: fd
f514	1c	ROR	A: 0	X: 0	Y: 0	SP: fd
f516	1d	ROR	A: 0	X: 0	Y: 0	SP: fd
f518	1e	ROR	A: 0	X: 0	Y: 0	SP: fd
f51a	1f	ROR	A: 0	X: 0	Y: 0	SP: fd
f51c	0	RTS	A: 0	X: 0	Y: 0	SP: fd
c7e4	c7e1	JMP	A: 0	X: 0	Y: 0	SP: ff
c7e1	f4fc	JSR	A: 0	X: 0	Y: 0	SP: ff
f4fc	18	LDA	A: 0	X: 0	Y: 0	SP: fd
f4fe	f4ff	AND	A: 0	X: 0	Y: 0	SP: fd
f500	0	STA	A: 0	X: 0	Y: 0	SP: fd
f502	19	LDA	A: 0	X: 0	Y: 0	SP: fd
f504	f505	AND	A: 0	X: 0	Y: 0	SP: fd
f506	0	EOR	A: 0	X: 0	Y: 0	SP: fd
f508	0	CLC	A: 0	X: 0	Y: 0	SP: fd
f509	f50c	BEQ	A: 0	X: 0	Y: 0	SP: fd
f50c	18	ROR	A: 0	X: 0	Y: 0	SP: fd
f50e	19	ROR	A: 0	X: 0	Y: 0	SP: fd
f510	1a	ROR	A: 0	X: 0	Y: 0	SP: fd
f512	1b	ROR	A: 0	X: 0	Y: 0	SP: fd
f514	1c	ROR	A: 0	X: 0	Y: 0	SP: fd
f516	1d	ROR	A: 0	X: 0	Y: 0	SP: fd
f518	1e	ROR	A: 0	X: 0	Y: 0	SP: fd
f51a	1f	ROR	A: 0	X: 0	Y: 0	SP: fd
f51c	0	RTS	A: 0	X: 0	Y: 0	SP: fd
c7e4	c7e1	JMP	A: 0	X: 0	Y: 0	SP: ff
c7e1	f4fc	JSR	A: 0	X: 0	Y: 0	SP: ff
f4fc	18	LDA	A: 0	X: 0	Y: 0	SP: fd
f4fe	f4ff	AND	A: 0	X: 0	Y: 0	SP: fd
f500	0	STA	A: 0	X: 0	Y: 0	SP: fd
f502	19	LDA	A: 0	X: 0	Y: 0	SP: fd
f504	f505	AND	A: 0	X: 0	Y: 0	SP: fd
f506	0	EOR	A: 0	X: 0	Y: 0	SP: fd
f508	0	CLC	A: 0	X: 0	Y: 0	SP: fd
f509	f50c	BEQ	A: 0	X: 0	Y: 0	SP: fd
f50c	18	ROR	A: 0	X: 0	Y: 0	SP: fd
f50e	19	ROR	A: 0	X: 0	Y: 0	SP: fd
f510	1a	ROR	A: 0	X: 0	Y: 0	SP: fd
f512	1b	ROR	A: 0	X: 0	Y: 0	SP: fd
f514	1c	ROR	A: 0	X: 0	Y: 0	SP: fd
f516	1d	ROR	A: 0	X: 0	Y: 0	SP: fd
f518	1e	ROR	A: 0	X: 0	Y: 0	SP: fd
f51a	1f	ROR	A: 0	X: 0	Y: 0	SP: fd
f51c	0	RTS	A: 0	X: 0	Y: 0	SP: fd
c7e4	c7e1	JMP	A: 0	X: 0	Y: 0	SP: ff
c7e1	f4fc	JSR	A: 0	X: 0	Y: 0	SP: ff
f4fc	18	LDA	A: 0	X: 0	Y: 0	SP: fd
f4fe	f4ff	AND	A: 0	X: 0	Y: 0	SP: fd
f500	0	STA	A: 0	X: 0	Y: 0	SP: fd
f502	19	LDA	A: 0	X: 0	Y: 0	SP: fd
f504	f505	AND	A: 0	X: 0	Y: 0	SP: fd
f506	0	EOR	A: 0	X: 0	Y: 0	SP: fd
f508	0	CLC	A: 0	X: 0	Y: 0	SP: fd
f509	f50c	BEQ	A: 0	X: 0	Y: 0	SP: fd
f50c	18	ROR	A: 0	X: 0	Y: 0	SP: fd
f50e	19	ROR	A: 0	X: 0	Y: 0	SP: fd
f510	1a	ROR	A: 0	X: 0	Y: 0	SP: fd
f512	1b	ROR	A: 0	X: 0	Y: 0	SP: fd
f514	1c	ROR	A: 0	X: 0	Y: 0	SP: fd
f516	1d	ROR	A: 0	X: 0	Y: 0	SP: fd
f518	1e	ROR	A: 0	X: 0	Y: 0	SP: fd
f51a	1f	ROR	A: 0	X: 0	Y: 0	SP: fd
f51c	0	RTS	A: 0	X: 0	Y: 0	SP: fd
c7e4	c7e1	JMP	A: 0	X: 0	Y: 0	SP: ff
c7e1	f4fc	JSR	A: 0	X: 0	Y: 0	SP: ff
f4fc	18	LDA	A: 0	X: 0	Y: 0	SP: fd
f4fe	f4ff	AND	A: 0	X: 0	Y: 0	SP: fd
f500	0	STA	A: 0	X: 0	Y: 0	SP: fd
f502	19	LDA	A: 0	X: 0	Y: 0	SP: fd
f504	f505	AND	A: 0	X: 0	Y: 0	SP: fd
f506	0	EOR	A: 0	X: 0	Y: 0	SP: fd
f508	0	CLC	A: 0	X: 0	Y: 0	SP: fd
f509	f50c	BEQ	A: 0	X: 0	Y: 0	SP: fd
f50c	18	ROR	A: 0	X: 0	Y: 0	SP: fd
f50e	19	ROR	A: 0	X: 0	Y: 0	SP: fd
f510	1a	ROR	A: 0	X: 0	Y: 0	SP: fd
f512	1b	ROR	A: 0	X: 0	Y: 0	SP: fd
f514	1c	ROR	A: 0	X: 0	Y: 0	SP: fd
f516	1d	ROR	A: 0	X: 0	Y: 0	SP: fd
f518	1e	ROR	A: 0	X: 0	Y: 0	SP: fd
f51a	1f	ROR	A: 0	X: 0	Y: 0	SP: fd
f51c	0	RTS	A: 0	X: 0	Y: 0	SP: fd
c7e4	c7e1	JMP	A: 0	X: 0	Y: 0	SP: ff
c7e1	f4fc	JSR	A: 0	X: 0	Y: 0	SP: ff
f4fc	18	LDA	A: 0	X: 0	Y: 0	SP: fd
f4fe	f4ff	AND	A: 0	X: 0	Y: 0	SP: fd
f500	0	STA	A: 0	X: 0	Y: 0	SP: fd
f502	19	LDA	A: 0	X: 0	Y: 0	SP: fd
f504	f505	AND	A: 0	X: 0	Y: 0	SP: fd
f506	0	EOR	A: 0	X: 0	Y: 0	SP: fd
f508	0	CLC	A: 0	X: 0	Y: 0	SP: fd
f509	f50c	BEQ	A: 0	X: 0	Y: 0	SP: fd
f50c	18	ROR	A: 0	X: 0	Y: 0	SP: fd
f50e	19	ROR	A: 0	X: 0	Y: 0	SP: fd
f510	1a	ROR	A: 0	X: 0	Y: 0	SP: fd
f512	1b	ROR	A: 0	X: 0	Y: 0	SP: fd
f514	1c	ROR	A: 0	X: 0	Y: 0	SP: fd
f516	1d	ROR	A: 0	X: 0	Y: 0	SP: fd
f518	1e	ROR	A: 0	X: 0	Y: 0	SP: fd
f51a	1f	ROR	A: 0	X: 0	Y: 0	SP: fd
f51c	0	RTS	A: 0	X: 0	Y: 0	SP: fd
c7e4	c7e1	JMP	A: 0	X: 0	Y: 0	SP: ff
c7e1	f4fc	JSR	A: 0	X: 0	Y: 0	SP: ff
f4fc	18	LDA	A: 0	X: 0	Y: 0	SP: fd
f4fe	f4ff	AND	A: 0	X: 0	Y: 0	SP: fd
f500	0	STA	A: 0	X: 0	Y: 0	SP: fd
f502	19	LDA	A: 0	X: 0	Y: 0	SP: fd
f504	f505	AND	A: 0	X: 0	Y: 0	SP: fd
f506	0	EOR	A: 0	X: 0	Y: 0	SP: fd
f508	0	CLC	A: 0	X: 0	Y: 0	SP: fd
f509	f50c	BEQ	A: 0	X: 0	Y: 0	SP: fd
f50c	18	ROR	A: 0	X: 0	Y: 0	SP: fd
f50e	19	ROR	A: 0	X: 0	Y: 0	SP: fd
f510	1a	ROR	A: 0	X: 0	Y: 0	SP: fd
f512	1b	ROR	A: 0	X: 0	Y: 0	SP: fd
f514	1c	ROR	A: 0	X: 0	Y: 0	SP: fd
f516	1d	ROR	A: 0	X: 0	Y: 0	SP: fd
f518	1e	ROR	A: 0	X: 0	Y: 0	SP: fd
f51a	1f	ROR	A: 0	X: 0	Y: 0	SP: fd
f51c	0	RTS	A: 0	X: 0	Y: 0	SP: fd
c7e4	c7e1	JMP	A: 0	X: 0	Y: 0	SP: ff
c7e1	f4fc	JSR	A: 0	X: 0	Y: 0	SP: ff
f4fc	18	LDA	A: 0	X: 0	Y: 0	SP: fd
f4fe	f4ff	AND	A: 0	X: 0	Y: 0	SP: fd
f500	0	STA	A: 0	X: 0	Y: 0	SP: fd
f502	19	LDA	A: 0	X: 0	Y: 0	SP: fd
f504	f505	AND	A: 0	X: 0	Y: 0	SP: fd
f506	0	EOR	A: 0	X: 0	Y: 0	SP: fd
f508	0	CLC	A: 0	X: 0	Y: 0	SP: fd
f509	f50c	BEQ	A: 0	X: 0	Y: 0	SP: fd
f50c	18	ROR	A: 0	X: 0	Y: 0	SP: fd
f50e	19	ROR	A: 0	X: 0	Y: 0	SP: fd
f510	1a	ROR	A: 0	X: 0	Y: 0	SP: fd
f512	1b	ROR	A: 0	X: 0	Y: 0	SP: fd
f514	1c	ROR	A: 0	X: 0	Y: 0	SP: fd
f516	1d	ROR	A: 0	X: 0	Y: 0	SP: fd
f518	1e	ROR	A: 0	X: 0	Y: 0	SP: fd
f51a	1f	ROR	A: 0	X: 0	Y: 0	SP: fd
f51c	0	RTS	A: 0	X: 0	Y: 0	SP: fd
c7e4	c7e1	JMP	A: 0	X: 0	Y: 0	SP: ff
c7e1	f4fc	JSR	A: 0	X: 0	Y: 0	SP: ff
f4fc	18	LDA	A: 0	X: 0	Y: 0	SP: fd
f4fe	f4ff	AND	A: 0	X: 0	Y: 0	SP: fd
f500	0	STA	A: 0	X: 0	Y: 0	SP: fd
f502	19	LDA	A: 0	X: 0	Y: 0	SP: fd
f504	f505	AND	A: 0	X: 0	Y: 0	SP: fd
f506	0	EOR	A: 0	X: 0	Y: 0	SP: fd
f508	0	CLC	A: 0	X: 0	Y: 0	SP: fd
f509	f50c	BEQ	A: 0	X: 0	Y: 0	SP: fd
f50c	18	ROR	A: 0	X: 0	Y: 0	SP: fd
f50e	19	ROR	A: 0	X: 0	Y: 0	SP: fd
f510	1a	ROR	A: 0	X: 0	Y: 0	SP: fd
f512	1b	ROR	A: 0	X: 0	Y: 0	SP: fd
f514	1c	ROR	A: 0	X: 0	Y: 0	SP: fd
f516	1d	ROR	A: 0	X: 0	Y: 0	SP: fd
f518	1e	ROR	A: 0	X: 0	Y: 0	SP: fd
f51a	1f	ROR	A: 0	X: 0	Y: 0	SP: fd
f51c	0	RTS	A: 0	X: 0	Y: 0	SP: fd
c7e4	c7e1	JMP	A: 0	X: 0	Y: 0	SP: ff
c7e1	f4fc	JSR	A: 0	X: 0	Y: 0	SP: ff
f4fc	18	LDA	A: 0	X: 0	Y: 0	SP: fd
f4fe	f4ff	AND	A: 0	X: 0	Y: 0	SP: fd
f500	0	STA	A: 0	X: 0	Y: 0	SP: fd
f502	19	LDA	A: 0	X: 0	Y: 0	SP: fd
f504	f505	AND	A: 0	X: 0	Y: 0	SP: fd
f506	0	EOR	A: 0	X: 0	Y: 0	SP: fd
f508	0	CLC	A: 0	X: 0	Y: 0	SP: fd
f509	f50c	BEQ	A: 0	X: 0	Y: 0	SP: fd
f50c	18	ROR	A: 0	X: 0	Y: 0	SP: fd
f50e	19	ROR	A: 0	X: 0	Y: 0	SP: fd
f510	1a	ROR	A: 0	X: 0	Y: 0	SP: fd
f512	1b	ROR	A: 0	X: 0	Y: 0	SP: fd
f514	1c	ROR	A: 0	X: 0	Y: 0	SP: fd
f516	1d	ROR	A: 0	X: 0	Y: 0	SP: fd
f518	1e	ROR	A: 0	X: 0	Y: 0	SP: fd
f51a	1f	ROR	A: 0	X: 0	Y: 0	SP: fd
f51c	0	RTS	A: 0	X: 0	Y: 0	SP: fd
c7e4	c7e1	JMP	A: 0	X: 0	Y: 0	SP: ff
c7e1	f4fc	JSR	A: 0	X: 0	Y: 0	SP: ff
f4fc	18	LDA	A: 0	X: 0	Y: 0	SP: fd
f4fe	f4ff	AND	A: 0	X: 0	Y: 0	SP: fd
f500	0	STA	A: 0	X: 0	Y: 0	SP: fd
f502	19	LDA	A: 0	X: 0	Y: 0	SP: fd
f504	f505	AND	A: 0	X: 0	Y: 0	SP: fd
f506	0	EOR	A: 0	X: 0	Y: 0	SP: fd
f508	0	CLC	A: 0	X: 0	Y: 0	SP: fd
f509	f50c	BEQ	A: 0	X: 0	Y: 0	SP: fd
f50c	18	ROR	A: 0	X: 0	Y: 0	SP: fd
f50e	19	ROR	A: 0	X: 0	Y: 0	SP: fd
f510	1a	ROR	A: 0	X: 0	Y: 0	SP: fd
f512	1b	ROR	A: 0	X: 0	Y: 0	SP: fd
f514	1c	ROR	A: 0	X: 0	Y: 0	SP: fd
f516	1d	ROR	A: 0	X: 0	Y: 0	SP: fd
f518	1e	ROR	A: 0	X: 0	Y: 0	SP: fd
f51a	1f	ROR	A: 0	X: 0	Y: 0	SP: fd
f51c	0	RTS	A: 0	X: 0	Y: 0	SP: fd
c7e4	c7e1	JMP	A: 0	X: 0	Y: 0	SP: ff
c7e1	f4fc	JSR	A: 0	X: 0	Y: 0	SP: ff
f4fc	18	LDA	A: 0	X: 0	Y: 0	SP: fd
f4fe	f4ff	AND	A: 0	X: 0	Y: 0	SP: fd
f500	0	STA	A: 0	X: 0	Y: 0	SP: fd
f502	19	LDA	A: 0	X: 0	Y: 0	SP: fd
f504	f505	AND	A: 0	X: 0	Y: 0	SP: fd
f506	0	EOR	A: 0	X: 0	Y: 0	SP: fd
f508	0	CLC	A: 0	X: 0	Y: 0	SP: fd
f509	f50c	BEQ	A: 0	X: 0	Y: 0	SP: fd
f50c	18	ROR	A: 0	X: 0	Y: 0	SP: fd
f50e	19	ROR	A: 0	X: 0	Y: 0	SP: fd
f510	1a	ROR	A: 0	X: 0	Y: 0	SP: fd
f512	1b	ROR	A: 0	X: 0	Y: 0	SP: fd
f514	1c	ROR	A: 0	X: 0	Y: 0	SP: fd
f516	1d	ROR	A: 0	X: 0	Y: 0	SP: fd
f518	1e	ROR	A: 0	X: 0	Y: 0	SP: fd
f51a	1f	ROR	A: 0	X: 0	Y: 0	SP: fd
f51c	0	RTS	A: 0	X: 0	Y: 0	SP: fd
c7e4	c7e1	JMP	A: 0	X: 0	Y: 0	SP: ff
c7e1	f4fc	JSR	A: 0	X: 0	Y: 0	SP: ff
f4fc	18	LDA	A: 0	X: 0	Y: 0	SP: fd
f4fe	f4ff	AND	A: 0	X: 0	Y: 0	SP: fd
f500	0	STA	A: 0	X: 0	Y: 0	SP: fd
f502	19	LDA	A: 0	X: 0	Y: 0	SP: fd
f504	f505	AND	A: 0	X: 0	Y: 0	SP: fd
f506	0	EOR	A: 0	X: 0	Y: 0	SP: fd
f508	0	CLC	A: 0	X: 0	Y: 0	SP: fd
f509	f50c	BEQ	A: 0	X: 0	Y: 0	SP: fd
f50c	18	ROR	A: 0	X: 0	Y: 0	SP: fd
f50e	19	ROR	A: 0	X: 0	Y: 0	SP: fd
f510	1a	ROR	A: 0	X: 0	Y: 0	SP: fd
f512	1b	ROR	A: 0	X: 0	Y: 0	SP: fd
f514	1c	ROR	A: 0	X: 0	Y: 0	SP: fd
f516	1d	ROR	A: 0	X: 0	Y: 0	SP: fd
f518	1e	ROR	A: 0	X: 0	Y: 0	SP: fd
f51a	1f	ROR	A: 0	X: 0	Y: 0	SP: fd
f51c	0	RTS	A: 0	X: 0	Y: 0	SP: fd
c7e4	c7e1	JMP	A: 0	X: 0	Y: 0	SP: ff
c7e1	f4fc	JSR	A: 0	X: 0	Y: 0	SP: ff
f4fc	18	LDA	A: 0	X: 0	Y: 0	SP: fd
f4fe	f4ff	AND	A: 0	X: 0	Y: 0	SP: fd
f500	0	STA	A: 0	X: 0	Y: 0	SP: fd
f502	19	LDA	A: 0	X: 0	Y: 0	SP: fd
f504	f505	AND	A: 0	X: 0	Y: 0	SP: fd
f506	0	EOR	A: 0	X: 0	Y: 0	SP: fd
f508	0	CLC	A: 0	X: 0	Y: 0	SP: fd
f509	f50c	BEQ	A: 0	X: 0	Y: 0	SP: fd
f50c	18	ROR	A: 0	X: 0	Y: 0	SP: fd
f50e	19	ROR	A: 0	X: 0	Y: 0	SP: fd
f510	1a	ROR	A: 0	X: 0	Y: 0	SP: fd
f512	1b	ROR	A: 0	X: 0	Y: 0	SP: fd
f514	1c	ROR	A: 0	X: 0	Y: 0	SP: fd
f516	1d	ROR	A: 0	X: 0	Y: 0	SP: fd
f518	1e	ROR	A: 0	X: 0	Y: 0	SP: fd
f51a	1f	ROR	A: 0	X: 0	Y: 0	SP: fd
f51c	0	RTS	A: 0	X: 0	Y: 0	SP: fd
c7e4	c7e1	JMP	A: 0	X: 0	Y: 0	SP: ff
c7e1	f4fc	JSR	A: 0	X: 0	Y: 0	SP: ff
f4fc	18	LDA	A: 0	X: 0	Y: 0	SP: fd
f4fe	f4ff	AND	A: 0	X: 0	Y: 0	SP: fd
f500	0	STA	A: 0	X: 0	Y: 0	SP: fd
f502	19	LDA	A: 0	X: 0	Y: 0	SP: fd
f504	f505	AND	A: 0	X: 0	Y: 0	SP: fd
f506	0	EOR	A: 0	X: 0	Y: 0	SP: fd
f508	0	CLC	A: 0	X: 0	Y: 0	SP: fd
f509	f50c	BEQ	A: 0	X: 0	Y: 0	SP: fd
f50c	18	ROR	A: 0	X: 0	Y: 0	SP: fd
f50e	19	ROR	A: 0	X: 0	Y: 0	SP: fd
f510	1a	ROR	A: 0	X: 0	Y: 0	SP: fd
f512	1b	ROR	A: 0	X: 0	Y: 0	SP: fd
f514	1c	ROR	A: 0	X: 0	Y: 0	SP: fd
f516	1d	ROR	A: 0	X: 0	Y: 0	SP: fd
f518	1e	ROR	A: 0	X: 0	Y: 0	SP: fd
f51a	1f	ROR	A: 0	X: 0	Y: 0	SP: fd
f51c	0	RTS	A: 0	X: 0	Y: 0	SP: fd
c7e4	c7e1	JMP	A: 0	X: 0	Y: 0	SP: ff
c7e1	f4fc	JSR	A: 0	X: 0	Y: 0	SP: ff
f4fc	18	LDA	A: 0	X: 0	Y: 0	SP: fd
f4fe	f4ff	AND	A: 0	X: 0	Y: 0	SP: fd
f500	0	STA	A: 0	X: 0	Y: 0	SP: fd
f502	19	LDA	A: 0	X: 0	Y: 0	SP: fd
f504	f505	AND	A: 0	X: 0	Y: 0	SP: fd
f506	0	EOR	A: 0	X: 0	Y: 0	SP: fd
f508	0	CLC	A: 0	X: 0	Y: 0	SP: fd
f509	f50c	BEQ	A: 0	X: 0	Y: 0	SP: fd
f50c	18	ROR	A: 0	X: 0	Y: 0	SP: fd
f50e	19	ROR	A: 0	X: 0	Y: 0	SP: fd
f510	1a	ROR	A: 0	X: 0	Y: 0	SP: fd
f512	1b	ROR	A: 0	X: 0	Y: 0	SP: fd
f514	1c	ROR	A: 0	X: 0	Y: 0	SP: fd
f516	1d	ROR	A: 0	X: 0	Y: 0	SP: fd
f518	1e	ROR	A: 0	X: 0	Y: 0	SP: fd
f51a	1f	ROR	A: 0	X: 0	Y: 0	SP: fd
f51c	0	RTS	A: 0	X: 0	Y: 0	SP: fd
c7e4	c7e1	JMP	A: 0	X: 0	Y: 0	SP: ff
c7e1	f4fc	JSR	A: 0	X: 0	Y: 0	SP: ff
f4fc	18	LDA	A: 0	X: 0	Y: 0	SP: fd
f4fe	f4ff	AND	A: 0	X: 0	Y: 0	SP: fd
f500	0	STA	A: 0	X: 0	Y: 0	SP: fd
f502	19	LDA	A: 0	X: 0	Y: 0	SP: fd
f504	f505	AND	A: 0	X: 0	Y: 0	SP: fd
f506	0	EOR	A: 0	X: 0	Y: 0	SP: fd
f508	0	CLC	A: 0	X: 0	Y: 0	SP: fd
f509	f50c	BEQ	A: 0	X: 0	Y: 0	SP: fd
f50c	18	ROR	A: 0	X: 0	Y: 0	SP: fd
f50e	19	ROR	A: 0	X: 0	Y: 0	SP: fd
f510	1a	ROR	A: 0	X: 0	Y: 0	SP: fd
f512	1b	ROR	A: 0	X: 0	Y: 0	SP: fd
f514	1c	ROR	A: 0	X: 0	Y: 0	SP: fd
f516	1d	ROR	A: 0	X: 0	Y: 0	SP: fd
f518	1e	ROR	A: 0	X: 0	Y: 0	SP: fd
f51a	1f	ROR	A: 0	X: 0	Y: 0	SP: fd
f51c	0	RTS	A: 0	X: 0	Y: 0	SP: fd
c7e4	c7e1	JMP	A: 0	X: 0	Y: 0	SP: ff
c7e1	f4fc	JSR	A: 0	X: 0	Y: 0	SP: ff
f4fc	18	LDA	A: 0	X: 0	Y: 0	SP: fd
f4fe	f4ff	AND	A: 0	X: 0	Y: 0	SP: fd
f500	0	STA	A: 0	X: 0	Y: 0	SP: fd
f502	19	LDA	A: 0	X: 0	Y: 0	SP: fd
f504	f505	AND	A: 0	X: 0	Y: 0	SP: fd
f506	0	EOR	A: 0	X: 0	Y: 0	SP: fd
f508	0	CLC	A: 0	X: 0	Y: 0	SP: fd
f509	f50c	BEQ	A: 0	X: 0	Y: 0	SP: fd
f50c	18	ROR	A: 0	X: 0	Y: 0	SP: fd
f50e	19	ROR	A: 0	X: 0	Y: 0	SP: fd
f510	1a	ROR	A: 0	X: 0	Y: 0	SP: fd
f512	1b	ROR	A: 0	X: 0	Y: 0	SP: fd
f514	1c	ROR	A: 0	X: 0	Y: 0	SP: fd
f516	1d	ROR	A: 0	X: 0	Y: 0	SP: fd
f518	1e	ROR	A: 0	X: 0	Y: 0	SP: fd
f51a	1f	ROR	A: 0	X: 0	Y: 0	SP: fd
f51c	0	RTS	A: 0	X: 0	Y: 0	SP: fd
c7e4	c7e1	JMP	A: 0	X: 0	Y: 0	SP: ff
c7e1	f4fc	JSR	A: 0	X: 0	Y: 0	SP: ff
f4fc	18	LDA	A: 0	X: 0	Y: 0	SP: fd
f4fe	f4ff	AND	A: 0	X: 0	Y: 0	SP: fd
f500	0	STA	A: 0	X: 0	Y: 0	SP: fd
f502	19	LDA	A: 0	X: 0	Y: 0	SP: fd
f504	f505	AND	A: 0	X: 0	Y: 0	SP: fd
f506	0	EOR	A: 0	X: 0	Y: 0	SP: fd
f508	0	CLC	A: 0	X: 0	Y: 0	SP: fd
f509	f50c	BEQ	A: 0	X: 0	Y: 0	SP: fd
f50c	18	ROR	A: 0	X: 0	Y: 0	SP: fd
f50e	19	ROR	A: 0	X: 0	Y: 0	SP: fd
f510	1a	ROR	A: 0	X: 0	Y: 0	SP: fd
f512	1b	ROR	A: 0	X: 0	Y: 0	SP: fd
f514	1c	ROR	A: 0	X: 0	Y: 0	SP: fd
f516	1d	ROR	A: 0	X: 0	Y: 0	SP: fd
f518	1e	ROR	A: 0	X: 0	Y: 0	SP: fd
f51a	1f	ROR	A: 0	X: 0	Y: 0	SP: fd
f51c	0	RTS	A: 0	X: 0	Y: 0	SP: fd
c7e4	c7e1	JMP	A: 0	X: 0	Y: 0	SP: ff
c7e1	f4fc	JSR	A: 0	X: 0	Y: 0	SP: ff
f4fc	18	LDA	A: 0	X: 0	Y: 0	SP: fd
f4fe	f4ff	AND	A: 0	X: 0	Y: 0	SP: fd
f500	0	STA	A: 0	X: 0	Y: 0	SP: fd
f502	19	LDA	A: 0	X: 0	Y: 0	SP: fd
f504	f505	AND	A: 0	X: 0	Y: 0	SP: fd
f506	0	EOR	A: 0	X: 0	Y: 0	SP: fd
f508	0	CLC	A: 0	X: 0	Y: 0	SP: fd
f509	f50c	BEQ	A: 0	X: 0	Y: 0	SP: fd
f50c	18	ROR	A: 0	X: 0	Y: 0	SP: fd
f50e	19	ROR	A: 0	X: 0	Y: 0	SP: fd
f510	1a	ROR	A: 0	X: 0	Y: 0	SP: fd
f512	1b	ROR	A: 0	X: 0	Y: 0	SP: fd
f514	1c	ROR	A: 0	X: 0	Y: 0	SP: fd
f516	1d	ROR	A: 0	X: 0	Y: 0	SP: fd
f518	1e	ROR	A: 0	X: 0	Y: 0	SP: fd
f51a	1f	ROR	A: 0	X: 0	Y: 0	SP: fd
f51c	0	RTS	A: 0	X: 0	Y: 0	SP: fd
c7e4	c7e1	JMP	A: 0	X: 0	Y: 0	SP: ff
c7e1	f4fc	JSR	A: 0	X: 0	Y: 0	SP: ff
f4fc	18	LDA	A: 0	X: 0	Y: 0	SP: fd
f4fe	f4ff	AND	A: 0	X: 0	Y: 0	SP: fd
f500	0	STA	A: 0	X: 0	Y: 0	SP: fd
f502	19	LDA	A: 0	X: 0	Y: 0	SP: fd
f504	f505	AND	A: 0	X: 0	Y: 0	SP: fd
f506	0	EOR	A: 0	X: 0	Y: 0	SP: fd
f508	0	CLC	A: 0	X: 0	Y: 0	SP: fd
f509	f50c	BEQ	A: 0	X: 0	Y: 0	SP: fd
f50c	18	ROR	A: 0	X: 0	Y: 0	SP: fd
f50e	19	ROR	A: 0	X: 0	Y: 0	SP: fd
f510	1a	ROR	A: 0	X: 0	Y: 0	SP: fd
f512	1b	ROR	A: 0	X: 0	Y: 0	SP: fd
f514	1c	ROR	A: 0	X: 0	Y: 0	SP: fd
f516	1d	ROR	A: 0	X: 0	Y: 0	SP: fd
f518	1e	ROR	A: 0	X: 0	Y: 0	SP: fd
f51a	1f	ROR	A: 0	X: 0	Y: 0	SP: fd
f51c	0	RTS	A: 0	X: 0	Y: 0	SP: fd
c7e4	c7e1	JMP	A: 0	X: 0	Y: 0	SP: ff
c7e1	f4fc	JSR	A: 0	X: 0	Y: 0	SP: ff
f4fc	18	LDA	A: 0	X: 0	Y: 0	SP: fd
f4fe	f4ff	AND	A: 0	X: 0	Y: 0	SP: fd
f500	0	STA	A: 0	X: 0	Y: 0	SP: fd
f502	19	LDA	A: 0	X: 0	Y: 0	SP: fd
f504	f505	AND	A: 0	X: 0	Y: 0	SP: fd
f506	0	EOR	A: 0	X: 0	Y: 0	SP: fd
f508	0	CLC	A: 0	X: 0	Y: 0	SP: fd
f509	f50c	BEQ	A: 0	X: 0	Y: 0	SP: fd
f50c	18	ROR	A: 0	X: 0	Y: 0	SP: fd
f50e	19	ROR	A: 0	X: 0	Y: 0	SP: fd
f510	1a	ROR	A: 0	X: 0	Y: 0	SP: fd
f512	1b	ROR	A: 0	X: 0	Y: 0	SP: fd
f514	1c	ROR	A: 0	X: 0	Y: 0	SP: fd
f516	1d	ROR	A: 0	X: 0	Y: 0	SP: fd
f518	1e	ROR	A: 0	X: 0	Y: 0	SP: fd
f51a	1f	ROR	A: 0	X: 0	Y: 0	SP: fd
f51c	0	RTS	A: 0	X: 0	Y: 0	SP: fd
c7e4	c7e1	JMP	A: 0	X: 0	Y: 0	SP: ff
c7e1	f4fc	JSR	A: 0	X: 0	Y: 0	SP: ff
f4fc	18	LDA	A: 0	X: 0	Y: 0	SP: fd
f4fe	f4ff	AND	A: 0	X: 0	Y: 0	SP: fd
f500	0	STA	A: 0	X: 0	Y: 0	SP: fd
f502	19	LDA	A: 0	X: 0	Y: 0	SP: fd
f504	f505	AND	A: 0	X: 0	Y: 0	SP: fd
f506	0	EOR	A: 0	X: 0	Y: 0	SP: fd
f508	0	CLC	A: 0	X: 0	Y: 0	SP: fd
f509	f50c	BEQ	A: 0	X: 0	Y: 0	SP: fd
f50c	18	ROR	A: 0	X: 0	Y: 0	SP: fd
f50e	19	ROR	A: 0	X: 0	Y: 0	SP: fd
f510	1a	ROR	A: 0	X: 0	Y: 0	SP: fd
f512	1b	ROR	A: 0	X: 0	Y: 0	SP: fd
f514	1c	ROR	A: 0	X: 0	Y: 0	SP: fd
f516	1d	ROR	A: 0	X: 0	Y: 0	SP: fd
f518	1e	ROR	A: 0	X: 0	Y: 0	SP: fd
f51a	1f	ROR	A: 0	X: 0	Y: 0	SP: fd
f51c	0	RTS	A: 0	X: 0	Y: 0	SP: fd
c7e4	c7e1	JMP	A: 0	X: 0	Y: 0	SP: ff
c7e1	f4fc	JSR	A: 0	X: 0	Y: 0	SP: ff
f4fc	18	LDA	A: 0	X: 0	Y: 0	SP: fd
f4fe	f4ff	AND	A: 0	X: 0	Y: 0	SP: fd
f500	0	STA	A: 0	X: 0	Y: 0	SP: fd
f502	19	LDA	A: 0	X: 0	Y: 0	SP: fd
f504	f505	AND	A: 0	X: 0	Y: 0	SP: fd
f506	0	EOR	A: 0	X: 0	Y: 0	SP: fd
f508	0	CLC	A: 0	X: 0	Y: 0	SP: fd
f509	f50c	BEQ	A: 0	X: 0	Y: 0	SP: fd
f50c	18	ROR	A: 0	X: 0	Y: 0	SP: fd
f50e	19	ROR	A: 0	X: 0	Y: 0	SP: fd
f510	1a	ROR	A: 0	X: 0	Y: 0	SP: fd
f512	1b	ROR	A: 0	X: 0	Y: 0	SP: fd
f514	1c	ROR	A: 0	X: 0	Y: 0	SP: fd
f516	1d	ROR	A: 0	X: 0	Y: 0	SP: fd
f518	1e	ROR	A: 0	X: 0	Y: 0	SP: fd
f51a	1f	ROR	A: 0	X: 0	Y: 0	SP: fd
f51c	0	RTS	A: 0	X: 0	Y: 0	SP: fd
c7e4	c7e1	JMP	A: 0	X: 0	Y: 0	SP: ff
c7e1	f4fc	JSR	A: 0	X: 0	Y: 0	SP: ff
f4fc	18	LDA	A: 0	X: 0	Y: 0	SP: fd
f4fe	f4ff	AND	A: 0	X: 0	Y: 0	SP: fd
f500	0	STA	A: 0	X: 0	Y: 0	SP: fd
f502	19	LDA	A: 0	X: 0	Y: 0	SP: fd
f504	f505	AND	A: 0	X: 0	Y: 0	SP: fd
f506	0	EOR	A: 0	X: 0	Y: 0	SP: fd
f508	0	CLC	A: 0	X: 0	Y: 0	SP: fd
f509	f50c	BEQ	A: 0	X: 0	Y: 0	SP: fd
f50c	18	ROR	A: 0	X: 0	Y: 0	SP: fd
f50e	19	ROR	A: 0	X: 0	Y: 0	SP: fd
f510	1a	ROR	A: 0	X: 0	Y: 0	SP: fd
f512	1b	ROR	A: 0	X: 0	Y: 0	SP: fd
f514	1c	ROR	A: 0	X: 0	Y: 0	SP: fd
f516	1d	ROR	A: 0	X: 0	Y: 0	SP: fd
f518	1e	ROR	A: 0	X: 0	Y: 0	SP: fd
f51a	1f	ROR	A: 0	X: 0	Y: 0	SP: fd
f51c	0	RTS	A: 0	X: 0	Y: 0	SP: fd
c7e4	c7e1	JMP	A: 0	X: 0	Y: 0	SP: ff
c7e1	f4fc	JSR	A: 0	X: 0	Y: 0	SP: ff
f4fc	18	LDA	A: 0	X: 0	Y: 0	SP: fd
f4fe	f4ff	AND	A: 0	X: 0	Y: 0	SP: fd
f500	0	STA	A: 0	X: 0	Y: 0	SP: fd
f502	19	LDA	A: 0	X: 0	Y: 0	SP: fd
f504	f505	AND	A: 0	X: 0	Y: 0	SP: fd
f506	0	EOR	A: 0	X: 0	Y: 0	SP: fd
f508	0	CLC	A: 0	X: 0	Y: 0	SP: fd
f509	f50c	BEQ	A: 0	X: 0	Y: 0	SP: fd
f50c	18	ROR	A: 0	X: 0	Y: 0	SP: fd
f50e	19	ROR	A: 0	X: 0	Y: 0	SP: fd
f510	1a	ROR	A: 0	X: 0	Y: 0	SP: fd
f512	1b	ROR	A: 0	X: 0	Y: 0	SP: fd
f514	1c	ROR	A: 0	X: 0	Y: 0	SP: fd
f516	1d	ROR	A: 0	X: 0	Y: 0	SP: fd
f518	1e	ROR	A: 0	X: 0	Y: 0	SP: fd
f51a	1f	ROR	A: 0	X: 0	Y: 0	SP: fd
f51c	0	RTS	A: 0	X: 0	Y: 0	SP: fd
c7e4	c7e1	JMP	A: 0	X: 0	Y: 0	SP: ff
c7e1	f4fc	JSR	A: 0	X: 0	Y: 0	SP: ff
f4fc	18	LDA	A: 0	X: 0	Y: 0	SP: fd
f4fe	f4ff	AND	A: 0	X: 0	Y: 0	SP: fd
f500	0	STA	A: 0	X: 0	Y: 0	SP: fd
f502	19	LDA	A: 0	X: 0	Y: 0	SP: fd
f504	f505	AND	A: 0	X: 0	Y: 0	SP: fd
f506	0	EOR	A: 0	X: 0	Y: 0	SP: fd
f508	0	CLC	A: 0	X: 0	Y: 0	SP: fd
f509	f50c	BEQ	A: 0	X: 0	Y: 0	SP: fd
f50c	18	ROR	A: 0	X: 0	Y: 0	SP: fd
f50e	19	ROR	A: 0	X: 0	Y: 0	SP: fd
f510	1a	ROR	A: 0	X: 0	Y: 0	SP: fd
f512	1b	ROR	A: 0	X: 0	Y: 0	SP: fd
f514	1c	ROR	A: 0	X: 0	Y: 0	SP: fd
f516	1d	ROR	A: 0	X: 0	Y: 0	SP: fd
f518	1e	ROR	A: 0	X: 0	Y: 0	SP: fd
f51a	1f	ROR	A: 0	X: 0	Y: 0	SP: fd
f51c	0	RTS	A: 0	X: 0	Y: 0	SP: fd
c7e4	c7e1	JMP	A: 0	X: 0	Y: 0	SP: ff
c7e1	f4fc	JSR	A: 0	X: 0	Y: 0	SP: ff
f4fc	18	LDA	A: 0	X: 0	Y: 0	SP: fd
f4fe	f4ff	AND	A: 0	X: 0	Y: 0	SP: fd
f500	0	STA	A: 0	X: 0	Y: 0	SP: fd
f502	19	LDA	A: 0	X: 0	Y: 0	SP: fd
f504	f505	AND	A: 0	X: 0	Y: 0	SP: fd
f506	0	EOR	A: 0	X: 0	Y: 0	SP: fd
f508	0	CLC	A: 0	X: 0	Y: 0	SP: fd
f509	f50c	BEQ	A: 0	X: 0	Y: 0	SP: fd
f50c	18	ROR	A: 0	X: 0	Y: 0	SP: fd
f50e	19	ROR	A: 0	X: 0	Y: 0	SP: fd
f510	1a	ROR	A: 0	X: 0	Y: 0	SP: fd
f512	1b	ROR	A: 0	X: 0	Y: 0	SP: fd
f514	1c	ROR	A: 0	X: 0	Y: 0	SP: fd
f516	1d	ROR	A: 0	X: 0	Y: 0	SP: fd
f518	1e	ROR	A: 0	X: 0	Y: 0	SP: fd
f51a	1f	ROR	A: 0	X: 0	Y: 0	SP: fd
f51c	0	RTS	A: 0	X: 0	Y: 0	SP: fd
c7e4	c7e1	JMP	A: 0	X: 0	Y: 0	SP: ff
c7e1	f4fc	JSR	A: 0	X: 0	Y: 0	SP: ff
f4fc	18	LDA	A: 0	X: 0	Y: 0	SP: fd
f4fe	f4ff	AND	A: 0	X: 0	Y: 0	SP: fd
f500	0	STA	A: 0	X: 0	Y: 0	SP: fd
f502	19	LDA	A: 0	X: 0	Y: 0	SP: fd
f504	f505	AND	A: 0	X: 0	Y: 0	SP: fd
f506	0	EOR	A: 0	X: 0	Y: 0	SP: fd
f508	0	CLC	A: 0	X: 0	Y: 0	SP: fd
f509	f50c	BEQ	A: 0	X: 0	Y: 0	SP: fd
f50c	18	ROR	A: 0	X: 0	Y: 0	SP: fd
f50e	19	ROR	A: 0	X: 0	Y: 0	SP: fd
f510	1a	ROR	A: 0	X: 0	Y: 0	SP: fd
f512	1b	ROR	A: 0	X: 0	Y: 0	SP: fd
f514	1c	ROR	A: 0	X: 0	Y: 0	SP: fd
f516	1d	ROR	A: 0	X: 0	Y: 0	SP: fd
f518	1e	ROR	A: 0	X: 0	Y: 0	SP: fd
f51a	1f	ROR	A: 0	X: 0	Y: 0	SP: fd
f51c	0	RTS	A: 0	X: 0	Y: 0	SP: fd
c7e4	c7e1	JMP	A: 0	X: 0	Y: 0	SP: ff
c7e1	f4fc	JSR	A: 0	X: 0	Y: 0	SP: ff
f4fc	18	LDA	A: 0	X: 0	Y: 0	SP: fd
f4fe	f4ff	AND	A: 0	X: 0	Y: 0	SP: fd
f500	0	STA	A: 0	X: 0	Y: 0	SP: fd
f502	19	LDA	A: 0	X: 0	Y: 0	SP: fd
f504	f505	AND	A: 0	X: 0	Y: 0	SP: fd
f506	0	EOR	A: 0	X: 0	Y: 0	SP: fd
f508	0	CLC	A: 0	X: 0	Y: 0	SP: fd
f509	f50c	BEQ	A: 0	X: 0	Y: 0	SP: fd
f50c	18	ROR	A: 0	X: 0	Y: 0	SP: fd
f50e	19	ROR	A: 0	X: 0	Y: 0	SP: fd
f510	1a	ROR	A: 0	X: 0	Y: 0	SP: fd
f512	1b	ROR	A: 0	X: 0	Y: 0	SP: fd
f514	1c	ROR	A: 0	X: 0	Y: 0	SP: fd
f516	1d	ROR	A: 0	X: 0	Y: 0	SP: fd
f518	1e	ROR	A: 0	X: 0	Y: 0	SP: fd
f51a	1f	ROR	A: 0	X: 0	Y: 0	SP: fd
f51c	0	RTS	A: 0	X: 0	Y: 0	SP: fd
c7e4	c7e1	JMP	A: 0	X: 0	Y: 0	SP: ff
c7e1	f4fc	JSR	A: 0	X: 0	Y: 0	SP: ff
f4fc	18	LDA	A: 0	X: 0	Y: 0	SP: fd
f4fe	f4ff	AND	A: 0	X: 0	Y: 0	SP: fd
f500	0	STA	A: 0	X: 0	Y: 0	SP: fd
f502	19	LDA	A: 0	X: 0	Y: 0	SP: fd
f504	f505	AND	A: 0	X: 0	Y: 0	SP: fd
f506	0	EOR	A: 0	X: 0	Y: 0	SP: fd
f508	0	CLC	A: 0	X: 0	Y: 0	SP: fd
f509	f50c	BEQ	A: 0	X: 0	Y: 0	SP: fd
f50c	18	ROR	A: 0	X: 0	Y: 0	SP: fd
f50e	19	ROR	A: 0	X: 0	Y: 0	SP: fd
f510	1a	ROR	A: 0	X: 0	Y: 0	SP: fd
f512	1b	ROR	A: 0	X: 0	Y: 0	SP: fd
f514	1c	ROR	A: 0	X: 0	Y: 0	SP: fd
f516	1d	ROR	A: 0	X: 0	Y: 0	SP: fd
f518	1e	ROR	A: 0	X: 0	Y: 0	SP: fd
f51a	1f	ROR	A: 0	X: 0	Y: 0	SP: fd
f51c	0	RTS	A: 0	X: 0	Y: 0	SP: fd
c7e4	c7e1	JMP	A: 0	X: 0	Y: 0	SP: ff
c7e1	f4fc	JSR	A: 0	X: 0	Y: 0	SP: ff
f4fc	18	LDA	A: 0	X: 0	Y: 0	SP: fd
f4fe	f4ff	AND	A: 0	X: 0	Y: 0	SP: fd
f500	0	STA	A: 0	X: 0	Y: 0	SP: fd
f502	19	LDA	A: 0	X: 0	Y: 0	SP: fd
f504	f505	AND	A: 0	X: 0	Y: 0	SP: fd
f506	0	EOR	A: 0	X: 0	Y: 0	SP: fd
f508	0	CLC	A: 0	X: 0	Y: 0	SP: fd
f509	f50c	BEQ	A: 0	X: 0	Y: 0	SP: fd
f50c	18	ROR	A: 0	X: 0	Y: 0	SP: fd
f50e	19	ROR	A: 0	X: 0	Y: 0	SP: fd
f510	1a	ROR	A: 0	X: 0	Y: 0	SP: fd
f512	1b	ROR	A: 0	X: 0	Y: 0	SP: fd
f514	1c	ROR	A: 0	X: 0	Y: 0	SP: fd
f516	1d	ROR	A: 0	X: 0	Y: 0	SP: fd
f518	1e	ROR	A: 0	X: 0	Y: 0	SP: fd
f51a	1f	ROR	A: 0	X: 0	Y: 0	SP: fd
f51c	0	RTS	A: 0	X: 0	Y: 0	SP: fd
c7e4	c7e1	JMP	A: 0	X: 0	Y: 0	SP: ff
c7e1	f4fc	JSR	A: 0	X: 0	Y: 0	SP: ff
f4fc	18	LDA	A: 0	X: 0	Y: 0	SP: fd
f4fe	f4ff	AND	A: 0	X: 0	Y: 0	SP: fd
f500	0	STA	A: 0	X: 0	Y: 0	SP: fd
f502	19	LDA	A: 0	X: 0	Y: 0	SP: fd
f504	f505	AND	A: 0	X: 0	Y: 0	SP: fd
f506	0	EOR	A: 0	X: 0	Y: 0	SP: fd
f508	0	CLC	A: 0	X: 0	Y: 0	SP: fd
f509	f50c	BEQ	A: 0	X: 0	Y: 0	SP: fd
f50c	18	ROR	A: 0	X: 0	Y: 0	SP: fd
f50e	19	ROR	A: 0	X: 0	Y: 0	SP: fd
f510	1a	ROR	A: 0	X: 0	Y: 0	SP: fd
f512	1b	ROR	A: 0	X: 0	Y: 0	SP: fd
f514	1c	ROR	A: 0	X: 0	Y: 0	SP: fd
f516	1d	ROR	A: 0	X: 0	Y: 0	SP: fd
f518	1e	ROR	A: 0	X: 0	Y: 0	SP: fd
f51a	1f	ROR	A: 0	X: 0	Y: 0	SP: fd
f51c	0	RTS	A: 0	X: 0	Y: 0	SP: fd
c7e4	c7e1	JMP	A: 0	X: 0	Y: 0	SP: ff
c7e1	f4fc	JSR	A: 0	X: 0	Y: 0	SP: ff
f4fc	18	LDA	A: 0	X: 0	Y: 0	SP: fd
f4fe	f4ff	AND	A: 0	X: 0	Y: 0	SP: fd
f500	0	STA	A: 0	X: 0	Y: 0	SP: fd
f502	19	LDA	A: 0	X: 0	Y: 0	SP: fd
f504	f505	AND	A: 0	X: 0	Y: 0	SP: fd
f506	0	EOR	A: 0	X: 0	Y: 0	SP: fd
f508	0	CLC	A: 0	X: 0	Y: 0	SP: fd
f509	f50c	BEQ	A: 0	X: 0	Y: 0	SP: fd
f50c	18	ROR	A: 0	X: 0	Y: 0	SP: fd
f50e	19	ROR	A: 0	X: 0	Y: 0	SP: fd
f510	1a	ROR	A: 0	X: 0	Y: 0	SP: fd
f512	1b	ROR	A: 0	X: 0	Y: 0	SP: fd
f514	1c	ROR	A: 0	X: 0	Y: 0	SP: fd
f516	1d	ROR	A: 0	X: 0	Y: 0	SP: fd
f518	1e	ROR	A: 0	X: 0	Y: 0	SP: fd
f51a	1f	ROR	A: 0	X: 0	Y: 0	SP: fd
f51c	0	RTS	A: 0	X: 0	Y: 0	SP: fd
c7e4	c7e1	JMP	A: 0	X: 0	Y: 0	SP: ff
c7e1	f4fc	JSR	A: 0	X: 0	Y: 0	SP: ff
f4fc	18	LDA	A: 0	X: 0	Y: 0	SP: fd
f4fe	f4ff	AND	A: 0	X: 0	Y: 0	SP: fd
f500	0	STA	A: 0	X: 0	Y: 0	SP: fd
f502	19	LDA	A: 0	X: 0	Y: 0	SP: fd
f504	f505	AND	A: 0	X: 0	Y: 0	SP: fd
f506	0	EOR	A: 0	X: 0	Y: 0	SP: fd
f508	0	CLC	A: 0	X: 0	Y: 0	SP: fd
f509	f50c	BEQ	A: 0	X: 0	Y: 0	SP: fd
f50c	18	ROR	A: 0	X: 0	Y: 0	SP: fd
f50e	19	ROR	A: 0	X: 0	Y: 0	SP: fd
f510	1a	ROR	A: 0	X: 0	Y: 0	SP: fd
f512	1b	ROR	A: 0	X: 0	Y: 0	SP: fd
f514	1c	ROR	A: 0	X: 0	Y: 0	SP: fd
f516	1d	ROR	A: 0	X: 0	Y: 0	SP: fd
f518	1e	ROR	A: 0	X: 0	Y: 0	SP: fd
f51a	1f	ROR	A: 0	X: 0	Y: 0	SP: fd
f51c	0	RTS	A: 0	X: 0	Y: 0	SP: fd
c7e4	c7e1	JMP	A: 0	X: 0	Y: 0	SP: ff
c7e1	f4fc	JSR	A: 0	X: 0	Y: 0	SP: ff
f4fc	18	LDA	A: 0	X: 0	Y: 0	SP: fd
f4fe	f4ff	AND	A: 0	X: 0	Y: 0	SP: fd
f500	0	STA	A: 0	X: 0	Y: 0	SP: fd
f502	19	LDA	A: 0	X: 0	Y: 0	SP: fd
f504	f505	AND	A: 0	X: 0	Y: 0	SP: fd
f506	0	EOR	A: 0	X: 0	Y: 0	SP: fd
f508	0	CLC	A: 0	X: 0	Y: 0	SP: fd
f509	f50c	BEQ	A: 0	X: 0	Y: 0	SP: fd
f50c	18	ROR	A: 0	X: 0	Y: 0	SP: fd
f50e	19	ROR	A: 0	X: 0	Y: 0	SP: fd
f510	1a	ROR	A: 0	X: 0	Y: 0	SP: fd
f512	1b	ROR	A: 0	X: 0	Y: 0	SP: fd
f514	1c	ROR	A: 0	X: 0	Y: 0	SP: fd
f516	1d	ROR	A: 0	X: 0	Y: 0	SP: fd
f518	1e	ROR	A: 0	X: 0	Y: 0	SP: fd
f51a	1f	ROR	A: 0	X: 0	Y: 0	SP: fd
f51c	0	RTS	A: 0	X: 0	Y: 0	SP: fd
c7e4	c7e1	JMP	A: 0	X: 0	Y: 0	SP: ff
c7e1	f4fc	JSR	A: 0	X: 0	Y: 0	SP: ff
f4fc	18	LDA	A: 0	X: 0	Y: 0	SP: fd
f4fe	f4ff	AND	A: 0	X: 0	Y: 0	SP: fd
f500	0	STA	A: 0	X: 0	Y: 0	SP: fd
f502	19	LDA	A: 0	X: 0	Y: 0	SP: fd
f504	f505	AND	A: 0	X: 0	Y: 0	SP: fd
f506	0	EOR	A: 0	X: 0	Y: 0	SP: fd
f508	0	CLC	A: 0	X: 0	Y: 0	SP: fd
f509	f50c	BEQ	A: 0	X: 0	Y: 0	SP: fd
f50c	18	ROR	A: 0	X: 0	Y: 0	SP: fd
f50e	19	ROR	A: 0	X: 0	Y: 0	SP: fd
f510	1a	ROR	A: 0	X: 0	Y: 0	SP: fd
f512	1b	ROR	A: 0	X: 0	Y: 0	SP: fd
f514	1c	ROR	A: 0	X: 0	Y: 0	SP: fd
f516	1d	ROR	A: 0	X: 0	Y: 0	SP: fd
f518	1e	ROR	A: 0	X: 0	Y: 0	SP: fd
f51a	1f	ROR	A: 0	X: 0	Y: 0	SP: fd
f51c	0	RTS	A: 0	X: 0	Y: 0	SP: fd
c7e4	c7e1	JMP	A: 0	X: 0	Y: 0	SP: ff
c7e1	f4fc	JSR	A: 0	X: 0	Y: 0	SP: ff
f4fc	18	LDA	A: 0	X: 0	Y: 0	SP: fd
f4fe	f4ff	AND	A: 0	X: 0	Y: 0	SP: fd
f500	0	STA	A: 0	X: 0	Y: 0	SP: fd
f502	19	LDA	A: 0	X: 0	Y: 0	SP: fd
f504	f505	AND	A: 0	X: 0	Y: 0	SP: fd
f506	0	EOR	A: 0	X: 0	Y: 0	SP: fd
f508	0	CLC	A: 0	X: 0	Y: 0	SP: fd
f509	f50c	BEQ	A: 0	X: 0	Y: 0	SP: fd
f50c	18	ROR	A: 0	X: 0	Y: 0	SP: fd
f50e	19	ROR	A: 0	X: 0	Y: 0	SP: fd
f510	1a	ROR	A: 0	X: 0	Y: 0	SP: fd
f512	1b	ROR	A: 0	X: 0	Y: 0	SP: fd
f514	1c	ROR	A: 0	X: 0	Y: 0	SP: fd
f516	1d	ROR	A: 0	X: 0	Y: 0	SP: fd
f518	1e	ROR	A: 0	X: 0	Y: 0	SP: fd
f51a	1f	ROR	A: 0	X: 0	Y: 0	SP: fd
f51c	0	RTS	A: 0	X: 0	Y: 0	SP: fd
c7e4	c7e1	JMP	A: 0	X: 0	Y: 0	SP: ff
c7e1	f4fc	JSR	A: 0	X: 0	Y: 0	SP: ff
f4fc	18	LDA	A: 0	X: 0	Y: 0	SP: fd
f4fe	f4ff	AND	A: 0	X: 0	Y: 0	SP: fd
f500	0	STA	A: 0	X: 0	Y: 0	SP: fd
f502	19	LDA	A: 0	X: 0	Y: 0	SP: fd
f504	f505	AND	A: 0	X: 0	Y: 0	SP: fd
f506	0	EOR	A: 0	X: 0	Y: 0	SP: fd
f508	0	CLC	A: 0	X: 0	Y: 0	SP: fd
f509	f50c	BEQ	A: 0	X: 0	Y: 0	SP: fd
f50c	18	ROR	A: 0	X: 0	Y: 0	SP: fd
f50e	19	ROR	A: 0	X: 0	Y: 0	SP: fd
f510	1a	ROR	A: 0	X: 0	Y: 0	SP: fd
f512	1b	ROR	A: 0	X: 0	Y: 0	SP: fd
f514	1c	ROR	A: 0	X: 0	Y: 0	SP: fd
f516	1d	ROR	A: 0	X: 0	Y: 0	SP: fd
f518	1e	ROR	A: 0	X: 0	Y: 0	SP: fd
f51a	1f	ROR	A: 0	X: 0	Y: 0	SP: fd
f51c	0	RTS	A: 0	X: 0	Y: 0	SP: fd
c7e4	c7e1	JMP	A: 0	X: 0	Y: 0	SP: ff
c7e1	f4fc	JSR	A: 0	X: 0	Y: 0	SP: ff
f4fc	18	LDA	A: 0	X: 0	Y: 0	SP: fd
f4fe	f4ff	AND	A: 0	X: 0	Y: 0	SP: fd
f500	0	STA	A: 0	X: 0	Y: 0	SP: fd
f502	19	LDA	A: 0	X: 0	Y: 0	SP: fd
f504	f505	AND	A: 0	X: 0	Y: 0	SP: fd
f506	0	EOR	A: 0	X: 0	Y: 0	SP: fd
f508	0	CLC	A: 0	X: 0	Y: 0	SP: fd
f509	f50c	BEQ	A: 0	X: 0	Y: 0	SP: fd
f50c	18	ROR	A: 0	X: 0	Y: 0	SP: fd
f50e	19	ROR	A: 0	X: 0	Y: 0	SP: fd
f510	1a	ROR	A: 0	X: 0	Y: 0	SP: fd
f512	1b	ROR	A: 0	X: 0	Y: 0	SP: fd
f514	1c	ROR	A: 0	X: 0	Y: 0	SP: fd
f516	1d	ROR	A: 0	X: 0	Y: 0	SP: fd
f518	1e	ROR	A: 0	X: 0	Y: 0	SP: fd
f51a	1f	ROR	A: 0	X: 0	Y: 0	SP: fd
f51c	0	RTS	A: 0	X: 0	Y: 0	SP: fd
c7e4	c7e1	JMP	A: 0	X: 0	Y: 0	SP: ff
c7e1	f4fc	JSR	A: 0	X: 0	Y: 0	SP: ff
f4fc	18	LDA	A: 0	X: 0	Y: 0	SP: fd
f4fe	f4ff	AND	A: 0	X: 0	Y: 0	SP: fd
f500	0	STA	A: 0	X: 0	Y: 0	SP: fd
f502	19	LDA	A: 0	X: 0	Y: 0	SP: fd
f504	f505	AND	A: 0	X: 0	Y: 0	SP: fd
f506	0	EOR	A: 0	X: 0	Y: 0	SP: fd
f508	0	CLC	A: 0	X: 0	Y: 0	SP: fd
f509	f50c	BEQ	A: 0	X: 0	Y: 0	SP: fd
f50c	18	ROR	A: 0	X: 0	Y: 0	SP: fd
f50e	19	ROR	A: 0	X: 0	Y: 0	SP: fd
f510	1a	ROR	A: 0	X: 0	Y: 0	SP: fd
f512	1b	ROR	A: 0	X: 0	Y: 0	SP: fd
f514	1c	ROR	A: 0	X: 0	Y: 0	SP: fd
f516	1d	ROR	A: 0	X: 0	Y: 0	SP: fd
f518	1e	ROR	A: 0	X: 0	Y: 0	SP: fd
f51a	1f	ROR	A: 0	X: 0	Y: 0	SP: fd
f51c	0	RTS	A: 0	X: 0	Y: 0	SP: fd
c7e4	c7e1	JMP	A: 0	X: 0	Y: 0	SP: ff
c7e1	f4fc	JSR	A: 0	X: 0	Y: 0	SP: ff
f4fc	18	LDA	A: 0	X: 0	Y: 0	SP: fd
f4fe	f4ff	AND	A: 0	X: 0	Y: 0	SP: fd
f500	0	STA	A: 0	X: 0	Y: 0	SP: fd
f502	19	LDA	A: 0	X: 0	Y: 0	SP: fd
f504	f505	AND	A: 0	X: 0	Y: 0	SP: fd
f506	0	EOR	A: 0	X: 0	Y: 0	SP: fd
f508	0	CLC	A: 0	X: 0	Y: 0	SP: fd
f509	f50c	BEQ	A: 0	X: 0	Y: 0	SP: fd
f50c	18	ROR	A: 0	X: 0	Y: 0	SP: fd
f50e	19	ROR	A: 0	X: 0	Y: 0	SP: fd
f510	1a	ROR	A: 0	X: 0	Y: 0	SP: fd
f512	1b	ROR	A: 0	X: 0	Y: 0	SP: fd
f514	1c	ROR	A: 0	X: 0	Y: 0	SP: fd
f516	1d	ROR	A: 0	X: 0	Y: 0	SP: fd
f518	1e	ROR	A: 0	X: 0	Y: 0	SP: fd
f51a	1f	ROR	A: 0	X: 0	Y: 0	SP: fd
f51c	0	RTS	A: 0	X: 0	Y: 0	SP: fd
c7e4	c7e1	JMP	A: 0	X: 0	Y: 0	SP: ff
c7e1	f4fc	JSR	A: 0	X: 0	Y: 0	SP: ff
f4fc	18	LDA	A: 0	X: 0	Y: 0	SP: fd
f4fe	f4ff	AND	A: 0	X: 0	Y: 0	SP: fd
f500	0	STA	A: 0	X: 0	Y: 0	SP: fd
f502	19	LDA	A: 0	X: 0	Y: 0	SP: fd
f504	f505	AND	A: 0	X: 0	Y: 0	SP: fd
f506	0	EOR	A: 0	X: 0	Y: 0	SP: fd
f508	0	CLC	A: 0	X: 0	Y: 0	SP: fd
f509	f50c	BEQ	A: 0	X: 0	Y: 0	SP: fd
f50c	18	ROR	A: 0	X: 0	Y: 0	SP: fd
f50e	19	ROR	A: 0	X: 0	Y: 0	SP: fd
f510	1a	ROR	A: 0	X: 0	Y: 0	SP: fd
f512	1b	ROR	A: 0	X: 0	Y: 0	SP: fd
f514	1c	ROR	A: 0	X: 0	Y: 0	SP: fd
f516	1d	ROR	A: 0	X: 0	Y: 0	SP: fd
f518	1e	ROR	A: 0	X: 0	Y: 0	SP: fd
f51a	1f	ROR	A: 0	X: 0	Y: 0	SP: fd
f51c	0	RTS	A: 0	X: 0	Y: 0	SP: fd
c7e4	c7e1	JMP	A: 0	X: 0	Y: 0	SP: ff
c7e1	f4fc	JSR	A: 0	X: 0	Y: 0	SP: ff
f4fc	18	LDA	A: 0	X: 0	Y: 0	SP: fd
f4fe	f4ff	AND	A: 0	X: 0	Y: 0	SP: fd
f500	0	STA	A: 0	X: 0	Y: 0	SP: fd
f502	19	LDA	A: 0	X: 0	Y: 0	SP: fd
f504	f505	AND	A: 0	X: 0	Y: 0	SP: fd
f506	0	EOR	A: 0	X: 0	Y: 0	SP: fd
f508	0	CLC	A: 0	X: 0	Y: 0	SP: fd
f509	f50c	BEQ	A: 0	X: 0	Y: 0	SP: fd
f50c	18	ROR	A: 0	X: 0	Y: 0	SP: fd
f50e	19	ROR	A: 0	X: 0	Y: 0	SP: fd
f510	1a	ROR	A: 0	X: 0	Y: 0	SP: fd
f512	1b	ROR	A: 0	X: 0	Y: 0	SP: fd
f514	1c	ROR	A: 0	X: 0	Y: 0	SP: fd
f516	1d	ROR	A: 0	X: 0	Y: 0	SP: fd
f518	1e	ROR	A: 0	X: 0	Y: 0	SP: fd
f51a	1f	ROR	A: 0	X: 0	Y: 0	SP: fd
f51c	0	RTS	A: 0	X: 0	Y: 0	SP: fd
c7e4	c7e1	JMP	A: 0	X: 0	Y: 0	SP: ff
c7e1	f4fc	JSR	A: 0	X: 0	Y: 0	SP: ff
f4fc	18	LDA	A: 0	X: 0	Y: 0	SP: fd
f4fe	f4ff	AND	A: 0	X: 0	Y: 0	SP: fd
f500	0	STA	A: 0	X: 0	Y: 0	SP: fd
f502	19	LDA	A: 0	X: 0	Y: 0	SP: fd
f504	f505	AND	A: 0	X: 0	Y: 0	SP: fd
f506	0	EOR	A: 0	X: 0	Y: 0	SP: fd
f508	0	CLC	A: 0	X: 0	Y: 0	SP: fd
f509	f50c	BEQ	A: 0	X: 0	Y: 0	SP: fd
f50c	18	ROR	A: 0	X: 0	Y: 0	SP: fd
f50e	19	ROR	A: 0	X: 0	Y: 0	SP: fd
f510	1a	ROR	A: 0	X: 0	Y: 0	SP: fd
f512	1b	ROR	A: 0	X: 0	Y: 0	SP: fd
f514	1c	ROR	A: 0	X: 0	Y: 0	SP: fd
f516	1d	ROR	A: 0	X: 0	Y: 0	SP: fd
f518	1e	ROR	A: 0	X: 0	Y: 0	SP: fd
f51a	1f	ROR	A: 0	X: 0	Y: 0	SP: fd
f51c	0	RTS	A: 0	X: 0	Y: 0	SP: fd
c7e4	c7e1	JMP	A: 0	X: 0	Y: 0	SP: ff
c7e1	f4fc	JSR	A: 0	X: 0	Y: 0	SP: ff
f4fc	18	LDA	A: 0	X: 0	Y: 0	SP: fd
f4fe	f4ff	AND	A: 0	X: 0	Y: 0	SP: fd
f500	0	STA	A: 0	X: 0	Y: 0	SP: fd
f502	19	LDA	A: 0	X: 0	Y: 0	SP: fd
f504	f505	AND	A: 0	X: 0	Y: 0	SP: fd
f506	0	EOR	A: 0	X: 0	Y: 0	SP: fd
f508	0	CLC	A: 0	X: 0	Y: 0	SP: fd
f509	f50c	BEQ	A: 0	X: 0	Y: 0	SP: fd
f50c	18	ROR	A: 0	X: 0	Y: 0	SP: fd
f50e	19	ROR	A: 0	X: 0	Y: 0	SP: fd
f510	1a	ROR	A: 0	X: 0	Y: 0	SP: fd
f512	1b	ROR	A: 0	X: 0	Y: 0	SP: fd
f514	1c	ROR	A: 0	X: 0	Y: 0	SP: fd
f516	1d	ROR	A: 0	X: 0	Y: 0	SP: fd
f518	1e	ROR	A: 0	X: 0	Y: 0	SP: fd
f51a	1f	ROR	A: 0	X: 0	Y: 0	SP: fd
f51c	0	RTS	A: 0	X: 0	Y: 0	SP: fd
c7e4	c7e1	JMP	A: 0	X: 0	Y: 0	SP: ff
c7e1	f4fc	JSR	A: 0	X: 0	Y: 0	SP: ff
f4fc	18	LDA	A: 0	X: 0	Y: 0	SP: fd
f4fe	f4ff	AND	A: 0	X: 0	Y: 0	SP: fd
f500	0	STA	A: 0	X: 0	Y: 0	SP: fd
f502	19	LDA	A: 0	X: 0	Y: 0	SP: fd
f504	f505	AND	A: 0	X: 0	Y: 0	SP: fd
f506	0	EOR	A: 0	X: 0	Y: 0	SP: fd
f508	0	CLC	A: 0	X: 0	Y: 0	SP: fd
f509	f50c	BEQ	A: 0	X: 0	Y: 0	SP: fd
f50c	18	ROR	A: 0	X: 0	Y: 0	SP: fd
f50e	19	ROR	A: 0	X: 0	Y: 0	SP: fd
f510	1a	ROR	A: 0	X: 0	Y: 0	SP: fd
f512	1b	ROR	A: 0	X: 0	Y: 0	SP: fd
f514	1c	ROR	A: 0	X: 0	Y: 0	SP: fd
f516	1d	ROR	A: 0	X: 0	Y: 0	SP: fd
f518	1e	ROR	A: 0	X: 0	Y: 0	SP: fd
f51a	1f	ROR	A: 0	X: 0	Y: 0	SP: fd
f51c	0	RTS	A: 0	X: 0	Y: 0	SP: fd
c7e4	c7e1	JMP	A: 0	X: 0	Y: 0	SP: ff
c7e1	f4fc	JSR	A: 0	X: 0	Y: 0	SP: ff
f4fc	18	LDA	A: 0	X: 0	Y: 0	SP: fd
f4fe	f4ff	AND	A: 0	X: 0	Y: 0	SP: fd
f500	0	STA	A: 0	X: 0	Y: 0	SP: fd
f502	19	LDA	A: 0	X: 0	Y: 0	SP: fd
f504	f505	AND	A: 0	X: 0	Y: 0	SP: fd
f506	0	EOR	A: 0	X: 0	Y: 0	SP: fd
f508	0	CLC	A: 0	X: 0	Y: 0	SP: fd
f509	f50c	BEQ	A: 0	X: 0	Y: 0	SP: fd
f50c	18	ROR	A: 0	X: 0	Y: 0	SP: fd
f50e	19	ROR	A: 0	X: 0	Y: 0	SP: fd
f510	1a	ROR	A: 0	X: 0	Y: 0	SP: fd
f512	1b	ROR	A: 0	X: 0	Y: 0	SP: fd
f514	1c	ROR	A: 0	X: 0	Y: 0	SP: fd
f516	1d	ROR	A: 0	X: 0	Y: 0	SP: fd
f518	1e	ROR	A: 0	X: 0	Y: 0	SP: fd
f51a	1f	ROR	A: 0	X: 0	Y: 0	SP: fd
f51c	0	RTS	A: 0	X: 0	Y: 0	SP: fd
c7e4	c7e1	JMP	A: 0	X: 0	Y: 0	SP: ff
c7e1	f4fc	JSR	A: 0	X: 0	Y: 0	SP: ff
f4fc	18	LDA	A: 0	X: 0	Y: 0	SP: fd
f4fe	f4ff	AND	A: 0	X: 0	Y: 0	SP: fd
f500	0	STA	A: 0	X: 0	Y: 0	SP: fd
f502	19	LDA	A: 0	X: 0	Y: 0	SP: fd
f504	f505	AND	A: 0	X: 0	Y: 0	SP: fd
f506	0	EOR	A: 0	X: 0	Y: 0	SP: fd
f508	0	CLC	A: 0	X: 0	Y: 0	SP: fd
f509	f50c	BEQ	A: 0	X: 0	Y: 0	SP: fd
f50c	18	ROR	A: 0	X: 0	Y: 0	SP: fd
f50e	19	ROR	A: 0	X: 0	Y: 0	SP: fd
f510	1a	ROR	A: 0	X: 0	Y: 0	SP: fd
f512	1b	ROR	A: 0	X: 0	Y: 0	SP: fd
f514	1c	ROR	A: 0	X: 0	Y: 0	SP: fd
f516	1d	ROR	A: 0	X: 0	Y: 0	SP: fd
f518	1e	ROR	A: 0	X: 0	Y: 0	SP: fd
f51a	1f	ROR	A: 0	X: 0	Y: 0	SP: fd
f51c	0	RTS	A: 0	X: 0	Y: 0	SP: fd
c7e4	c7e1	JMP	A: 0	X: 0	Y: 0	SP: ff
c7e1	f4fc	JSR	A: 0	X: 0	Y: 0	SP: ff
f4fc	18	LDA	A: 0	X: 0	Y: 0	SP: fd
f4fe	f4ff	AND	A: 0	X: 0	Y: 0	SP: fd
f500	0	STA	A: 0	X: 0	Y: 0	SP: fd
f502	19	LDA	A: 0	X: 0	Y: 0	SP: fd
f504	f505	AND	A: 0	X: 0	Y: 0	SP: fd
f506	0	EOR	A: 0	X: 0	Y: 0	SP: fd
f508	0	CLC	A: 0	X: 0	Y: 0	SP: fd
f509	f50c	BEQ	A: 0	X: 0	Y: 0	SP: fd
f50c	18	ROR	A: 0	X: 0	Y: 0	SP: fd
f50e	19	ROR	A: 0	X: 0	Y: 0	SP: fd
f510	1a	ROR	A: 0	X: 0	Y: 0	SP: fd
f512	1b	ROR	A: 0	X: 0	Y: 0	SP: fd
f514	1c	ROR	A: 0	X: 0	Y: 0	SP: fd
f516	1d	ROR	A: 0	X: 0	Y: 0	SP: fd
f518	1e	ROR	A: 0	X: 0	Y: 0	SP: fd
f51a	1f	ROR	A: 0	X: 0	Y: 0	SP: fd
f51c	0	RTS	A: 0	X: 0	Y: 0	SP: fd
c7e4	c7e1	JMP	A: 0	X: 0	Y: 0	SP: ff
c7e1	f4fc	JSR	A: 0	X: 0	Y: 0	SP: ff
f4fc	18	LDA	A: 0	X: 0	Y: 0	SP: fd
f4fe	f4ff	AND	A: 0	X: 0	Y: 0	SP: fd
f500	0	STA	A: 0	X: 0	Y: 0	SP: fd
f502	19	LDA	A: 0	X: 0	Y: 0	SP: fd
f504	f505	AND	A: 0	X: 0	Y: 0	SP: fd
f506	0	EOR	A: 0	X: 0	Y: 0	SP: fd
f508	0	CLC	A: 0	X: 0	Y: 0	SP: fd
f509	f50c	BEQ	A: 0	X: 0	Y: 0	SP: fd
f50c	18	ROR	A: 0	X: 0	Y: 0	SP: fd
f50e	19	ROR	A: 0	X: 0	Y: 0	SP: fd
f510	1a	ROR	A: 0	X: 0	Y: 0	SP: fd
f512	1b	ROR	A: 0	X: 0	Y: 0	SP: fd
f514	1c	ROR	A: 0	X: 0	Y: 0	SP: fd
f516	1d	ROR	A: 0	X: 0	Y: 0	SP: fd
f518	1e	ROR	A: 0	X: 0	Y: 0	SP: fd
f51a	1f	ROR	A: 0	X: 0	Y: 0	SP: fd
f51c	0	RTS	A: 0	X: 0	Y: 0	SP: fd
c7e4	c7e1	JMP	A: 0	X: 0	Y: 0	SP: ff
c7e1	f4fc	JSR	A: 0	X: 0	Y: 0	SP: ff
f4fc	18	LDA	A: 0	X: 0	Y: 0	SP: fd
f4fe	f4ff	AND	A: 0	X: 0	Y: 0	SP: fd
f500	0	STA	A: 0	X: 0	Y: 0	SP: fd
f502	19	LDA	A: 0	X: 0	Y: 0	SP: fd
f504	f505	AND	A: 0	X: 0	Y: 0	SP: fd
f506	0	EOR	A: 0	X: 0	Y: 0	SP: fd
f508	0	CLC	A: 0	X: 0	Y: 0	SP: fd
f509	f50c	BEQ	A: 0	X: 0	Y: 0	SP: fd
f50c	18	ROR	A: 0	X: 0	Y: 0	SP: fd
f50e	19	ROR	A: 0	X: 0	Y: 0	SP: fd
f510	1a	ROR	A: 0	X: 0	Y: 0	SP: fd
f512	1b	ROR	A: 0	X: 0	Y: 0	SP: fd
f514	1c	ROR	A: 0	X: 0	Y: 0	SP: fd
f516	1d	ROR	A: 0	X: 0	Y: 0	SP: fd
f518	1e	ROR	A: 0	X: 0	Y: 0	SP: fd
f51a	1f	ROR	A: 0	X: 0	Y: 0	SP: fd
f51c	0	RTS	A: 0	X: 0	Y: 0	SP: fd
c7e4	c7e1	JMP	A: 0	X: 0	Y: 0	SP: ff
c7e1	f4fc	JSR	A: 0	X: 0	Y: 0	SP: ff
f4fc	18	LDA	A: 0	X: 0	Y: 0	SP: fd
f4fe	f4ff	AND	A: 0	X: 0	Y: 0	SP: fd
f500	0	STA	A: 0	X: 0	Y: 0	SP: fd
f502	19	LDA	A: 0	X: 0	Y: 0	SP: fd
f504	f505	AND	A: 0	X: 0	Y: 0	SP: fd
f506	0	EOR	A: 0	X: 0	Y: 0	SP: fd
f508	0	CLC	A: 0	X: 0	Y: 0	SP: fd
f509	f50c	BEQ	A: 0	X: 0	Y: 0	SP: fd
f50c	18	ROR	A: 0	X: 0	Y: 0	SP: fd
f50e	19	ROR	A: 0	X: 0	Y: 0	SP: fd
f510	1a	ROR	A: 0	X: 0	Y: 0	SP: fd
f512	1b	ROR	A: 0	X: 0	Y: 0	SP: fd
f514	1c	ROR	A: 0	X: 0	Y: 0	SP: fd
f516	1d	ROR	A: 0	X: 0	Y: 0	SP: fd
f518	1e	ROR	A: 0	X: 0	Y: 0	SP: fd
f51a	1f	ROR	A: 0	X: 0	Y: 0	SP: fd
f51c	0	RTS	A: 0	X: 0	Y: 0	SP: fd
c7e4	c7e1	JMP	A: 0	X: 0	Y: 0	SP: ff
c7e1	f4fc	JSR	A: 0	X: 0	Y: 0	SP: ff
f4fc	18	LDA	A: 0	X: 0	Y: 0	SP: fd
f4fe	f4ff	AND	A: 0	X: 0	Y: 0	SP: fd
f500	0	STA	A: 0	X: 0	Y: 0	SP: fd
f502	19	LDA	A: 0	X: 0	Y: 0	SP: fd
f504	f505	AND	A: 0	X: 0	Y: 0	SP: fd
f506	0	EOR	A: 0	X: 0	Y: 0	SP: fd
f508	0	CLC	A: 0	X: 0	Y: 0	SP: fd
f509	f50c	BEQ	A: 0	X: 0	Y: 0	SP: fd
f50c	18	ROR	A: 0	X: 0	Y: 0	SP: fd
f50e	19	ROR	A: 0	X: 0	Y: 0	SP: fd
f510	1a	ROR	A: 0	X: 0	Y: 0	SP: fd
f512	1b	ROR	A: 0	X: 0	Y: 0	SP: fd
f514	1c	ROR	A: 0	X: 0	Y: 0	SP: fd
f516	1d	ROR	A: 0	X: 0	Y: 0	SP: fd
f518	1e	ROR	A: 0	X: 0	Y: 0	SP: fd
f51a	1f	ROR	A: 0	X: 0	Y: 0	SP: fd
f51c	0	RTS	A: 0	X: 0	Y: 0	SP: fd
c7e4	c7e1	JMP	A: 0	X: 0	Y: 0	SP: ff
c7e1	f4fc	JSR	A: 0	X: 0	Y: 0	SP: ff
f4fc	18	LDA	A: 0	X: 0	Y: 0	SP: fd
f4fe	f4ff	AND	A: 0	X: 0	Y: 0	SP: fd
f500	0	STA	A: 0	X: 0	Y: 0	SP: fd
f502	19	LDA	A: 0	X: 0	Y: 0	SP: fd
f504	f505	AND	A: 0	X: 0	Y: 0	SP: fd
f506	0	EOR	A: 0	X: 0	Y: 0	SP: fd
f508	0	CLC	A: 0	X: 0	Y: 0	SP: fd
f509	f50c	BEQ	A: 0	X: 0	Y: 0	SP: fd
f50c	18	ROR	A: 0	X: 0	Y: 0	SP: fd
f50e	19	ROR	A: 0	X: 0	Y: 0	SP: fd
f510	1a	ROR	A: 0	X: 0	Y: 0	SP: fd
f512	1b	ROR	A: 0	X: 0	Y: 0	SP: fd
f514	1c	ROR	A: 0	X: 0	Y: 0	SP: fd
f516	1d	ROR	A: 0	X: 0	Y: 0	SP: fd
f518	1e	ROR	A: 0	X: 0	Y: 0	SP: fd
f51a	1f	ROR	A: 0	X: 0	Y: 0	SP: fd
f51c	0	RTS	A: 0	X: 0	Y: 0	SP: fd
c7e4	c7e1	JMP	A: 0	X: 0	Y: 0	SP: ff
c7e1	f4fc	JSR	A: 0	X: 0	Y: 0	SP: ff
f4fc	18	LDA	A: 0	X: 0	Y: 0	SP: fd
f4fe	f4ff	AND	A: 0	X: 0	Y: 0	SP: fd
f500	0	STA	A: 0	X: 0	Y: 0	SP: fd
f502	19	LDA	A: 0	X: 0	Y: 0	SP: fd
f504	f505	AND	A: 0	X: 0	Y: 0	SP: fd
f506	0	EOR	A: 0	X: 0	Y: 0	SP: fd
f508	0	CLC	A: 0	X: 0	Y: 0	SP: fd
f509	f50c	BEQ	A: 0	X: 0	Y: 0	SP: fd
f50c	18	ROR	A: 0	X: 0	Y: 0	SP: fd
f50e	19	ROR	A: 0	X: 0	Y: 0	SP: fd
f510	1a	ROR	A: 0	X: 0	Y: 0	SP: fd
f512	1b	ROR	A: 0	X: 0	Y: 0	SP: fd
f514	1c	ROR	A: 0	X: 0	Y: 0	SP: fd
f516	1d	ROR	A: 0	X: 0	Y: 0	SP: fd
f518	1e	ROR	A: 0	X: 0	Y: 0	SP: fd
f51a	1f	ROR	A: 0	X: 0	Y: 0	SP: fd
f51c	0	RTS	A: 0	X: 0	Y: 0	SP: fd
c7e4	c7e1	JMP	A: 0	X: 0	Y: 0	SP: ff
c7e1	f4fc	JSR	A: 0	X: 0	Y: 0	SP: ff
f4fc	18	LDA	A: 0	X: 0	Y: 0	SP: fd
f4fe	f4ff	AND	A: 0	X: 0	Y: 0	SP: fd
f500	0	STA	A: 0	X: 0	Y: 0	SP: fd
f502	19	LDA	A: 0	X: 0	Y: 0	SP: fd
f504	f505	AND	A: 0	X: 0	Y: 0	SP: fd
f506	0	EOR	A: 0	X: 0	Y: 0	SP: fd
f508	0	CLC	A: 0	X: 0	Y: 0	SP: fd
f509	f50c	BEQ	A: 0	X: 0	Y: 0	SP: fd
f50c	18	ROR	A: 0	X: 0	Y: 0	SP: fd
f50e	19	ROR	A: 0	X: 0	Y: 0	SP: fd
f510	1a	ROR	A: 0	X: 0	Y: 0	SP: fd
f512	1b	ROR	A: 0	X: 0	Y: 0	SP: fd
f514	1c	ROR	A: 0	X: 0	Y: 0	SP: fd
f516	1d	ROR	A: 0	X: 0	Y: 0	SP: fd
f518	1e	ROR	A: 0	X: 0	Y: 0	SP: fd
f51a	1f	ROR	A: 0	X: 0	Y: 0	SP: fd
f51c	0	RTS	A: 0	X: 0	Y: 0	SP: fd
c7e4	c7e1	JMP	A: 0	X: 0	Y: 0	SP: ff
c7e1	f4fc	JSR	A: 0	X: 0	Y: 0	SP: ff
f4fc	18	LDA	A: 0	X: 0	Y: 0	SP: fd
f4fe	f4ff	AND	A: 0	X: 0	Y: 0	SP: fd
f500	0	STA	A: 0	X: 0	Y: 0	SP: fd
f502	19	LDA	A: 0	X: 0	Y: 0	SP: fd
f504	f505	AND	A: 0	X: 0	Y: 0	SP: fd
f506	0	EOR	A: 0	X: 0	Y: 0	SP: fd
f508	0	CLC	A: 0	X: 0	Y: 0	SP: fd
f509	f50c	BEQ	A: 0	X: 0	Y: 0	SP: fd
f50c	18	ROR	A: 0	X: 0	Y: 0	SP: fd
f50e	19	ROR	A: 0	X: 0	Y: 0	SP: fd
f510	1a	ROR	A: 0	X: 0	Y: 0	SP: fd
f512	1b	ROR	A: 0	X: 0	Y: 0	SP: fd
f514	1c	ROR	A: 0	X: 0	Y: 0	SP: fd
f516	1d	ROR	A: 0	X: 0	Y: 0	SP: fd
f518	1e	ROR	A: 0	X: 0	Y: 0	SP: fd
f51a	1f	ROR	A: 0	X: 0	Y: 0	SP: fd
f51c	0	RTS	A: 0	X: 0	Y: 0	SP: fd
c7e4	c7e1	JMP	A: 0	X: 0	Y: 0	SP: ff
c7e1	f4fc	JSR	A: 0	X: 0	Y: 0	SP: ff
f4fc	18	LDA	A: 0	X: 0	Y: 0	SP: fd
f4fe	f4ff	AND	A: 0	X: 0	Y: 0	SP: fd
f500	0	STA	A: 0	X: 0	Y: 0	SP: fd
f502	19	LDA	A: 0	X: 0	Y: 0	SP: fd
f504	f505	AND	A: 0	X: 0	Y: 0	SP: fd
f506	0	EOR	A: 0	X: 0	Y: 0	SP: fd
f508	0	CLC	A: 0	X: 0	Y: 0	SP: fd
f509	f50c	BEQ	A: 0	X: 0	Y: 0	SP: fd
f50c	18	ROR	A: 0	X: 0	Y: 0	SP: fd
f50e	19	ROR	A: 0	X: 0	Y: 0	SP: fd
f510	1a	ROR	A: 0	X: 0	Y: 0	SP: fd
f512	1b	ROR	A: 0	X: 0	Y: 0	SP: fd
f514	1c	ROR	A: 0	X: 0	Y: 0	SP: fd
f516	1d	ROR	A: 0	X: 0	Y: 0	SP: fd
f518	1e	ROR	A: 0	X: 0	Y: 0	SP: fd
f51a	1f	ROR	A: 0	X: 0	Y: 0	SP: fd
f51c	0	RTS	A: 0	X: 0	Y: 0	SP: fd
c7e4	c7e1	JMP	A: 0	X: 0	Y: 0	SP: ff
c7e1	f4fc	JSR	A: 0	X: 0	Y: 0	SP: ff
f4fc	18	LDA	A: 0	X: 0	Y: 0	SP: fd
f4fe	f4ff	AND	A: 0	X: 0	Y: 0	SP: fd
f500	0	STA	A: 0	X: 0	Y: 0	SP: fd
f502	19	LDA	A: 0	X: 0	Y: 0	SP: fd
f504	f505	AND	A: 0	X: 0	Y: 0	SP: fd
f506	0	EOR	A: 0	X: 0	Y: 0	SP: fd
f508	0	CLC	A: 0	X: 0	Y: 0	SP: fd
f509	f50c	BEQ	A: 0	X: 0	Y: 0	SP: fd
f50c	18	ROR	A: 0	X: 0	Y: 0	SP: fd
f50e	19	ROR	A: 0	X: 0	Y: 0	SP: fd
f510	1a	ROR	A: 0	X: 0	Y: 0	SP: fd
f512	1b	ROR	A: 0	X: 0	Y: 0	SP: fd
f514	1c	ROR	A: 0	X: 0	Y: 0	SP: fd
f516	1d	ROR	A: 0	X: 0	Y: 0	SP: fd
f518	1e	ROR	A: 0	X: 0	Y: 0	SP: fd
f51a	1f	ROR	A: 0	X: 0	Y: 0	SP: fd
f51c	0	RTS	A: 0	X: 0	Y: 0	SP: fd
c7e4	c7e1	JMP	A: 0	X: 0	Y: 0	SP: ff
c7e1	f4fc	JSR	A: 0	X: 0	Y: 0	SP: ff
f4fc	18	LDA	A: 0	X: 0	Y: 0	SP: fd
f4fe	f4ff	AND	A: 0	X: 0	Y: 0	SP: fd
f500	0	STA	A: 0	X: 0	Y: 0	SP: fd
f502	19	LDA	A: 0	X: 0	Y: 0	SP: fd
f504	f505	AND	A: 0	X: 0	Y: 0	SP: fd
f506	0	EOR	A: 0	X: 0	Y: 0	SP: fd
f508	0	CLC	A: 0	X: 0	Y: 0	SP: fd
f509	f50c	BEQ	A: 0	X: 0	Y: 0	SP: fd
f50c	18	ROR	A: 0	X: 0	Y: 0	SP: fd
f50e	19	ROR	A: 0	X: 0	Y: 0	SP: fd
f510	1a	ROR	A: 0	X: 0	Y: 0	SP: fd
f512	1b	ROR	A: 0	X: 0	Y: 0	SP: fd
f514	1c	ROR	A: 0	X: 0	Y: 0	SP: fd
f516	1d	ROR	A: 0	X: 0	Y: 0	SP: fd
f518	1e	ROR	A: 0	X: 0	Y: 0	SP: fd
f51a	1f	ROR	A: 0	X: 0	Y: 0	SP: fd
f51c	0	RTS	A: 0	X: 0	Y: 0	SP: fd
c7e4	c7e1	JMP	A: 0	X: 0	Y: 0	SP: ff
c7e1	f4fc	JSR	A: 0	X: 0	Y: 0	SP: ff
f4fc	18	LDA	A: 0	X: 0	Y: 0	SP: fd
f4fe	f4ff	AND	A: 0	X: 0	Y: 0	SP: fd
f500	0	STA	A: 0	X: 0	Y: 0	SP: fd
f502	19	LDA	A: 0	X: 0	Y: 0	SP: fd
f504	f505	AND	A: 0	X: 0	Y: 0	SP: fd
f506	0	EOR	A: 0	X: 0	Y: 0	SP: fd
f508	0	CLC	A: 0	X: 0	Y: 0	SP: fd
f509	f50c	BEQ	A: 0	X: 0	Y: 0	SP: fd
f50c	18	ROR	A: 0	X: 0	Y: 0	SP: fd
f50e	19	ROR	A: 0	X: 0	Y: 0	SP: fd
f510	1a	ROR	A: 0	X: 0	Y: 0	SP: fd
f512	1b	ROR	A: 0	X: 0	Y: 0	SP: fd
f514	1c	ROR	A: 0	X: 0	Y: 0	SP: fd
f516	1d	ROR	A: 0	X: 0	Y: 0	SP: fd
f518	1e	ROR	A: 0	X: 0	Y: 0	SP: fd
f51a	1f	ROR	A: 0	X: 0	Y: 0	SP: fd
f51c	0	RTS	A: 0	X: 0	Y: 0	SP: fd
c7e4	c7e1	JMP	A: 0	X: 0	Y: 0	SP: ff
c7e1	f4fc	JSR	A: 0	X: 0	Y: 0	SP: ff
f4fc	18	LDA	A: 0	X: 0	Y: 0	SP: fd
f4fe	f4ff	AND	A: 0	X: 0	Y: 0	SP: fd
f500	0	STA	A: 0	X: 0	Y: 0	SP: fd
f502	19	LDA	A: 0	X: 0	Y: 0	SP: fd
f504	f505	AND	A: 0	X: 0	Y: 0	SP: fd
f506	0	EOR	A: 0	X: 0	Y: 0	SP: fd
f508	0	CLC	A: 0	X: 0	Y: 0	SP: fd
f509	f50c	BEQ	A: 0	X: 0	Y: 0	SP: fd
f50c	18	ROR	A: 0	X: 0	Y: 0	SP: fd
f50e	19	ROR	A: 0	X: 0	Y: 0	SP: fd
f510	1a	ROR	A: 0	X: 0	Y: 0	SP: fd
f512	1b	ROR	A: 0	X: 0	Y: 0	SP: fd
f514	1c	ROR	A: 0	X: 0	Y: 0	SP: fd
f516	1d	ROR	A: 0	X: 0	Y: 0	SP: fd
f518	1e	ROR	A: 0	X: 0	Y: 0	SP: fd
f51a	1f	ROR	A: 0	X: 0	Y: 0	SP: fd
f51c	0	RTS	A: 0	X: 0	Y: 0	SP: fd
c7e4	c7e1	JMP	A: 0	X: 0	Y: 0	SP: ff
c7e1	f4fc	JSR	A: 0	X: 0	Y: 0	SP: ff
f4fc	18	LDA	A: 0	X: 0	Y: 0	SP: fd
f4fe	f4ff	AND	A: 0	X: 0	Y: 0	SP: fd
f500	0	STA	A: 0	X: 0	Y: 0	SP: fd
f502	19	LDA	A: 0	X: 0	Y: 0	SP: fd
f504	f505	AND	A: 0	X: 0	Y: 0	SP: fd
f506	0	EOR	A: 0	X: 0	Y: 0	SP: fd
f508	0	CLC	A: 0	X: 0	Y: 0	SP: fd
f509	f50c	BEQ	A: 0	X: 0	Y: 0	SP: fd
f50c	18	ROR	A: 0	X: 0	Y: 0	SP: fd
f50e	19	ROR	A: 0	X: 0	Y: 0	SP: fd
f510	1a	ROR	A: 0	X: 0	Y: 0	SP: fd
f512	1b	ROR	A: 0	X: 0	Y: 0	SP: fd
f514	1c	ROR	A: 0	X: 0	Y: 0	SP: fd
f516	1d	ROR	A: 0	X: 0	Y: 0	SP: fd
f518	1e	ROR	A: 0	X: 0	Y: 0	SP: fd
f51a	1f	ROR	A: 0	X: 0	Y: 0	SP: fd
f51c	0	RTS	A: 0	X: 0	Y: 0	SP: fd
c7e4	c7e1	JMP	A: 0	X: 0	Y: 0	SP: ff
c7e1	f4fc	JSR	A: 0	X: 0	Y: 0	SP: ff
f4fc	18	LDA	A: 0	X: 0	Y: 0	SP: fd
f4fe	f4ff	AND	A: 0	X: 0	Y: 0	SP: fd
f500	0	STA	A: 0	X: 0	Y: 0	SP: fd
f502	19	LDA	A: 0	X: 0	Y: 0	SP: fd
f504	f505	AND	A: 0	X: 0	Y: 0	SP: fd
f506	0	EOR	A: 0	X: 0	Y: 0	SP: fd
f508	0	CLC	A: 0	X: 0	Y: 0	SP: fd
f509	f50c	BEQ	A: 0	X: 0	Y: 0	SP: fd
f50c	18	ROR	A: 0	X: 0	Y: 0	SP: fd
f50e	19	ROR	A: 0	X: 0	Y: 0	SP: fd
f510	1a	ROR	A: 0	X: 0	Y: 0	SP: fd
f512	1b	ROR	A: 0	X: 0	Y: 0	SP: fd
f514	1c	ROR	A: 0	X: 0	Y: 0	SP: fd
f516	1d	ROR	A: 0	X: 0	Y: 0	SP: fd
f518	1e	ROR	A: 0	X: 0	Y: 0	SP: fd
f51a	1f	ROR	A: 0	X: 0	Y: 0	SP: fd
f51c	0	RTS	A: 0	X: 0	Y: 0	SP: fd
c7e4	c7e1	JMP	A: 0	X: 0	Y: 0	SP: ff
c7e1	f4fc	JSR	A: 0	X: 0	Y: 0	SP: ff
f4fc	18	LDA	A: 0	X: 0	Y: 0	SP: fd
f4fe	f4ff	AND	A: 0	X: 0	Y: 0	SP: fd
f500	0	STA	A: 0	X: 0	Y: 0	SP: fd
f502	19	LDA	A: 0	X: 0	Y: 0	SP: fd
f504	f505	AND	A: 0	X: 0	Y: 0	SP: fd
f506	0	EOR	A: 0	X: 0	Y: 0	SP: fd
f508	0	CLC	A: 0	X: 0	Y: 0	SP: fd
f509	f50c	BEQ	A: 0	X: 0	Y: 0	SP: fd
f50c	18	ROR	A: 0	X: 0	Y: 0	SP: fd
f50e	19	ROR	A: 0	X: 0	Y: 0	SP: fd
f510	1a	ROR	A: 0	X: 0	Y: 0	SP: fd
f512	1b	ROR	A: 0	X: 0	Y: 0	SP: fd
f514	1c	ROR	A: 0	X: 0	Y: 0	SP: fd
f516	1d	ROR	A: 0	X: 0	Y: 0	SP: fd
f518	1e	ROR	A: 0	X: 0	Y: 0	SP: fd
f51a	1f	ROR	A: 0	X: 0	Y: 0	SP: fd
f51c	0	RTS	A: 0	X: 0	Y: 0	SP: fd
c7e4	c7e1	JMP	A: 0	X: 0	Y: 0	SP: ff
c7e1	f4fc	JSR	A: 0	X: 0	Y: 0	SP: ff
f4fc	18	LDA	A: 0	X: 0	Y: 0	SP: fd
f4fe	f4ff	AND	A: 0	X: 0	Y: 0	SP: fd
f500	0	STA	A: 0	X: 0	Y: 0	SP: fd
f502	19	LDA	A: 0	X: 0	Y: 0	SP: fd
f504	f505	AND	A: 0	X: 0	Y: 0	SP: fd
f506	0	EOR	A: 0	X: 0	Y: 0	SP: fd
f508	0	CLC	A: 0	X: 0	Y: 0	SP: fd
f509	f50c	BEQ	A: 0	X: 0	Y: 0	SP: fd
f50c	18	ROR	A: 0	X: 0	Y: 0	SP: fd
f50e	19	ROR	A: 0	X: 0	Y: 0	SP: fd
f510	1a	ROR	A: 0	X: 0	Y: 0	SP: fd
f512	1b	ROR	A: 0	X: 0	Y: 0	SP: fd
f514	1c	ROR	A: 0	X: 0	Y: 0	SP: fd
f516	1d	ROR	A: 0	X: 0	Y: 0	SP: fd
f518	1e	ROR	A: 0	X: 0	Y: 0	SP: fd
f51a	1f	ROR	A: 0	X: 0	Y: 0	SP: fd
f51c	0	RTS	A: 0	X: 0	Y: 0	SP: fd
c7e4	c7e1	JMP	A: 0	X: 0	Y: 0	SP: ff
c7e1	f4fc	JSR	A: 0	X: 0	Y: 0	SP: ff
f4fc	18	LDA	A: 0	X: 0	Y: 0	SP: fd
f4fe	f4ff	AND	A: 0	X: 0	Y: 0	SP: fd
f500	0	STA	A: 0	X: 0	Y: 0	SP: fd
f502	19	LDA	A: 0	X: 0	Y: 0	SP: fd
f504	f505	AND	A: 0	X: 0	Y: 0	SP: fd
f506	0	EOR	A: 0	X: 0	Y: 0	SP: fd
f508	0	CLC	A: 0	X: 0	Y: 0	SP: fd
f509	f50c	BEQ	A: 0	X: 0	Y: 0	SP: fd
f50c	18	ROR	A: 0	X: 0	Y: 0	SP: fd
f50e	19	ROR	A: 0	X: 0	Y: 0	SP: fd
f510	1a	ROR	A: 0	X: 0	Y: 0	SP: fd
f512	1b	ROR	A: 0	X: 0	Y: 0	SP: fd
f514	1c	ROR	A: 0	X: 0	Y: 0	SP: fd
f516	1d	ROR	A: 0	X: 0	Y: 0	SP: fd
f518	1e	ROR	A: 0	X: 0	Y: 0	SP: fd
f51a	1f	ROR	A: 0	X: 0	Y: 0	SP: fd
f51c	0	RTS	A: 0	X: 0	Y: 0	SP: fd
c7e4	c7e1	JMP	A: 0	X: 0	Y: 0	SP: ff
c7e1	f4fc	JSR	A: 0	X: 0	Y: 0	SP: ff
f4fc	18	LDA	A: 0	X: 0	Y: 0	SP: fd
f4fe	f4ff	AND	A: 0	X: 0	Y: 0	SP: fd
f500	0	STA	A: 0	X: 0	Y: 0	SP: fd
f502	19	LDA	A: 0	X: 0	Y: 0	SP: fd
f504	f505	AND	A: 0	X: 0	Y: 0	SP: fd
f506	0	EOR	A: 0	X: 0	Y: 0	SP: fd
f508	0	CLC	A: 0	X: 0	Y: 0	SP: fd
f509	f50c	BEQ	A: 0	X: 0	Y: 0	SP: fd
f50c	18	ROR	A: 0	X: 0	Y: 0	SP: fd
f50e	19	ROR	A: 0	X: 0	Y: 0	SP: fd
f510	1a	ROR	A: 0	X: 0	Y: 0	SP: fd
f512	1b	ROR	A: 0	X: 0	Y: 0	SP: fd
f514	1c	ROR	A: 0	X: 0	Y: 0	SP: fd
f516	1d	ROR	A: 0	X: 0	Y: 0	SP: fd
f518	1e	ROR	A: 0	X: 0	Y: 0	SP: fd
f51a	1f	ROR	A: 0	X: 0	Y: 0	SP: fd
f51c	0	RTS	A: 0	X: 0	Y: 0	SP: fd
c7e4	c7e1	JMP	A: 0	X: 0	Y: 0	SP: ff
c7e1	f4fc	JSR	A: 0	X: 0	Y: 0	SP: ff
f4fc	18	LDA	A: 0	X: 0	Y: 0	SP: fd
f4fe	f4ff	AND	A: 0	X: 0	Y: 0	SP: fd
f500	0	STA	A: 0	X: 0	Y: 0	SP: fd
f502	19	LDA	A: 0	X: 0	Y: 0	SP: fd
f504	f505	AND	A: 0	X: 0	Y: 0	SP: fd
f506	0	EOR	A: 0	X: 0	Y: 0	SP: fd
f508	0	CLC	A: 0	X: 0	Y: 0	SP: fd
f509	f50c	BEQ	A: 0	X: 0	Y: 0	SP: fd
f50c	18	ROR	A: 0	X: 0	Y: 0	SP: fd
f50e	19	ROR	A: 0	X: 0	Y: 0	SP: fd
f510	1a	ROR	A: 0	X: 0	Y: 0	SP: fd
f512	1b	ROR	A: 0	X: 0	Y: 0	SP: fd
f514	1c	ROR	A: 0	X: 0	Y: 0	SP: fd
f516	1d	ROR	A: 0	X: 0	Y: 0	SP: fd
f518	1e	ROR	A: 0	X: 0	Y: 0	SP: fd
f51a	1f	ROR	A: 0	X: 0	Y: 0	SP: fd
f51c	0	RTS	A: 0	X: 0	Y: 0	SP: fd
c7e4	c7e1	JMP	A: 0	X: 0	Y: 0	SP: ff
c7e1	f4fc	JSR	A: 0	X: 0	Y: 0	SP: ff
f4fc	18	LDA	A: 0	X: 0	Y: 0	SP: fd
f4fe	f4ff	AND	A: 0	X: 0	Y: 0	SP: fd
f500	0	STA	A: 0	X: 0	Y: 0	SP: fd
f502	19	LDA	A: 0	X: 0	Y: 0	SP: fd
f504	f505	AND	A: 0	X: 0	Y: 0	SP: fd
f506	0	EOR	A: 0	X: 0	Y: 0	SP: fd
f508	0	CLC	A: 0	X: 0	Y: 0	SP: fd
f509	f50c	BEQ	A: 0	X: 0	Y: 0	SP: fd
f50c	18	ROR	A: 0	X: 0	Y: 0	SP: fd
f50e	19	ROR	A: 0	X: 0	Y: 0	SP: fd
f510	1a	ROR	A: 0	X: 0	Y: 0	SP: fd
f512	1b	ROR	A: 0	X: 0	Y: 0	SP: fd
f514	1c	ROR	A: 0	X: 0	Y: 0	SP: fd
f516	1d	ROR	A: 0	X: 0	Y: 0	SP: fd
f518	1e	ROR	A: 0	X: 0	Y: 0	SP: fd
f51a	1f	ROR	A: 0	X: 0	Y: 0	SP: fd
f51c	0	RTS	A: 0	X: 0	Y: 0	SP: fd
c7e4	c7e1	JMP	A: 0	X: 0	Y: 0	SP: ff
c7e1	f4fc	JSR	A: 0	X: 0	Y: 0	SP: ff
f4fc	18	LDA	A: 0	X: 0	Y: 0	SP: fd
f4fe	f4ff	AND	A: 0	X: 0	Y: 0	SP: fd
f500	0	STA	A: 0	X: 0	Y: 0	SP: fd
f502	19	LDA	A: 0	X: 0	Y: 0	SP: fd
f504	f505	AND	A: 0	X: 0	Y: 0	SP: fd
f506	0	EOR	A: 0	X: 0	Y: 0	SP: fd
f508	0	CLC	A: 0	X: 0	Y: 0	SP: fd
f509	f50c	BEQ	A: 0	X: 0	Y: 0	SP: fd
f50c	18	ROR	A: 0	X: 0	Y: 0	SP: fd
f50e	19	ROR	A: 0	X: 0	Y: 0	SP: fd
f510	1a	ROR	A: 0	X: 0	Y: 0	SP: fd
f512	1b	ROR	A: 0	X: 0	Y: 0	SP: fd
f514	1c	ROR	A: 0	X: 0	Y: 0	SP: fd
f516	1d	ROR	A: 0	X: 0	Y: 0	SP: fd
f518	1e	ROR	A: 0	X: 0	Y: 0	SP: fd
f51a	1f	ROR	A: 0	X: 0	Y: 0	SP: fd
f51c	0	RTS	A: 0	X: 0	Y: 0	SP: fd
c7e4	c7e1	JMP	A: 0	X: 0	Y: 0	SP: ff
c7e1	f4fc	JSR	A: 0	X: 0	Y: 0	SP: ff
f4fc	18	LDA	A: 0	X: 0	Y: 0	SP: fd
f4fe	f4ff	AND	A: 0	X: 0	Y: 0	SP: fd
f500	0	STA	A: 0	X: 0	Y: 0	SP: fd
f502	19	LDA	A: 0	X: 0	Y: 0	SP: fd
f504	f505	AND	A: 0	X: 0	Y: 0	SP: fd
f506	0	EOR	A: 0	X: 0	Y: 0	SP: fd
f508	0	CLC	A: 0	X: 0	Y: 0	SP: fd
f509	f50c	BEQ	A: 0	X: 0	Y: 0	SP: fd
f50c	18	ROR	A: 0	X: 0	Y: 0	SP: fd
f50e	19	ROR	A: 0	X: 0	Y: 0	SP: fd
f510	1a	ROR	A: 0	X: 0	Y: 0	SP: fd
f512	1b	ROR	A: 0	X: 0	Y: 0	SP: fd
f514	1c	ROR	A: 0	X: 0	Y: 0	SP: fd
f516	1d	ROR	A: 0	X: 0	Y: 0	SP: fd
f518	1e	ROR	A: 0	X: 0	Y: 0	SP: fd
f51a	1f	ROR	A: 0	X: 0	Y: 0	SP: fd
f51c	0	RTS	A: 0	X: 0	Y: 0	SP: fd
c7e4	c7e1	JMP	A: 0	X: 0	Y: 0	SP: ff
c7e1	f4fc	JSR	A: 0	X: 0	Y: 0	SP: ff
f4fc	18	LDA	A: 0	X: 0	Y: 0	SP: fd
f4fe	f4ff	AND	A: 0	X: 0	Y: 0	SP: fd
f500	0	STA	A: 0	X: 0	Y: 0	SP: fd
f502	19	LDA	A: 0	X: 0	Y: 0	SP: fd
f504	f505	AND	A: 0	X: 0	Y: 0	SP: fd
f506	0	EOR	A: 0	X: 0	Y: 0	SP: fd
f508	0	CLC	A: 0	X: 0	Y: 0	SP: fd
f509	f50c	BEQ	A: 0	X: 0	Y: 0	SP: fd
f50c	18	ROR	A: 0	X: 0	Y: 0	SP: fd
f50e	19	ROR	A: 0	X: 0	Y: 0	SP: fd
f510	1a	ROR	A: 0	X: 0	Y: 0	SP: fd
f512	1b	ROR	A: 0	X: 0	Y: 0	SP: fd
f514	1c	ROR	A: 0	X: 0	Y: 0	SP: fd
f516	1d	ROR	A: 0	X: 0	Y: 0	SP: fd
f518	1e	ROR	A: 0	X: 0	Y: 0	SP: fd
f51a	1f	ROR	A: 0	X: 0	Y: 0	SP: fd
f51c	0	RTS	A: 0	X: 0	Y: 0	SP: fd
c7e4	c7e1	JMP	A: 0	X: 0	Y: 0	SP: ff
c7e1	f4fc	JSR	A: 0	X: 0	Y: 0	SP: ff
f4fc	18	LDA	A: 0	X: 0	Y: 0	SP: fd
f4fe	f4ff	AND	A: 0	X: 0	Y: 0	SP: fd
f500	0	STA	A: 0	X: 0	Y: 0	SP: fd
f502	19	LDA	A: 0	X: 0	Y: 0	SP: fd
f504	f505	AND	A: 0	X: 0	Y: 0	SP: fd
f506	0	EOR	A: 0	X: 0	Y: 0	SP: fd
f508	0	CLC	A: 0	X: 0	Y: 0	SP: fd
f509	f50c	BEQ	A: 0	X: 0	Y: 0	SP: fd
f50c	18	ROR	A: 0	X: 0	Y: 0	SP: fd
f50e	19	ROR	A: 0	X: 0	Y: 0	SP: fd
f510	1a	ROR	A: 0	X: 0	Y: 0	SP: fd
f512	1b	ROR	A: 0	X: 0	Y: 0	SP: fd
f514	1c	ROR	A: 0	X: 0	Y: 0	SP: fd
f516	1d	ROR	A: 0	X: 0	Y: 0	SP: fd
f518	1e	ROR	A: 0	X: 0	Y: 0	SP: fd
f51a	1f	ROR	A: 0	X: 0	Y: 0	SP: fd
f51c	0	RTS	A: 0	X: 0	Y: 0	SP: fd
c7e4	c7e1	JMP	A: 0	X: 0	Y: 0	SP: ff
c7e1	f4fc	JSR	A: 0	X: 0	Y: 0	SP: ff
f4fc	18	LDA	A: 0	X: 0	Y: 0	SP: fd
f4fe	f4ff	AND	A: 0	X: 0	Y: 0	SP: fd
f500	0	STA	A: 0	X: 0	Y: 0	SP: fd
f502	19	LDA	A: 0	X: 0	Y: 0	SP: fd
f504	f505	AND	A: 0	X: 0	Y: 0	SP: fd
f506	0	EOR	A: 0	X: 0	Y: 0	SP: fd
f508	0	CLC	A: 0	X: 0	Y: 0	SP: fd
f509	f50c	BEQ	A: 0	X: 0	Y: 0	SP: fd
f50c	18	ROR	A: 0	X: 0	Y: 0	SP: fd
f50e	19	ROR	A: 0	X: 0	Y: 0	SP: fd
f510	1a	ROR	A: 0	X: 0	Y: 0	SP: fd
f512	1b	ROR	A: 0	X: 0	Y: 0	SP: fd
f514	1c	ROR	A: 0	X: 0	Y: 0	SP: fd
f516	1d	ROR	A: 0	X: 0	Y: 0	SP: fd
f518	1e	ROR	A: 0	X: 0	Y: 0	SP: fd
f51a	1f	ROR	A: 0	X: 0	Y: 0	SP: fd
f51c	0	RTS	A: 0	X: 0	Y: 0	SP: fd
c7e4	c7e1	JMP	A: 0	X: 0	Y: 0	SP: ff
c7e1	f4fc	JSR	A: 0	X: 0	Y: 0	SP: ff
f4fc	18	LDA	A: 0	X: 0	Y: 0	SP: fd
f4fe	f4ff	AND	A: 0	X: 0	Y: 0	SP: fd
f500	0	STA	A: 0	X: 0	Y: 0	SP: fd
f502	19	LDA	A: 0	X: 0	Y: 0	SP: fd
f504	f505	AND	A: 0	X: 0	Y: 0	SP: fd
f506	0	EOR	A: 0	X: 0	Y: 0	SP: fd
f508	0	CLC	A: 0	X: 0	Y: 0	SP: fd
f509	f50c	BEQ	A: 0	X: 0	Y: 0	SP: fd
f50c	18	ROR	A: 0	X: 0	Y: 0	SP: fd
f50e	19	ROR	A: 0	X: 0	Y: 0	SP: fd
f510	1a	ROR	A: 0	X: 0	Y: 0	SP: fd
f512	1b	ROR	A: 0	X: 0	Y: 0	SP: fd
f514	1c	ROR	A: 0	X: 0	Y: 0	SP: fd
f516	1d	ROR	A: 0	X: 0	Y: 0	SP: fd
f518	1e	ROR	A: 0	X: 0	Y: 0	SP: fd
f51a	1f	ROR	A: 0	X: 0	Y: 0	SP: fd
f51c	0	RTS	A: 0	X: 0	Y: 0	SP: fd
c7e4	c7e1	JMP	A: 0	X: 0	Y: 0	SP: ff
c7e1	f4fc	JSR	A: 0	X: 0	Y: 0	SP: ff
f4fc	18	LDA	A: 0	X: 0	Y: 0	SP: fd
f4fe	f4ff	AND	A: 0	X: 0	Y: 0	SP: fd
f500	0	STA	A: 0	X: 0	Y: 0	SP: fd
f502	19	LDA	A: 0	X: 0	Y: 0	SP: fd
f504	f505	AND	A: 0	X: 0	Y: 0	SP: fd
f506	0	EOR	A: 0	X: 0	Y: 0	SP: fd
f508	0	CLC	A: 0	X: 0	Y: 0	SP: fd
f509	f50c	BEQ	A: 0	X: 0	Y: 0	SP: fd
f50c	18	ROR	A: 0	X: 0	Y: 0	SP: fd
f50e	19	ROR	A: 0	X: 0	Y: 0	SP: fd
f510	1a	ROR	A: 0	X: 0	Y: 0	SP: fd
f512	1b	ROR	A: 0	X: 0	Y: 0	SP: fd
f514	1c	ROR	A: 0	X: 0	Y: 0	SP: fd
f516	1d	ROR	A: 0	X: 0	Y: 0	SP: fd
f518	1e	ROR	A: 0	X: 0	Y: 0	SP: fd
f51a	1f	ROR	A: 0	X: 0	Y: 0	SP: fd
f51c	0	RTS	A: 0	X: 0	Y: 0	SP: fd
c7e4	c7e1	JMP	A: 0	X: 0	Y: 0	SP: ff
c7e1	f4fc	JSR	A: 0	X: 0	Y: 0	SP: ff
f4fc	18	LDA	A: 0	X: 0	Y: 0	SP: fd
f4fe	f4ff	AND	A: 0	X: 0	Y: 0	SP: fd
f500	0	STA	A: 0	X: 0	Y: 0	SP: fd
f502	19	LDA	A: 0	X: 0	Y: 0	SP: fd
f504	f505	AND	A: 0	X: 0	Y: 0	SP: fd
f506	0	EOR	A: 0	X: 0	Y: 0	SP: fd
f508	0	CLC	A: 0	X: 0	Y: 0	SP: fd
f509	f50c	BEQ	A: 0	X: 0	Y: 0	SP: fd
f50c	18	ROR	A: 0	X: 0	Y: 0	SP: fd
f50e	19	ROR	A: 0	X: 0	Y: 0	SP: fd
f510	1a	ROR	A: 0	X: 0	Y: 0	SP: fd
f512	1b	ROR	A: 0	X: 0	Y: 0	SP: fd
f514	1c	ROR	A: 0	X: 0	Y: 0	SP: fd
f516	1d	ROR	A: 0	X: 0	Y: 0	SP: fd
f518	1e	ROR	A: 0	X: 0	Y: 0	SP: fd
f51a	1f	ROR	A: 0	X: 0	Y: 0	SP: fd
f51c	0	RTS	A: 0	X: 0	Y: 0	SP: fd
c7e4	c7e1	JMP	A: 0	X: 0	Y: 0	SP: ff
c7e1	f4fc	JSR	A: 0	X: 0	Y: 0	SP: ff
f4fc	18	LDA	A: 0	X: 0	Y: 0	SP: fd
f4fe	f4ff	AND	A: 0	X: 0	Y: 0	SP: fd
f500	0	STA	A: 0	X: 0	Y: 0	SP: fd
f502	19	LDA	A: 0	X: 0	Y: 0	SP: fd
f504	f505	AND	A: 0	X: 0	Y: 0	SP: fd
f506	0	EOR	A: 0	X: 0	Y: 0	SP: fd
f508	0	CLC	A: 0	X: 0	Y: 0	SP: fd
f509	f50c	BEQ	A: 0	X: 0	Y: 0	SP: fd
f50c	18	ROR	A: 0	X: 0	Y: 0	SP: fd
f50e	19	ROR	A: 0	X: 0	Y: 0	SP: fd
f510	1a	ROR	A: 0	X: 0	Y: 0	SP: fd
f512	1b	ROR	A: 0	X: 0	Y: 0	SP: fd
f514	1c	ROR	A: 0	X: 0	Y: 0	SP: fd
f516	1d	ROR	A: 0	X: 0	Y: 0	SP: fd
f518	1e	ROR	A: 0	X: 0	Y: 0	SP: fd
f51a	1f	ROR	A: 0	X: 0	Y: 0	SP: fd
f51c	0	RTS	A: 0	X: 0	Y: 0	SP: fd
c7e4	c7e1	JMP	A: 0	X: 0	Y: 0	SP: ff
c7e1	f4fc	JSR	A: 0	X: 0	Y: 0	SP: ff
f4fc	18	LDA	A: 0	X: 0	Y: 0	SP: fd
f4fe	f4ff	AND	A: 0	X: 0	Y: 0	SP: fd
f500	0	STA	A: 0	X: 0	Y: 0	SP: fd
f502	19	LDA	A: 0	X: 0	Y: 0	SP: fd
f504	f505	AND	A: 0	X: 0	Y: 0	SP: fd
f506	0	EOR	A: 0	X: 0	Y: 0	SP: fd
f508	0	CLC	A: 0	X: 0	Y: 0	SP: fd
f509	f50c	BEQ	A: 0	X: 0	Y: 0	SP: fd
f50c	18	ROR	A: 0	X: 0	Y: 0	SP: fd
f50e	19	ROR	A: 0	X: 0	Y: 0	SP: fd
f510	1a	ROR	A: 0	X: 0	Y: 0	SP: fd
f512	1b	ROR	A: 0	X: 0	Y: 0	SP: fd
f514	1c	ROR	A: 0	X: 0	Y: 0	SP: fd
f516	1d	ROR	A: 0	X: 0	Y: 0	SP: fd
f518	1e	ROR	A: 0	X: 0	Y: 0	SP: fd
f51a	1f	ROR	A: 0	X: 0	Y: 0	SP: fd
f51c	0	RTS	A: 0	X: 0	Y: 0	SP: fd
c7e4	c7e1	JMP	A: 0	X: 0	Y: 0	SP: ff
c7e1	f4fc	JSR	A: 0	X: 0	Y: 0	SP: ff
f4fc	18	LDA	A: 0	X: 0	Y: 0	SP: fd
f4fe	f4ff	AND	A: 0	X: 0	Y: 0	SP: fd
f500	0	STA	A: 0	X: 0	Y: 0	SP: fd
f502	19	LDA	A: 0	X: 0	Y: 0	SP: fd
f504	f505	AND	A: 0	X: 0	Y: 0	SP: fd
f506	0	EOR	A: 0	X: 0	Y: 0	SP: fd
f508	0	CLC	A: 0	X: 0	Y: 0	SP: fd
f509	f50c	BEQ	A: 0	X: 0	Y: 0	SP: fd
f50c	18	ROR	A: 0	X: 0	Y: 0	SP: fd
f50e	19	ROR	A: 0	X: 0	Y: 0	SP: fd
f510	1a	ROR	A: 0	X: 0	Y: 0	SP: fd
f512	1b	ROR	A: 0	X: 0	Y: 0	SP: fd
f514	1c	ROR	A: 0	X: 0	Y: 0	SP: fd
f516	1d	ROR	A: 0	X: 0	Y: 0	SP: fd
f518	1e	ROR	A: 0	X: 0	Y: 0	SP: fd
f51a	1f	ROR	A: 0	X: 0	Y: 0	SP: fd
f51c	0	RTS	A: 0	X: 0	Y: 0	SP: fd
c7e4	c7e1	JMP	A: 0	X: 0	Y: 0	SP: ff
c7e1	f4fc	JSR	A: 0	X: 0	Y: 0	SP: ff
f4fc	18	LDA	A: 0	X: 0	Y: 0	SP: fd
f4fe	f4ff	AND	A: 0	X: 0	Y: 0	SP: fd
f500	0	STA	A: 0	X: 0	Y: 0	SP: fd
f502	19	LDA	A: 0	X: 0	Y: 0	SP: fd
f504	f505	AND	A: 0	X: 0	Y: 0	SP: fd
f506	0	EOR	A: 0	X: 0	Y: 0	SP: fd
f508	0	CLC	A: 0	X: 0	Y: 0	SP: fd
f509	f50c	BEQ	A: 0	X: 0	Y: 0	SP: fd
f50c	18	ROR	A: 0	X: 0	Y: 0	SP: fd
f50e	19	ROR	A: 0	X: 0	Y: 0	SP: fd
f510	1a	ROR	A: 0	X: 0	Y: 0	SP: fd
f512	1b	ROR	A: 0	X: 0	Y: 0	SP: fd
f514	1c	ROR	A: 0	X: 0	Y: 0	SP: fd
f516	1d	ROR	A: 0	X: 0	Y: 0	SP: fd
f518	1e	ROR	A: 0	X: 0	Y: 0	SP: fd
f51a	1f	ROR	A: 0	X: 0	Y: 0	SP: fd
f51c	0	RTS	A: 0	X: 0	Y: 0	SP: fd
c7e4	c7e1	JMP	A: 0	X: 0	Y: 0	SP: ff
c7e1	f4fc	JSR	A: 0	X: 0	Y: 0	SP: ff
f4fc	18	LDA	A: 0	X: 0	Y: 0	SP: fd
f4fe	f4ff	AND	A: 0	X: 0	Y: 0	SP: fd
f500	0	STA	A: 0	X: 0	Y: 0	SP: fd
f502	19	LDA	A: 0	X: 0	Y: 0	SP: fd
f504	f505	AND	A: 0	X: 0	Y: 0	SP: fd
f506	0	EOR	A: 0	X: 0	Y: 0	SP: fd
f508	0	CLC	A: 0	X: 0	Y: 0	SP: fd
f509	f50c	BEQ	A: 0	X: 0	Y: 0	SP: fd
f50c	18	ROR	A: 0	X: 0	Y: 0	SP: fd
f50e	19	ROR	A: 0	X: 0	Y: 0	SP: fd
f510	1a	ROR	A: 0	X: 0	Y: 0	SP: fd
f512	1b	ROR	A: 0	X: 0	Y: 0	SP: fd
f514	1c	ROR	A: 0	X: 0	Y: 0	SP: fd
f516	1d	ROR	A: 0	X: 0	Y: 0	SP: fd
f518	1e	ROR	A: 0	X: 0	Y: 0	SP: fd
f51a	1f	ROR	A: 0	X: 0	Y: 0	SP: fd
f51c	0	RTS	A: 0	X: 0	Y: 0	SP: fd
c7e4	c7e1	JMP	A: 0	X: 0	Y: 0	SP: ff
c7e1	f4fc	JSR	A: 0	X: 0	Y: 0	SP: ff
f4fc	18	LDA	A: 0	X: 0	Y: 0	SP: fd
f4fe	f4ff	AND	A: 0	X: 0	Y: 0	SP: fd
f500	0	STA	A: 0	X: 0	Y: 0	SP: fd
f502	19	LDA	A: 0	X: 0	Y: 0	SP: fd
f504	f505	AND	A: 0	X: 0	Y: 0	SP: fd
f506	0	EOR	A: 0	X: 0	Y: 0	SP: fd
f508	0	CLC	A: 0	X: 0	Y: 0	SP: fd
f509	f50c	BEQ	A: 0	X: 0	Y: 0	SP: fd
f50c	18	ROR	A: 0	X: 0	Y: 0	SP: fd
f50e	19	ROR	A: 0	X: 0	Y: 0	SP: fd
f510	1a	ROR	A: 0	X: 0	Y: 0	SP: fd
f512	1b	ROR	A: 0	X: 0	Y: 0	SP: fd
f514	1c	ROR	A: 0	X: 0	Y: 0	SP: fd
f516	1d	ROR	A: 0	X: 0	Y: 0	SP: fd
f518	1e	ROR	A: 0	X: 0	Y: 0	SP: fd
f51a	1f	ROR	A: 0	X: 0	Y: 0	SP: fd
f51c	0	RTS	A: 0	X: 0	Y: 0	SP: fd
c7e4	c7e1	JMP	A: 0	X: 0	Y: 0	SP: ff
c7e1	f4fc	JSR	A: 0	X: 0	Y: 0	SP: ff
f4fc	18	LDA	A: 0	X: 0	Y: 0	SP: fd
f4fe	f4ff	AND	A: 0	X: 0	Y: 0	SP: fd
f500	0	STA	A: 0	X: 0	Y: 0	SP: fd
f502	19	LDA	A: 0	X: 0	Y: 0	SP: fd
f504	f505	AND	A: 0	X: 0	Y: 0	SP: fd
f506	0	EOR	A: 0	X: 0	Y: 0	SP: fd
f508	0	CLC	A: 0	X: 0	Y: 0	SP: fd
f509	f50c	BEQ	A: 0	X: 0	Y: 0	SP: fd
f50c	18	ROR	A: 0	X: 0	Y: 0	SP: fd
f50e	19	ROR	A: 0	X: 0	Y: 0	SP: fd
f510	1a	ROR	A: 0	X: 0	Y: 0	SP: fd
f512	1b	ROR	A: 0	X: 0	Y: 0	SP: fd
f514	1c	ROR	A: 0	X: 0	Y: 0	SP: fd
f516	1d	ROR	A: 0	X: 0	Y: 0	SP: fd
f518	1e	ROR	A: 0	X: 0	Y: 0	SP: fd
f51a	1f	ROR	A: 0	X: 0	Y: 0	SP: fd
f51c	0	RTS	A: 0	X: 0	Y: 0	SP: fd
c7e4	c7e1	JMP	A: 0	X: 0	Y: 0	SP: ff
c7e1	f4fc	JSR	A: 0	X: 0	Y: 0	SP: ff
f4fc	18	LDA	A: 0	X: 0	Y: 0	SP: fd
f4fe	f4ff	AND	A: 0	X: 0	Y: 0	SP: fd
f500	0	STA	A: 0	X: 0	Y: 0	SP: fd
f502	19	LDA	A: 0	X: 0	Y: 0	SP: fd
f504	f505	AND	A: 0	X: 0	Y: 0	SP: fd
f506	0	EOR	A: 0	X: 0	Y: 0	SP: fd
f508	0	CLC	A: 0	X: 0	Y: 0	SP: fd
f509	f50c	BEQ	A: 0	X: 0	Y: 0	SP: fd
f50c	18	ROR	A: 0	X: 0	Y: 0	SP: fd
f50e	19	ROR	A: 0	X: 0	Y: 0	SP: fd
f510	1a	ROR	A: 0	X: 0	Y: 0	SP: fd
f512	1b	ROR	A: 0	X: 0	Y: 0	SP: fd
f514	1c	ROR	A: 0	X: 0	Y: 0	SP: fd
f516	1d	ROR	A: 0	X: 0	Y: 0	SP: fd
f518	1e	ROR	A: 0	X: 0	Y: 0	SP: fd
f51a	1f	ROR	A: 0	X: 0	Y: 0	SP: fd
f51c	0	RTS	A: 0	X: 0	Y: 0	SP: fd
c7e4	c7e1	JMP	A: 0	X: 0	Y: 0	SP: ff
c7e1	f4fc	JSR	A: 0	X: 0	Y: 0	SP: ff
f4fc	18	LDA	A: 0	X: 0	Y: 0	SP: fd
f4fe	f4ff	AND	A: 0	X: 0	Y: 0	SP: fd
f500	0	STA	A: 0	X: 0	Y: 0	SP: fd
f502	19	LDA	A: 0	X: 0	Y: 0	SP: fd
f504	f505	AND	A: 0	X: 0	Y: 0	SP: fd
f506	0	EOR	A: 0	X: 0	Y: 0	SP: fd
f508	0	CLC	A: 0	X: 0	Y: 0	SP: fd
f509	f50c	BEQ	A: 0	X: 0	Y: 0	SP: fd
f50c	18	ROR	A: 0	X: 0	Y: 0	SP: fd
f50e	19	ROR	A: 0	X: 0	Y: 0	SP: fd
f510	1a	ROR	A: 0	X: 0	Y: 0	SP: fd
f512	1b	ROR	A: 0	X: 0	Y: 0	SP: fd
f514	1c	ROR	A: 0	X: 0	Y: 0	SP: fd
f516	1d	ROR	A: 0	X: 0	Y: 0	SP: fd
f518	1e	ROR	A: 0	X: 0	Y: 0	SP: fd
f51a	1f	ROR	A: 0	X: 0	Y: 0	SP: fd
f51c	0	RTS	A: 0	X: 0	Y: 0	SP: fd
c7e4	c7e1	JMP	A: 0	X: 0	Y: 0	SP: ff
c7e1	f4fc	JSR	A: 0	X: 0	Y: 0	SP: ff
f4fc	18	LDA	A: 0	X: 0	Y: 0	SP: fd
f4fe	f4ff	AND	A: 0	X: 0	Y: 0	SP: fd
f500	0	STA	A: 0	X: 0	Y: 0	SP: fd
f502	19	LDA	A: 0	X: 0	Y: 0	SP: fd
f504	f505	AND	A: 0	X: 0	Y: 0	SP: fd
f506	0	EOR	A: 0	X: 0	Y: 0	SP: fd
f508	0	CLC	A: 0	X: 0	Y: 0	SP: fd
f509	f50c	BEQ	A: 0	X: 0	Y: 0	SP: fd
f50c	18	ROR	A: 0	X: 0	Y: 0	SP: fd
f50e	19	ROR	A: 0	X: 0	Y: 0	SP: fd
f510	1a	ROR	A: 0	X: 0	Y: 0	SP: fd
f512	1b	ROR	A: 0	X: 0	Y: 0	SP: fd
f514	1c	ROR	A: 0	X: 0	Y: 0	SP: fd
f516	1d	ROR	A: 0	X: 0	Y: 0	SP: fd
f518	1e	ROR	A: 0	X: 0	Y: 0	SP: fd
f51a	1f	ROR	A: 0	X: 0	Y: 0	SP: fd
f51c	0	RTS	A: 0	X: 0	Y: 0	SP: fd
c7e4	c7e1	JMP	A: 0	X: 0	Y: 0	SP: ff
c7e1	f4fc	JSR	A: 0	X: 0	Y: 0	SP: ff
f4fc	18	LDA	A: 0	X: 0	Y: 0	SP: fd
f4fe	f4ff	AND	A: 0	X: 0	Y: 0	SP: fd
f500	0	STA	A: 0	X: 0	Y: 0	SP: fd
f502	19	LDA	A: 0	X: 0	Y: 0	SP: fd
f504	f505	AND	A: 0	X: 0	Y: 0	SP: fd
f506	0	EOR	A: 0	X: 0	Y: 0	SP: fd
f508	0	CLC	A: 0	X: 0	Y: 0	SP: fd
f509	f50c	BEQ	A: 0	X: 0	Y: 0	SP: fd
f50c	18	ROR	A: 0	X: 0	Y: 0	SP: fd
f50e	19	ROR	A: 0	X: 0	Y: 0	SP: fd
f510	1a	ROR	A: 0	X: 0	Y: 0	SP: fd
f512	1b	ROR	A: 0	X: 0	Y: 0	SP: fd
f514	1c	ROR	A: 0	X: 0	Y: 0	SP: fd
f516	1d	ROR	A: 0	X: 0	Y: 0	SP: fd
f518	1e	ROR	A: 0	X: 0	Y: 0	SP: fd
f51a	1f	ROR	A: 0	X: 0	Y: 0	SP: fd
f51c	0	RTS	A: 0	X: 0	Y: 0	SP: fd
c7e4	c7e1	JMP	A: 0	X: 0	Y: 0	SP: ff
c7e1	f4fc	JSR	A: 0	X: 0	Y: 0	SP: ff
f4fc	18	LDA	A: 0	X: 0	Y: 0	SP: fd
f4fe	f4ff	AND	A: 0	X: 0	Y: 0	SP: fd
f500	0	STA	A: 0	X: 0	Y: 0	SP: fd
f502	19	LDA	A: 0	X: 0	Y: 0	SP: fd
f504	f505	AND	A: 0	X: 0	Y: 0	SP: fd
f506	0	EOR	A: 0	X: 0	Y: 0	SP: fd
f508	0	CLC	A: 0	X: 0	Y: 0	SP: fd
f509	f50c	BEQ	A: 0	X: 0	Y: 0	SP: fd
f50c	18	ROR	A: 0	X: 0	Y: 0	SP: fd
f50e	19	ROR	A: 0	X: 0	Y: 0	SP: fd
f510	1a	ROR	A: 0	X: 0	Y: 0	SP: fd
f512	1b	ROR	A: 0	X: 0	Y: 0	SP: fd
f514	1c	ROR	A: 0	X: 0	Y: 0	SP: fd
f516	1d	ROR	A: 0	X: 0	Y: 0	SP: fd
f518	1e	ROR	A: 0	X: 0	Y: 0	SP: fd
f51a	1f	ROR	A: 0	X: 0	Y: 0	SP: fd
f51c	0	RTS	A: 0	X: 0	Y: 0	SP: fd
c7e4	c7e1	JMP	A: 0	X: 0	Y: 0	SP: ff
c7e1	f4fc	JSR	A: 0	X: 0	Y: 0	SP: ff
f4fc	18	LDA	A: 0	X: 0	Y: 0	SP: fd
f4fe	f4ff	AND	A: 0	X: 0	Y: 0	SP: fd
f500	0	STA	A: 0	X: 0	Y: 0	SP: fd
f502	19	LDA	A: 0	X: 0	Y: 0	SP: fd
f504	f505	AND	A: 0	X: 0	Y: 0	SP: fd
f506	0	EOR	A: 0	X: 0	Y: 0	SP: fd
f508	0	CLC	A: 0	X: 0	Y: 0	SP: fd
f509	f50c	BEQ	A: 0	X: 0	Y: 0	SP: fd
f50c	18	ROR	A: 0	X: 0	Y: 0	SP: fd
f50e	19	ROR	A: 0	X: 0	Y: 0	SP: fd
f510	1a	ROR	A: 0	X: 0	Y: 0	SP: fd
f512	1b	ROR	A: 0	X: 0	Y: 0	SP: fd
f514	1c	ROR	A: 0	X: 0	Y: 0	SP: fd
f516	1d	ROR	A: 0	X: 0	Y: 0	SP: fd
f518	1e	ROR	A: 0	X: 0	Y: 0	SP: fd
f51a	1f	ROR	A: 0	X: 0	Y: 0	SP: fd
f51c	0	RTS	A: 0	X: 0	Y: 0	SP: fd
c7e4	c7e1	JMP	A: 0	X: 0	Y: 0	SP: ff
c7e1	f4fc	JSR	A: 0	X: 0	Y: 0	SP: ff
f4fc	18	LDA	A: 0	X: 0	Y: 0	SP: fd
f4fe	f4ff	AND	A: 0	X: 0	Y: 0	SP: fd
f500	0	STA	A: 0	X: 0	Y: 0	SP: fd
f502	19	LDA	A: 0	X: 0	Y: 0	SP: fd
f504	f505	AND	A: 0	X: 0	Y: 0	SP: fd
f506	0	EOR	A: 0	X: 0	Y: 0	SP: fd
f508	0	CLC	A: 0	X: 0	Y: 0	SP: fd
f509	f50c	BEQ	A: 0	X: 0	Y: 0	SP: fd
f50c	18	ROR	A: 0	X: 0	Y: 0	SP: fd
f50e	19	ROR	A: 0	X: 0	Y: 0	SP: fd
f510	1a	ROR	A: 0	X: 0	Y: 0	SP: fd
f512	1b	ROR	A: 0	X: 0	Y: 0	SP: fd
f514	1c	ROR	A: 0	X: 0	Y: 0	SP: fd
f516	1d	ROR	A: 0	X: 0	Y: 0	SP: fd
f518	1e	ROR	A: 0	X: 0	Y: 0	SP: fd
f51a	1f	ROR	A: 0	X: 0	Y: 0	SP: fd
f51c	0	RTS	A: 0	X: 0	Y: 0	SP: fd
c7e4	c7e1	JMP	A: 0	X: 0	Y: 0	SP: ff
c7e1	f4fc	JSR	A: 0	X: 0	Y: 0	SP: ff
f4fc	18	LDA	A: 0	X: 0	Y: 0	SP: fd
f4fe	f4ff	AND	A: 0	X: 0	Y: 0	SP: fd
f500	0	STA	A: 0	X: 0	Y: 0	SP: fd
f502	19	LDA	A: 0	X: 0	Y: 0	SP: fd
f504	f505	AND	A: 0	X: 0	Y: 0	SP: fd
f506	0	EOR	A: 0	X: 0	Y: 0	SP: fd
f508	0	CLC	A: 0	X: 0	Y: 0	SP: fd
f509	f50c	BEQ	A: 0	X: 0	Y: 0	SP: fd
f50c	18	ROR	A: 0	X: 0	Y: 0	SP: fd
f50e	19	ROR	A: 0	X: 0	Y: 0	SP: fd
f510	1a	ROR	A: 0	X: 0	Y: 0	SP: fd
f512	1b	ROR	A: 0	X: 0	Y: 0	SP: fd
f514	1c	ROR	A: 0	X: 0	Y: 0	SP: fd
f516	1d	ROR	A: 0	X: 0	Y: 0	SP: fd
f518	1e	ROR	A: 0	X: 0	Y: 0	SP: fd
f51a	1f	ROR	A: 0	X: 0	Y: 0	SP: fd
f51c	0	RTS	A: 0	X: 0	Y: 0	SP: fd
c7e4	c7e1	JMP	A: 0	X: 0	Y: 0	SP: ff
c7e1	f4fc	JSR	A: 0	X: 0	Y: 0	SP: ff
f4fc	18	LDA	A: 0	X: 0	Y: 0	SP: fd
f4fe	f4ff	AND	A: 0	X: 0	Y: 0	SP: fd
f500	0	STA	A: 0	X: 0	Y: 0	SP: fd
f502	19	LDA	A: 0	X: 0	Y: 0	SP: fd
f504	f505	AND	A: 0	X: 0	Y: 0	SP: fd
f506	0	EOR	A: 0	X: 0	Y: 0	SP: fd
f508	0	CLC	A: 0	X: 0	Y: 0	SP: fd
f509	f50c	BEQ	A: 0	X: 0	Y: 0	SP: fd
f50c	18	ROR	A: 0	X: 0	Y: 0	SP: fd
f50e	19	ROR	A: 0	X: 0	Y: 0	SP: fd
f510	1a	ROR	A: 0	X: 0	Y: 0	SP: fd
f512	1b	ROR	A: 0	X: 0	Y: 0	SP: fd
f514	1c	ROR	A: 0	X: 0	Y: 0	SP: fd
f516	1d	ROR	A: 0	X: 0	Y: 0	SP: fd
f518	1e	ROR	A: 0	X: 0	Y: 0	SP: fd
f51a	1f	ROR	A: 0	X: 0	Y: 0	SP: fd
f51c	0	RTS	A: 0	X: 0	Y: 0	SP: fd
c7e4	c7e1	JMP	A: 0	X: 0	Y: 0	SP: ff
c7e1	f4fc	JSR	A: 0	X: 0	Y: 0	SP: ff
f4fc	18	LDA	A: 0	X: 0	Y: 0	SP: fd
f4fe	f4ff	AND	A: 0	X: 0	Y: 0	SP: fd
f500	0	STA	A: 0	X: 0	Y: 0	SP: fd
f502	19	LDA	A: 0	X: 0	Y: 0	SP: fd
f504	f505	AND	A: 0	X: 0	Y: 0	SP: fd
f506	0	EOR	A: 0	X: 0	Y: 0	SP: fd
f508	0	CLC	A: 0	X: 0	Y: 0	SP: fd
f509	f50c	BEQ	A: 0	X: 0	Y: 0	SP: fd
f50c	18	ROR	A: 0	X: 0	Y: 0	SP: fd
f50e	19	ROR	A: 0	X: 0	Y: 0	SP: fd
f510	1a	ROR	A: 0	X: 0	Y: 0	SP: fd
f512	1b	ROR	A: 0	X: 0	Y: 0	SP: fd
f514	1c	ROR	A: 0	X: 0	Y: 0	SP: fd
f516	1d	ROR	A: 0	X: 0	Y: 0	SP: fd
f518	1e	ROR	A: 0	X: 0	Y: 0	SP: fd
f51a	1f	ROR	A: 0	X: 0	Y: 0	SP: fd
f51c	0	RTS	A: 0	X: 0	Y: 0	SP: fd
c7e4	c7e1	JMP	A: 0	X: 0	Y: 0	SP: ff
c7e1	f4fc	JSR	A: 0	X: 0	Y: 0	SP: ff
f4fc	18	LDA	A: 0	X: 0	Y: 0	SP: fd
f4fe	f4ff	AND	A: 0	X: 0	Y: 0	SP: fd
f500	0	STA	A: 0	X: 0	Y: 0	SP: fd
f502	19	LDA	A: 0	X: 0	Y: 0	SP: fd
f504	f505	AND	A: 0	X: 0	Y: 0	SP: fd
f506	0	EOR	A: 0	X: 0	Y: 0	SP: fd
f508	0	CLC	A: 0	X: 0	Y: 0	SP: fd
f509	f50c	BEQ	A: 0	X: 0	Y: 0	SP: fd
f50c	18	ROR	A: 0	X: 0	Y: 0	SP: fd
f50e	19	ROR	A: 0	X: 0	Y: 0	SP: fd
f510	1a	ROR	A: 0	X: 0	Y: 0	SP: fd
f512	1b	ROR	A: 0	X: 0	Y: 0	SP: fd
f514	1c	ROR	A: 0	X: 0	Y: 0	SP: fd
f516	1d	ROR	A: 0	X: 0	Y: 0	SP: fd
f518	1e	ROR	A: 0	X: 0	Y: 0	SP: fd
f51a	1f	ROR	A: 0	X: 0	Y: 0	SP: fd
f51c	0	RTS	A: 0	X: 0	Y: 0	SP: fd
c7e4	c7e1	JMP	A: 0	X: 0	Y: 0	SP: ff
c7e1	f4fc	JSR	A: 0	X: 0	Y: 0	SP: ff
f4fc	18	LDA	A: 0	X: 0	Y: 0	SP: fd
f4fe	f4ff	AND	A: 0	X: 0	Y: 0	SP: fd
f500	0	STA	A: 0	X: 0	Y: 0	SP: fd
f502	19	LDA	A: 0	X: 0	Y: 0	SP: fd
f504	f505	AND	A: 0	X: 0	Y: 0	SP: fd
f506	0	EOR	A: 0	X: 0	Y: 0	SP: fd
f508	0	CLC	A: 0	X: 0	Y: 0	SP: fd
f509	f50c	BEQ	A: 0	X: 0	Y: 0	SP: fd
f50c	18	ROR	A: 0	X: 0	Y: 0	SP: fd
f50e	19	ROR	A: 0	X: 0	Y: 0	SP: fd
f510	1a	ROR	A: 0	X: 0	Y: 0	SP: fd
f512	1b	ROR	A: 0	X: 0	Y: 0	SP: fd
f514	1c	ROR	A: 0	X: 0	Y: 0	SP: fd
f516	1d	ROR	A: 0	X: 0	Y: 0	SP: fd
f518	1e	ROR	A: 0	X: 0	Y: 0	SP: fd
f51a	1f	ROR	A: 0	X: 0	Y: 0	SP: fd
f51c	0	RTS	A: 0	X: 0	Y: 0	SP: fd
c7e4	c7e1	JMP	A: 0	X: 0	Y: 0	SP: ff
c7e1	f4fc	JSR	A: 0	X: 0	Y: 0	SP: ff
f4fc	18	LDA	A: 0	X: 0	Y: 0	SP: fd
f4fe	f4ff	AND	A: 0	X: 0	Y: 0	SP: fd
f500	0	STA	A: 0	X: 0	Y: 0	SP: fd
f502	19	LDA	A: 0	X: 0	Y: 0	SP: fd
f504	f505	AND	A: 0	X: 0	Y: 0	SP: fd
f506	0	EOR	A: 0	X: 0	Y: 0	SP: fd
f508	0	CLC	A: 0	X: 0	Y: 0	SP: fd
f509	f50c	BEQ	A: 0	X: 0	Y: 0	SP: fd
f50c	18	ROR	A: 0	X: 0	Y: 0	SP: fd
f50e	19	ROR	A: 0	X: 0	Y: 0	SP: fd
f510	1a	ROR	A: 0	X: 0	Y: 0	SP: fd
f512	1b	ROR	A: 0	X: 0	Y: 0	SP: fd
f514	1c	ROR	A: 0	X: 0	Y: 0	SP: fd
f516	1d	ROR	A: 0	X: 0	Y: 0	SP: fd
f518	1e	ROR	A: 0	X: 0	Y: 0	SP: fd
f51a	1f	ROR	A: 0	X: 0	Y: 0	SP: fd
f51c	0	RTS	A: 0	X: 0	Y: 0	SP: fd
c7e4	c7e1	JMP	A: 0	X: 0	Y: 0	SP: ff
c7e1	f4fc	JSR	A: 0	X: 0	Y: 0	SP: ff
f4fc	18	LDA	A: 0	X: 0	Y: 0	SP: fd
f4fe	f4ff	AND	A: 0	X: 0	Y: 0	SP: fd
f500	0	STA	A: 0	X: 0	Y: 0	SP: fd
f502	19	LDA	A: 0	X: 0	Y: 0	SP: fd
f504	f505	AND	A: 0	X: 0	Y: 0	SP: fd
f506	0	EOR	A: 0	X: 0	Y: 0	SP: fd
f508	0	CLC	A: 0	X: 0	Y: 0	SP: fd
f509	f50c	BEQ	A: 0	X: 0	Y: 0	SP: fd
f50c	18	ROR	A: 0	X: 0	Y: 0	SP: fd
f50e	19	ROR	A: 0	X: 0	Y: 0	SP: fd
f510	1a	ROR	A: 0	X: 0	Y: 0	SP: fd
f512	1b	ROR	A: 0	X: 0	Y: 0	SP: fd
f514	1c	ROR	A: 0	X: 0	Y: 0	SP: fd
f516	1d	ROR	A: 0	X: 0	Y: 0	SP: fd
f518	1e	ROR	A: 0	X: 0	Y: 0	SP: fd
f51a	1f	ROR	A: 0	X: 0	Y: 0	SP: fd
f51c	0	RTS	A: 0	X: 0	Y: 0	SP: fd
c7e4	c7e1	JMP	A: 0	X: 0	Y: 0	SP: ff
c7e1	f4fc	JSR	A: 0	X: 0	Y: 0	SP: ff
f4fc	18	LDA	A: 0	X: 0	Y: 0	SP: fd
f4fe	f4ff	AND	A: 0	X: 0	Y: 0	SP: fd
f500	0	STA	A: 0	X: 0	Y: 0	SP: fd
f502	19	LDA	A: 0	X: 0	Y: 0	SP: fd
f504	f505	AND	A: 0	X: 0	Y: 0	SP: fd
f506	0	EOR	A: 0	X: 0	Y: 0	SP: fd
f508	0	CLC	A: 0	X: 0	Y: 0	SP: fd
f509	f50c	BEQ	A: 0	X: 0	Y: 0	SP: fd
f50c	18	ROR	A: 0	X: 0	Y: 0	SP: fd
f50e	19	ROR	A: 0	X: 0	Y: 0	SP: fd
f510	1a	ROR	A: 0	X: 0	Y: 0	SP: fd
f512	1b	ROR	A: 0	X: 0	Y: 0	SP: fd
f514	1c	ROR	A: 0	X: 0	Y: 0	SP: fd
f516	1d	ROR	A: 0	X: 0	Y: 0	SP: fd
f518	1e	ROR	A: 0	X: 0	Y: 0	SP: fd
f51a	1f	ROR	A: 0	X: 0	Y: 0	SP: fd
f51c	0	RTS	A: 0	X: 0	Y: 0	SP: fd
c7e4	c7e1	JMP	A: 0	X: 0	Y: 0	SP: ff
c7e1	f4fc	JSR	A: 0	X: 0	Y: 0	SP: ff
f4fc	18	LDA	A: 0	X: 0	Y: 0	SP: fd
f4fe	f4ff	AND	A: 0	X: 0	Y: 0	SP: fd
f500	0	STA	A: 0	X: 0	Y: 0	SP: fd
f502	19	LDA	A: 0	X: 0	Y: 0	SP: fd
f504	f505	AND	A: 0	X: 0	Y: 0	SP: fd
f506	0	EOR	A: 0	X: 0	Y: 0	SP: fd
f508	0	CLC	A: 0	X: 0	Y: 0	SP: fd
f509	f50c	BEQ	A: 0	X: 0	Y: 0	SP: fd
f50c	18	ROR	A: 0	X: 0	Y: 0	SP: fd
f50e	19	ROR	A: 0	X: 0	Y: 0	SP: fd
f510	1a	ROR	A: 0	X: 0	Y: 0	SP: fd
f512	1b	ROR	A: 0	X: 0	Y: 0	SP: fd
f514	1c	ROR	A: 0	X: 0	Y: 0	SP: fd
f516	1d	ROR	A: 0	X: 0	Y: 0	SP: fd
f518	1e	ROR	A: 0	X: 0	Y: 0	SP: fd
f51a	1f	ROR	A: 0	X: 0	Y: 0	SP: fd
f51c	0	RTS	A: 0	X: 0	Y: 0	SP: fd
c7e4	c7e1	JMP	A: 0	X: 0	Y: 0	SP: ff
c7e1	f4fc	JSR	A: 0	X: 0	Y: 0	SP: ff
f4fc	18	LDA	A: 0	X: 0	Y: 0	SP: fd
f4fe	f4ff	AND	A: 0	X: 0	Y: 0	SP: fd
f500	0	STA	A: 0	X: 0	Y: 0	SP: fd
f502	19	LDA	A: 0	X: 0	Y: 0	SP: fd
f504	f505	AND	A: 0	X: 0	Y: 0	SP: fd
f506	0	EOR	A: 0	X: 0	Y: 0	SP: fd
f508	0	CLC	A: 0	X: 0	Y: 0	SP: fd
f509	f50c	BEQ	A: 0	X: 0	Y: 0	SP: fd
f50c	18	ROR	A: 0	X: 0	Y: 0	SP: fd
f50e	19	ROR	A: 0	X: 0	Y: 0	SP: fd
f510	1a	ROR	A: 0	X: 0	Y: 0	SP: fd
f512	1b	ROR	A: 0	X: 0	Y: 0	SP: fd
f514	1c	ROR	A: 0	X: 0	Y: 0	SP: fd
f516	1d	ROR	A: 0	X: 0	Y: 0	SP: fd
f518	1e	ROR	A: 0	X: 0	Y: 0	SP: fd
f51a	1f	ROR	A: 0	X: 0	Y: 0	SP: fd
f51c	0	RTS	A: 0	X: 0	Y: 0	SP: fd
c7e4	c7e1	JMP	A: 0	X: 0	Y: 0	SP: ff
c7e1	f4fc	JSR	A: 0	X: 0	Y: 0	SP: ff
f4fc	18	LDA	A: 0	X: 0	Y: 0	SP: fd
f4fe	f4ff	AND	A: 0	X: 0	Y: 0	SP: fd
f500	0	STA	A: 0	X: 0	Y: 0	SP: fd
f502	19	LDA	A: 0	X: 0	Y: 0	SP: fd
f504	f505	AND	A: 0	X: 0	Y: 0	SP: fd
f506	0	EOR	A: 0	X: 0	Y: 0	SP: fd
f508	0	CLC	A: 0	X: 0	Y: 0	SP: fd
f509	f50c	BEQ	A: 0	X: 0	Y: 0	SP: fd
f50c	18	ROR	A: 0	X: 0	Y: 0	SP: fd
f50e	19	ROR	A: 0	X: 0	Y: 0	SP: fd
f510	1a	ROR	A: 0	X: 0	Y: 0	SP: fd
f512	1b	ROR	A: 0	X: 0	Y: 0	SP: fd
f514	1c	ROR	A: 0	X: 0	Y: 0	SP: fd
f516	1d	ROR	A: 0	X: 0	Y: 0	SP: fd
f518	1e	ROR	A: 0	X: 0	Y: 0	SP: fd
f51a	1f	ROR	A: 0	X: 0	Y: 0	SP: fd
f51c	0	RTS	A: 0	X: 0	Y: 0	SP: fd
c7e4	c7e1	JMP	A: 0	X: 0	Y: 0	SP: ff
c7e1	f4fc	JSR	A: 0	X: 0	Y: 0	SP: ff
f4fc	18	LDA	A: 0	X: 0	Y: 0	SP: fd
f4fe	f4ff	AND	A: 0	X: 0	Y: 0	SP: fd
f500	0	STA	A: 0	X: 0	Y: 0	SP: fd
f502	19	LDA	A: 0	X: 0	Y: 0	SP: fd
f504	f505	AND	A: 0	X: 0	Y: 0	SP: fd
f506	0	EOR	A: 0	X: 0	Y: 0	SP: fd
f508	0	CLC	A: 0	X: 0	Y: 0	SP: fd
f509	f50c	BEQ	A: 0	X: 0	Y: 0	SP: fd
f50c	18	ROR	A: 0	X: 0	Y: 0	SP: fd
f50e	19	ROR	A: 0	X: 0	Y: 0	SP: fd
f510	1a	ROR	A: 0	X: 0	Y: 0	SP: fd
f512	1b	ROR	A: 0	X: 0	Y: 0	SP: fd
f514	1c	ROR	A: 0	X: 0	Y: 0	SP: fd
f516	1d	ROR	A: 0	X: 0	Y: 0	SP: fd
f518	1e	ROR	A: 0	X: 0	Y: 0	SP: fd
f51a	1f	ROR	A: 0	X: 0	Y: 0	SP: fd
f51c	0	RTS	A: 0	X: 0	Y: 0	SP: fd
c7e4	c7e1	JMP	A: 0	X: 0	Y: 0	SP: ff
c7e1	f4fc	JSR	A: 0	X: 0	Y: 0	SP: ff
f4fc	18	LDA	A: 0	X: 0	Y: 0	SP: fd
f4fe	f4ff	AND	A: 0	X: 0	Y: 0	SP: fd
f500	0	STA	A: 0	X: 0	Y: 0	SP: fd
f502	19	LDA	A: 0	X: 0	Y: 0	SP: fd
f504	f505	AND	A: 0	X: 0	Y: 0	SP: fd
f506	0	EOR	A: 0	X: 0	Y: 0	SP: fd
f508	0	CLC	A: 0	X: 0	Y: 0	SP: fd
f509	f50c	BEQ	A: 0	X: 0	Y: 0	SP: fd
f50c	18	ROR	A: 0	X: 0	Y: 0	SP: fd
f50e	19	ROR	A: 0	X: 0	Y: 0	SP: fd
f510	1a	ROR	A: 0	X: 0	Y: 0	SP: fd
f512	1b	ROR	A: 0	X: 0	Y: 0	SP: fd
f514	1c	ROR	A: 0	X: 0	Y: 0	SP: fd
f516	1d	ROR	A: 0	X: 0	Y: 0	SP: fd
f518	1e	ROR	A: 0	X: 0	Y: 0	SP: fd
f51a	1f	ROR	A: 0	X: 0	Y: 0	SP: fd
f51c	0	RTS	A: 0	X: 0	Y: 0	SP: fd
c7e4	c7e1	JMP	A: 0	X: 0	Y: 0	SP: ff
c7e1	f4fc	JSR	A: 0	X: 0	Y: 0	SP: ff
f4fc	18	LDA	A: 0	X: 0	Y: 0	SP: fd
f4fe	f4ff	AND	A: 0	X: 0	Y: 0	SP: fd
f500	0	STA	A: 0	X: 0	Y: 0	SP: fd
f502	19	LDA	A: 0	X: 0	Y: 0	SP: fd
f504	f505	AND	A: 0	X: 0	Y: 0	SP: fd
f506	0	EOR	A: 0	X: 0	Y: 0	SP: fd
f508	0	CLC	A: 0	X: 0	Y: 0	SP: fd
f509	f50c	BEQ	A: 0	X: 0	Y: 0	SP: fd
f50c	18	ROR	A: 0	X: 0	Y: 0	SP: fd
f50e	19	ROR	A: 0	X: 0	Y: 0	SP: fd
f510	1a	ROR	A: 0	X: 0	Y: 0	SP: fd
f512	1b	ROR	A: 0	X: 0	Y: 0	SP: fd
f514	1c	ROR	A: 0	X: 0	Y: 0	SP: fd
f516	1d	ROR	A: 0	X: 0	Y: 0	SP: fd
f518	1e	ROR	A: 0	X: 0	Y: 0	SP: fd
f51a	1f	ROR	A: 0	X: 0	Y: 0	SP: fd
f51c	0	RTS	A: 0	X: 0	Y: 0	SP: fd
c7e4	c7e1	JMP	A: 0	X: 0	Y: 0	SP: ff
c7e1	f4fc	JSR	A: 0	X: 0	Y: 0	SP: ff
f4fc	18	LDA	A: 0	X: 0	Y: 0	SP: fd
f4fe	f4ff	AND	A: 0	X: 0	Y: 0	SP: fd
f500	0	STA	A: 0	X: 0	Y: 0	SP: fd
f502	19	LDA	A: 0	X: 0	Y: 0	SP: fd
f504	f505	AND	A: 0	X: 0	Y: 0	SP: fd
f506	0	EOR	A: 0	X: 0	Y: 0	SP: fd
f508	0	CLC	A: 0	X: 0	Y: 0	SP: fd
f509	f50c	BEQ	A: 0	X: 0	Y: 0	SP: fd
f50c	18	ROR	A: 0	X: 0	Y: 0	SP: fd
f50e	19	ROR	A: 0	X: 0	Y: 0	SP: fd
f510	1a	ROR	A: 0	X: 0	Y: 0	SP: fd
f512	1b	ROR	A: 0	X: 0	Y: 0	SP: fd
f514	1c	ROR	A: 0	X: 0	Y: 0	SP: fd
f516	1d	ROR	A: 0	X: 0	Y: 0	SP: fd
f518	1e	ROR	A: 0	X: 0	Y: 0	SP: fd
f51a	1f	ROR	A: 0	X: 0	Y: 0	SP: fd
f51c	0	RTS	A: 0	X: 0	Y: 0	SP: fd
c7e4	c7e1	JMP	A: 0	X: 0	Y: 0	SP: ff
c7e1	f4fc	JSR	A: 0	X: 0	Y: 0	SP: ff
f4fc	18	LDA	A: 0	X: 0	Y: 0	SP: fd
f4fe	f4ff	AND	A: 0	X: 0	Y: 0	SP: fd
f500	0	STA	A: 0	X: 0	Y: 0	SP: fd
f502	19	LDA	A: 0	X: 0	Y: 0	SP: fd
f504	f505	AND	A: 0	X: 0	Y: 0	SP: fd
f506	0	EOR	A: 0	X: 0	Y: 0	SP: fd
f508	0	CLC	A: 0	X: 0	Y: 0	SP: fd
f509	f50c	BEQ	A: 0	X: 0	Y: 0	SP: fd
f50c	18	ROR	A: 0	X: 0	Y: 0	SP: fd
f50e	19	ROR	A: 0	X: 0	Y: 0	SP: fd
f510	1a	ROR	A: 0	X: 0	Y: 0	SP: fd
f512	1b	ROR	A: 0	X: 0	Y: 0	SP: fd
f514	1c	ROR	A: 0	X: 0	Y: 0	SP: fd
f516	1d	ROR	A: 0	X: 0	Y: 0	SP: fd
f518	1e	ROR	A: 0	X: 0	Y: 0	SP: fd
f51a	1f	ROR	A: 0	X: 0	Y: 0	SP: fd
f51c	0	RTS	A: 0	X: 0	Y: 0	SP: fd
c7e4	c7e1	JMP	A: 0	X: 0	Y: 0	SP: ff
c7e1	f4fc	JSR	A: 0	X: 0	Y: 0	SP: ff
f4fc	18	LDA	A: 0	X: 0	Y: 0	SP: fd
f4fe	f4ff	AND	A: 0	X: 0	Y: 0	SP: fd
f500	0	STA	A: 0	X: 0	Y: 0	SP: fd
f502	19	LDA	A: 0	X: 0	Y: 0	SP: fd
f504	f505	AND	A: 0	X: 0	Y: 0	SP: fd
f506	0	EOR	A: 0	X: 0	Y: 0	SP: fd
f508	0	CLC	A: 0	X: 0	Y: 0	SP: fd
f509	f50c	BEQ	A: 0	X: 0	Y: 0	SP: fd
f50c	18	ROR	A: 0	X: 0	Y: 0	SP: fd
f50e	19	ROR	A: 0	X: 0	Y: 0	SP: fd
f510	1a	ROR	A: 0	X: 0	Y: 0	SP: fd
f512	1b	ROR	A: 0	X: 0	Y: 0	SP: fd
f514	1c	ROR	A: 0	X: 0	Y: 0	SP: fd
f516	1d	ROR	A: 0	X: 0	Y: 0	SP: fd
f518	1e	ROR	A: 0	X: 0	Y: 0	SP: fd
f51a	1f	ROR	A: 0	X: 0	Y: 0	SP: fd
f51c	0	RTS	A: 0	X: 0	Y: 0	SP: fd
c7e4	c7e1	JMP	A: 0	X: 0	Y: 0	SP: ff
c7e1	f4fc	JSR	A: 0	X: 0	Y: 0	SP: ff
f4fc	18	LDA	A: 0	X: 0	Y: 0	SP: fd
f4fe	f4ff	AND	A: 0	X: 0	Y: 0	SP: fd
f500	0	STA	A: 0	X: 0	Y: 0	SP: fd
f502	19	LDA	A: 0	X: 0	Y: 0	SP: fd
f504	f505	AND	A: 0	X: 0	Y: 0	SP: fd
f506	0	EOR	A: 0	X: 0	Y: 0	SP: fd
f508	0	CLC	A: 0	X: 0	Y: 0	SP: fd
f509	f50c	BEQ	A: 0	X: 0	Y: 0	SP: fd
f50c	18	ROR	A: 0	X: 0	Y: 0	SP: fd
f50e	19	ROR	A: 0	X: 0	Y: 0	SP: fd
f510	1a	ROR	A: 0	X: 0	Y: 0	SP: fd
f512	1b	ROR	A: 0	X: 0	Y: 0	SP: fd
f514	1c	ROR	A: 0	X: 0	Y: 0	SP: fd
f516	1d	ROR	A: 0	X: 0	Y: 0	SP: fd
f518	1e	ROR	A: 0	X: 0	Y: 0	SP: fd
f51a	1f	ROR	A: 0	X: 0	Y: 0	SP: fd
f51c	0	RTS	A: 0	X: 0	Y: 0	SP: fd
c7e4	c7e1	JMP	A: 0	X: 0	Y: 0	SP: ff
c7e1	f4fc	JSR	A: 0	X: 0	Y: 0	SP: ff
f4fc	18	LDA	A: 0	X: 0	Y: 0	SP: fd
f4fe	f4ff	AND	A: 0	X: 0	Y: 0	SP: fd
f500	0	STA	A: 0	X: 0	Y: 0	SP: fd
f502	19	LDA	A: 0	X: 0	Y: 0	SP: fd
f504	f505	AND	A: 0	X: 0	Y: 0	SP: fd
f506	0	EOR	A: 0	X: 0	Y: 0	SP: fd
f508	0	CLC	A: 0	X: 0	Y: 0	SP: fd
f509	f50c	BEQ	A: 0	X: 0	Y: 0	SP: fd
f50c	18	ROR	A: 0	X: 0	Y: 0	SP: fd
f50e	19	ROR	A: 0	X: 0	Y: 0	SP: fd
f510	1a	ROR	A: 0	X: 0	Y: 0	SP: fd
f512	1b	ROR	A: 0	X: 0	Y: 0	SP: fd
f514	1c	ROR	A: 0	X: 0	Y: 0	SP: fd
f516	1d	ROR	A: 0	X: 0	Y: 0	SP: fd
f518	1e	ROR	A: 0	X: 0	Y: 0	SP: fd
f51a	1f	ROR	A: 0	X: 0	Y: 0	SP: fd
f51c	0	RTS	A: 0	X: 0	Y: 0	SP: fd
c7e4	c7e1	JMP	A: 0	X: 0	Y: 0	SP: ff
c7e1	f4fc	JSR	A: 0	X: 0	Y: 0	SP: ff
f4fc	18	LDA	A: 0	X: 0	Y: 0	SP: fd
f4fe	f4ff	AND	A: 0	X: 0	Y: 0	SP: fd
f500	0	STA	A: 0	X: 0	Y: 0	SP: fd
f502	19	LDA	A: 0	X: 0	Y: 0	SP: fd
f504	f505	AND	A: 0	X: 0	Y: 0	SP: fd
f506	0	EOR	A: 0	X: 0	Y: 0	SP: fd
f508	0	CLC	A: 0	X: 0	Y: 0	SP: fd
f509	f50c	BEQ	A: 0	X: 0	Y: 0	SP: fd
f50c	18	ROR	A: 0	X: 0	Y: 0	SP: fd
f50e	19	ROR	A: 0	X: 0	Y: 0	SP: fd
f510	1a	ROR	A: 0	X: 0	Y: 0	SP: fd
f512	1b	ROR	A: 0	X: 0	Y: 0	SP: fd
f514	1c	ROR	A: 0	X: 0	Y: 0	SP: fd
f516	1d	ROR	A: 0	X: 0	Y: 0	SP: fd
f518	1e	ROR	A: 0	X: 0	Y: 0	SP: fd
f51a	1f	ROR	A: 0	X: 0	Y: 0	SP: fd
f51c	0	RTS	A: 0	X: 0	Y: 0	SP: fd
c7e4	c7e1	JMP	A: 0	X: 0	Y: 0	SP: ff
c7e1	f4fc	JSR	A: 0	X: 0	Y: 0	SP: ff
f4fc	18	LDA	A: 0	X: 0	Y: 0	SP: fd
f4fe	f4ff	AND	A: 0	X: 0	Y: 0	SP: fd
f500	0	STA	A: 0	X: 0	Y: 0	SP: fd
f502	19	LDA	A: 0	X: 0	Y: 0	SP: fd
f504	f505	AND	A: 0	X: 0	Y: 0	SP: fd
f506	0	EOR	A: 0	X: 0	Y: 0	SP: fd
f508	0	CLC	A: 0	X: 0	Y: 0	SP: fd
f509	f50c	BEQ	A: 0	X: 0	Y: 0	SP: fd
f50c	18	ROR	A: 0	X: 0	Y: 0	SP: fd
f50e	19	ROR	A: 0	X: 0	Y: 0	SP: fd
f510	1a	ROR	A: 0	X: 0	Y: 0	SP: fd
f512	1b	ROR	A: 0	X: 0	Y: 0	SP: fd
f514	1c	ROR	A: 0	X: 0	Y: 0	SP: fd
f516	1d	ROR	A: 0	X: 0	Y: 0	SP: fd
f518	1e	ROR	A: 0	X: 0	Y: 0	SP: fd
f51a	1f	ROR	A: 0	X: 0	Y: 0	SP: fd
f51c	0	RTS	A: 0	X: 0	Y: 0	SP: fd
c7e4	c7e1	JMP	A: 0	X: 0	Y: 0	SP: ff
c7e1	f4fc	JSR	A: 0	X: 0	Y: 0	SP: ff
f4fc	18	LDA	A: 0	X: 0	Y: 0	SP: fd
f4fe	f4ff	AND	A: 0	X: 0	Y: 0	SP: fd
f500	0	STA	A: 0	X: 0	Y: 0	SP: fd
f502	19	LDA	A: 0	X: 0	Y: 0	SP: fd
f504	f505	AND	A: 0	X: 0	Y: 0	SP: fd
f506	0	EOR	A: 0	X: 0	Y: 0	SP: fd
f508	0	CLC	A: 0	X: 0	Y: 0	SP: fd
f509	f50c	BEQ	A: 0	X: 0	Y: 0	SP: fd
f50c	18	ROR	A: 0	X: 0	Y: 0	SP: fd
f50e	19	ROR	A: 0	X: 0	Y: 0	SP: fd
f510	1a	ROR	A: 0	X: 0	Y: 0	SP: fd
f512	1b	ROR	A: 0	X: 0	Y: 0	SP: fd
f514	1c	ROR	A: 0	X: 0	Y: 0	SP: fd
f516	1d	ROR	A: 0	X: 0	Y: 0	SP: fd
f518	1e	ROR	A: 0	X: 0	Y: 0	SP: fd
f51a	1f	ROR	A: 0	X: 0	Y: 0	SP: fd
f51c	0	RTS	A: 0	X: 0	Y: 0	SP: fd
c7e4	c7e1	JMP	A: 0	X: 0	Y: 0	SP: ff
c7e1	f4fc	JSR	A: 0	X: 0	Y: 0	SP: ff
f4fc	18	LDA	A: 0	X: 0	Y: 0	SP: fd
f4fe	f4ff	AND	A: 0	X: 0	Y: 0	SP: fd
f500	0	STA	A: 0	X: 0	Y: 0	SP: fd
f502	19	LDA	A: 0	X: 0	Y: 0	SP: fd
f504	f505	AND	A: 0	X: 0	Y: 0	SP: fd
f506	0	EOR	A: 0	X: 0	Y: 0	SP: fd
f508	0	CLC	A: 0	X: 0	Y: 0	SP: fd
f509	f50c	BEQ	A: 0	X: 0	Y: 0	SP: fd
f50c	18	ROR	A: 0	X: 0	Y: 0	SP: fd
f50e	19	ROR	A: 0	X: 0	Y: 0	SP: fd
f510	1a	ROR	A: 0	X: 0	Y: 0	SP: fd
f512	1b	ROR	A: 0	X: 0	Y: 0	SP: fd
f514	1c	ROR	A: 0	X: 0	Y: 0	SP: fd
f516	1d	ROR	A: 0	X: 0	Y: 0	SP: fd
f518	1e	ROR	A: 0	X: 0	Y: 0	SP: fd
f51a	1f	ROR	A: 0	X: 0	Y: 0	SP: fd
f51c	0	RTS	A: 0	X: 0	Y: 0	SP: fd
c7e4	c7e1	JMP	A: 0	X: 0	Y: 0	SP: ff
c7e1	f4fc	JSR	A: 0	X: 0	Y: 0	SP: ff
f4fc	18	LDA	A: 0	X: 0	Y: 0	SP: fd
f4fe	f4ff	AND	A: 0	X: 0	Y: 0	SP: fd
f500	0	STA	A: 0	X: 0	Y: 0	SP: fd
f502	19	LDA	A: 0	X: 0	Y: 0	SP: fd
f504	f505	AND	A: 0	X: 0	Y: 0	SP: fd
f506	0	EOR	A: 0	X: 0	Y: 0	SP: fd
f508	0	CLC	A: 0	X: 0	Y: 0	SP: fd
f509	f50c	BEQ	A: 0	X: 0	Y: 0	SP: fd
f50c	18	ROR	A: 0	X: 0	Y: 0	SP: fd
f50e	19	ROR	A: 0	X: 0	Y: 0	SP: fd
f510	1a	ROR	A: 0	X: 0	Y: 0	SP: fd
f512	1b	ROR	A: 0	X: 0	Y: 0	SP: fd
f514	1c	ROR	A: 0	X: 0	Y: 0	SP: fd
f516	1d	ROR	A: 0	X: 0	Y: 0	SP: fd
f518	1e	ROR	A: 0	X: 0	Y: 0	SP: fd
f51a	1f	ROR	A: 0	X: 0	Y: 0	SP: fd
f51c	0	RTS	A: 0	X: 0	Y: 0	SP: fd
c7e4	c7e1	JMP	A: 0	X: 0	Y: 0	SP: ff
c7e1	f4fc	JSR	A: 0	X: 0	Y: 0	SP: ff
f4fc	18	LDA	A: 0	X: 0	Y: 0	SP: fd
f4fe	f4ff	AND	A: 0	X: 0	Y: 0	SP: fd
f500	0	STA	A: 0	X: 0	Y: 0	SP: fd
f502	19	LDA	A: 0	X: 0	Y: 0	SP: fd
f504	f505	AND	A: 0	X: 0	Y: 0	SP: fd
f506	0	EOR	A: 0	X: 0	Y: 0	SP: fd
f508	0	CLC	A: 0	X: 0	Y: 0	SP: fd
f509	f50c	BEQ	A: 0	X: 0	Y: 0	SP: fd
f50c	18	ROR	A: 0	X: 0	Y: 0	SP: fd
f50e	19	ROR	A: 0	X: 0	Y: 0	SP: fd
f510	1a	ROR	A: 0	X: 0	Y: 0	SP: fd
f512	1b	ROR	A: 0	X: 0	Y: 0	SP: fd
f514	1c	ROR	A: 0	X: 0	Y: 0	SP: fd
f516	1d	ROR	A: 0	X: 0	Y: 0	SP: fd
f518	1e	ROR	A: 0	X: 0	Y: 0	SP: fd
f51a	1f	ROR	A: 0	X: 0	Y: 0	SP: fd
f51c	0	RTS	A: 0	X: 0	Y: 0	SP: fd
c7e4	c7e1	JMP	A: 0	X: 0	Y: 0	SP: ff
c7e1	f4fc	JSR	A: 0	X: 0	Y: 0	SP: ff
f4fc	18	LDA	A: 0	X: 0	Y: 0	SP: fd
f4fe	f4ff	AND	A: 0	X: 0	Y: 0	SP: fd
f500	0	STA	A: 0	X: 0	Y: 0	SP: fd
f502	19	LDA	A: 0	X: 0	Y: 0	SP: fd
f504	f505	AND	A: 0	X: 0	Y: 0	SP: fd
f506	0	EOR	A: 0	X: 0	Y: 0	SP: fd
f508	0	CLC	A: 0	X: 0	Y: 0	SP: fd
f509	f50c	BEQ	A: 0	X: 0	Y: 0	SP: fd
f50c	18	ROR	A: 0	X: 0	Y: 0	SP: fd
f50e	19	ROR	A: 0	X: 0	Y: 0	SP: fd
f510	1a	ROR	A: 0	X: 0	Y: 0	SP: fd
f512	1b	ROR	A: 0	X: 0	Y: 0	SP: fd
f514	1c	ROR	A: 0	X: 0	Y: 0	SP: fd
f516	1d	ROR	A: 0	X: 0	Y: 0	SP: fd
f518	1e	ROR	A: 0	X: 0	Y: 0	SP: fd
f51a	1f	ROR	A: 0	X: 0	Y: 0	SP: fd
f51c	0	RTS	A: 0	X: 0	Y: 0	SP: fd
c7e4	c7e1	JMP	A: 0	X: 0	Y: 0	SP: ff
c7e1	f4fc	JSR	A: 0	X: 0	Y: 0	SP: ff
f4fc	18	LDA	A: 0	X: 0	Y: 0	SP: fd
f4fe	f4ff	AND	A: 0	X: 0	Y: 0	SP: fd
f500	0	STA	A: 0	X: 0	Y: 0	SP: fd
f502	19	LDA	A: 0	X: 0	Y: 0	SP: fd
f504	f505	AND	A: 0	X: 0	Y: 0	SP: fd
f506	0	EOR	A: 0	X: 0	Y: 0	SP: fd
f508	0	CLC	A: 0	X: 0	Y: 0	SP: fd
f509	f50c	BEQ	A: 0	X: 0	Y: 0	SP: fd
f50c	18	ROR	A: 0	X: 0	Y: 0	SP: fd
f50e	19	ROR	A: 0	X: 0	Y: 0	SP: fd
f510	1a	ROR	A: 0	X: 0	Y: 0	SP: fd
f512	1b	ROR	A: 0	X: 0	Y: 0	SP: fd
f514	1c	ROR	A: 0	X: 0	Y: 0	SP: fd
f516	1d	ROR	A: 0	X: 0	Y: 0	SP: fd
f518	1e	ROR	A: 0	X: 0	Y: 0	SP: fd
f51a	1f	ROR	A: 0	X: 0	Y: 0	SP: fd
f51c	0	RTS	A: 0	X: 0	Y: 0	SP: fd
c7e4	c7e1	JMP	A: 0	X: 0	Y: 0	SP: ff
c7e1	f4fc	JSR	A: 0	X: 0	Y: 0	SP: ff
f4fc	18	LDA	A: 0	X: 0	Y: 0	SP: fd
f4fe	f4ff	AND	A: 0	X: 0	Y: 0	SP: fd
f500	0	STA	A: 0	X: 0	Y: 0	SP: fd
f502	19	LDA	A: 0	X: 0	Y: 0	SP: fd
f504	f505	AND	A: 0	X: 0	Y: 0	SP: fd
f506	0	EOR	A: 0	X: 0	Y: 0	SP: fd
f508	0	CLC	A: 0	X: 0	Y: 0	SP: fd
f509	f50c	BEQ	A: 0	X: 0	Y: 0	SP: fd
f50c	18	ROR	A: 0	X: 0	Y: 0	SP: fd
f50e	19	ROR	A: 0	X: 0	Y: 0	SP: fd
f510	1a	ROR	A: 0	X: 0	Y: 0	SP: fd
f512	1b	ROR	A: 0	X: 0	Y: 0	SP: fd
f514	1c	ROR	A: 0	X: 0	Y: 0	SP: fd
f516	1d	ROR	A: 0	X: 0	Y: 0	SP: fd
f518	1e	ROR	A: 0	X: 0	Y: 0	SP: fd
f51a	1f	ROR	A: 0	X: 0	Y: 0	SP: fd
f51c	0	RTS	A: 0	X: 0	Y: 0	SP: fd
c7e4	c7e1	JMP	A: 0	X: 0	Y: 0	SP: ff
c7e1	f4fc	JSR	A: 0	X: 0	Y: 0	SP: ff
f4fc	18	LDA	A: 0	X: 0	Y: 0	SP: fd
f4fe	f4ff	AND	A: 0	X: 0	Y: 0	SP: fd
f500	0	STA	A: 0	X: 0	Y: 0	SP: fd
f502	19	LDA	A: 0	X: 0	Y: 0	SP: fd
f504	f505	AND	A: 0	X: 0	Y: 0	SP: fd
f506	0	EOR	A: 0	X: 0	Y: 0	SP: fd
f508	0	CLC	A: 0	X: 0	Y: 0	SP: fd
f509	f50c	BEQ	A: 0	X: 0	Y: 0	SP: fd
f50c	18	ROR	A: 0	X: 0	Y: 0	SP: fd
f50e	19	ROR	A: 0	X: 0	Y: 0	SP: fd
f510	1a	ROR	A: 0	X: 0	Y: 0	SP: fd
f512	1b	ROR	A: 0	X: 0	Y: 0	SP: fd
f514	1c	ROR	A: 0	X: 0	Y: 0	SP: fd
f516	1d	ROR	A: 0	X: 0	Y: 0	SP: fd
f518	1e	ROR	A: 0	X: 0	Y: 0	SP: fd
f51a	1f	ROR	A: 0	X: 0	Y: 0	SP: fd
f51c	0	RTS	A: 0	X: 0	Y: 0	SP: fd
c7e4	c7e1	JMP	A: 0	X: 0	Y: 0	SP: ff
c7e1	f4fc	JSR	A: 0	X: 0	Y: 0	SP: ff
f4fc	18	LDA	A: 0	X: 0	Y: 0	SP: fd
f4fe	f4ff	AND	A: 0	X: 0	Y: 0	SP: fd
f500	0	STA	A: 0	X: 0	Y: 0	SP: fd
f502	19	LDA	A: 0	X: 0	Y: 0	SP: fd
f504	f505	AND	A: 0	X: 0	Y: 0	SP: fd
f506	0	EOR	A: 0	X: 0	Y: 0	SP: fd
f508	0	CLC	A: 0	X: 0	Y: 0	SP: fd
f509	f50c	BEQ	A: 0	X: 0	Y: 0	SP: fd
f50c	18	ROR	A: 0	X: 0	Y: 0	SP: fd
f50e	19	ROR	A: 0	X: 0	Y: 0	SP: fd
f510	1a	ROR	A: 0	X: 0	Y: 0	SP: fd
f512	1b	ROR	A: 0	X: 0	Y: 0	SP: fd
f514	1c	ROR	A: 0	X: 0	Y: 0	SP: fd
f516	1d	ROR	A: 0	X: 0	Y: 0	SP: fd
f518	1e	ROR	A: 0	X: 0	Y: 0	SP: fd
f51a	1f	ROR	A: 0	X: 0	Y: 0	SP: fd
f51c	0	RTS	A: 0	X: 0	Y: 0	SP: fd
c7e4	c7e1	JMP	A: 0	X: 0	Y: 0	SP: ff
c7e1	f4fc	JSR	A: 0	X: 0	Y: 0	SP: ff
f4fc	18	LDA	A: 0	X: 0	Y: 0	SP: fd
f4fe	f4ff	AND	A: 0	X: 0	Y: 0	SP: fd
f500	0	STA	A: 0	X: 0	Y: 0	SP: fd
f502	19	LDA	A: 0	X: 0	Y: 0	SP: fd
f504	f505	AND	A: 0	X: 0	Y: 0	SP: fd
f506	0	EOR	A: 0	X: 0	Y: 0	SP: fd
f508	0	CLC	A: 0	X: 0	Y: 0	SP: fd
f509	f50c	BEQ	A: 0	X: 0	Y: 0	SP: fd
f50c	18	ROR	A: 0	X: 0	Y: 0	SP: fd
f50e	19	ROR	A: 0	X: 0	Y: 0	SP: fd
f510	1a	ROR	A: 0	X: 0	Y: 0	SP: fd
f512	1b	ROR	A: 0	X: 0	Y: 0	SP: fd
f514	1c	ROR	A: 0	X: 0	Y: 0	SP: fd
f516	1d	ROR	A: 0	X: 0	Y: 0	SP: fd
f518	1e	ROR	A: 0	X: 0	Y: 0	SP: fd
f51a	1f	ROR	A: 0	X: 0	Y: 0	SP: fd
f51c	0	RTS	A: 0	X: 0	Y: 0	SP: fd
c7e4	c7e1	JMP	A: 0	X: 0	Y: 0	SP: ff
c7e1	f4fc	JSR	A: 0	X: 0	Y: 0	SP: ff
f4fc	18	LDA	A: 0	X: 0	Y: 0	SP: fd
f4fe	f4ff	AND	A: 0	X: 0	Y: 0	SP: fd
f500	0	STA	A: 0	X: 0	Y: 0	SP: fd
f502	19	LDA	A: 0	X: 0	Y: 0	SP: fd
f504	f505	AND	A: 0	X: 0	Y: 0	SP: fd
f506	0	EOR	A: 0	X: 0	Y: 0	SP: fd
f508	0	CLC	A: 0	X: 0	Y: 0	SP: fd
f509	f50c	BEQ	A: 0	X: 0	Y: 0	SP: fd
f50c	18	ROR	A: 0	X: 0	Y: 0	SP: fd
f50e	19	ROR	A: 0	X: 0	Y: 0	SP: fd
f510	1a	ROR	A: 0	X: 0	Y: 0	SP: fd
f512	1b	ROR	A: 0	X: 0	Y: 0	SP: fd
f514	1c	ROR	A: 0	X: 0	Y: 0	SP: fd
f516	1d	ROR	A: 0	X: 0	Y: 0	SP: fd
f518	1e	ROR	A: 0	X: 0	Y: 0	SP: fd
f51a	1f	ROR	A: 0	X: 0	Y: 0	SP: fd
f51c	0	RTS	A: 0	X: 0	Y: 0	SP: fd
c7e4	c7e1	JMP	A: 0	X: 0	Y: 0	SP: ff
c7e1	f4fc	JSR	A: 0	X: 0	Y: 0	SP: ff
f4fc	18	LDA	A: 0	X: 0	Y: 0	SP: fd
f4fe	f4ff	AND	A: 0	X: 0	Y: 0	SP: fd
f500	0	STA	A: 0	X: 0	Y: 0	SP: fd
f502	19	LDA	A: 0	X: 0	Y: 0	SP: fd
f504	f505	AND	A: 0	X: 0	Y: 0	SP: fd
f506	0	EOR	A: 0	X: 0	Y: 0	SP: fd
f508	0	CLC	A: 0	X: 0	Y: 0	SP: fd
f509	f50c	BEQ	A: 0	X: 0	Y: 0	SP: fd
f50c	18	ROR	A: 0	X: 0	Y: 0	SP: fd
f50e	19	ROR	A: 0	X: 0	Y: 0	SP: fd
f510	1a	ROR	A: 0	X: 0	Y: 0	SP: fd
f512	1b	ROR	A: 0	X: 0	Y: 0	SP: fd
f514	1c	ROR	A: 0	X: 0	Y: 0	SP: fd
f516	1d	ROR	A: 0	X: 0	Y: 0	SP: fd
f518	1e	ROR	A: 0	X: 0	Y: 0	SP: fd
f51a	1f	ROR	A: 0	X: 0	Y: 0	SP: fd
f51c	0	RTS	A: 0	X: 0	Y: 0	SP: fd
c7e4	c7e1	JMP	A: 0	X: 0	Y: 0	SP: ff
c7e1	f4fc	JSR	A: 0	X: 0	Y: 0	SP: ff
f4fc	18	LDA	A: 0	X: 0	Y: 0	SP: fd
f4fe	f4ff	AND	A: 0	X: 0	Y: 0	SP: fd
f500	0	STA	A: 0	X: 0	Y: 0	SP: fd
f502	19	LDA	A: 0	X: 0	Y: 0	SP: fd
f504	f505	AND	A: 0	X: 0	Y: 0	SP: fd
f506	0	EOR	A: 0	X: 0	Y: 0	SP: fd
f508	0	CLC	A: 0	X: 0	Y: 0	SP: fd
f509	f50c	BEQ	A: 0	X: 0	Y: 0	SP: fd
f50c	18	ROR	A: 0	X: 0	Y: 0	SP: fd
f50e	19	ROR	A: 0	X: 0	Y: 0	SP: fd
f510	1a	ROR	A: 0	X: 0	Y: 0	SP: fd
f512	1b	ROR	A: 0	X: 0	Y: 0	SP: fd
f514	1c	ROR	A: 0	X: 0	Y: 0	SP: fd
f516	1d	ROR	A: 0	X: 0	Y: 0	SP: fd
f518	1e	ROR	A: 0	X: 0	Y: 0	SP: fd
f51a	1f	ROR	A: 0	X: 0	Y: 0	SP: fd
f51c	0	RTS	A: 0	X: 0	Y: 0	SP: fd
c7e4	c7e1	JMP	A: 0	X: 0	Y: 0	SP: ff
c7e1	f4fc	JSR	A: 0	X: 0	Y: 0	SP: ff
f4fc	18	LDA	A: 0	X: 0	Y: 0	SP: fd
f4fe	f4ff	AND	A: 0	X: 0	Y: 0	SP: fd
f500	0	STA	A: 0	X: 0	Y: 0	SP: fd
f502	19	LDA	A: 0	X: 0	Y: 0	SP: fd
f504	f505	AND	A: 0	X: 0	Y: 0	SP: fd
f506	0	EOR	A: 0	X: 0	Y: 0	SP: fd
f508	0	CLC	A: 0	X: 0	Y: 0	SP: fd
f509	f50c	BEQ	A: 0	X: 0	Y: 0	SP: fd
f50c	18	ROR	A: 0	X: 0	Y: 0	SP: fd
f50e	19	ROR	A: 0	X: 0	Y: 0	SP: fd
f510	1a	ROR	A: 0	X: 0	Y: 0	SP: fd
f512	1b	ROR	A: 0	X: 0	Y: 0	SP: fd
f514	1c	ROR	A: 0	X: 0	Y: 0	SP: fd
f516	1d	ROR	A: 0	X: 0	Y: 0	SP: fd
f518	1e	ROR	A: 0	X: 0	Y: 0	SP: fd
f51a	1f	ROR	A: 0	X: 0	Y: 0	SP: fd
f51c	0	RTS	A: 0	X: 0	Y: 0	SP: fd
c7e4	c7e1	JMP	A: 0	X: 0	Y: 0	SP: ff
c7e1	f4fc	JSR	A: 0	X: 0	Y: 0	SP: ff
f4fc	18	LDA	A: 0	X: 0	Y: 0	SP: fd
f4fe	f4ff	AND	A: 0	X: 0	Y: 0	SP: fd
f500	0	STA	A: 0	X: 0	Y: 0	SP: fd
f502	19	LDA	A: 0	X: 0	Y: 0	SP: fd
f504	f505	AND	A: 0	X: 0	Y: 0	SP: fd
f506	0	EOR	A: 0	X: 0	Y: 0	SP: fd
f508	0	CLC	A: 0	X: 0	Y: 0	SP: fd
f509	f50c	BEQ	A: 0	X: 0	Y: 0	SP: fd
f50c	18	ROR	A: 0	X: 0	Y: 0	SP: fd
f50e	19	ROR	A: 0	X: 0	Y: 0	SP: fd
f510	1a	ROR	A: 0	X: 0	Y: 0	SP: fd
f512	1b	ROR	A: 0	X: 0	Y: 0	SP: fd
f514	1c	ROR	A: 0	X: 0	Y: 0	SP: fd
f516	1d	ROR	A: 0	X: 0	Y: 0	SP: fd
f518	1e	ROR	A: 0	X: 0	Y: 0	SP: fd
f51a	1f	ROR	A: 0	X: 0	Y: 0	SP: fd
f51c	0	RTS	A: 0	X: 0	Y: 0	SP: fd
c7e4	c7e1	JMP	A: 0	X: 0	Y: 0	SP: ff
c7e1	f4fc	JSR	A: 0	X: 0	Y: 0	SP: ff
f4fc	18	LDA	A: 0	X: 0	Y: 0	SP: fd
f4fe	f4ff	AND	A: 0	X: 0	Y: 0	SP: fd
f500	0	STA	A: 0	X: 0	Y: 0	SP: fd
f502	19	LDA	A: 0	X: 0	Y: 0	SP: fd
f504	f505	AND	A: 0	X: 0	Y: 0	SP: fd
f506	0	EOR	A: 0	X: 0	Y: 0	SP: fd
f508	0	CLC	A: 0	X: 0	Y: 0	SP: fd
f509	f50c	BEQ	A: 0	X: 0	Y: 0	SP: fd
f50c	18	ROR	A: 0	X: 0	Y: 0	SP: fd
f50e	19	ROR	A: 0	X: 0	Y: 0	SP: fd
f510	1a	ROR	A: 0	X: 0	Y: 0	SP: fd
f512	1b	ROR	A: 0	X: 0	Y: 0	SP: fd
f514	1c	ROR	A: 0	X: 0	Y: 0	SP: fd
f516	1d	ROR	A: 0	X: 0	Y: 0	SP: fd
f518	1e	ROR	A: 0	X: 0	Y: 0	SP: fd
f51a	1f	ROR	A: 0	X: 0	Y: 0	SP: fd
f51c	0	RTS	A: 0	X: 0	Y: 0	SP: fd
c7e4	c7e1	JMP	A: 0	X: 0	Y: 0	SP: ff
c7e1	f4fc	JSR	A: 0	X: 0	Y: 0	SP: ff
f4fc	18	LDA	A: 0	X: 0	Y: 0	SP: fd
f4fe	f4ff	AND	A: 0	X: 0	Y: 0	SP: fd
f500	0	STA	A: 0	X: 0	Y: 0	SP: fd
f502	19	LDA	A: 0	X: 0	Y: 0	SP: fd
f504	f505	AND	A: 0	X: 0	Y: 0	SP: fd
f506	0	EOR	A: 0	X: 0	Y: 0	SP: fd
f508	0	CLC	A: 0	X: 0	Y: 0	SP: fd
f509	f50c	BEQ	A: 0	X: 0	Y: 0	SP: fd
f50c	18	ROR	A: 0	X: 0	Y: 0	SP: fd
f50e	19	ROR	A: 0	X: 0	Y: 0	SP: fd
f510	1a	ROR	A: 0	X: 0	Y: 0	SP: fd
f512	1b	ROR	A: 0	X: 0	Y: 0	SP: fd
f514	1c	ROR	A: 0	X: 0	Y: 0	SP: fd
f516	1d	ROR	A: 0	X: 0	Y: 0	SP: fd
f518	1e	ROR	A: 0	X: 0	Y: 0	SP: fd
f51a	1f	ROR	A: 0	X: 0	Y: 0	SP: fd
f51c	0	RTS	A: 0	X: 0	Y: 0	SP: fd
c7e4	c7e1	JMP	A: 0	X: 0	Y: 0	SP: ff
c7e1	f4fc	JSR	A: 0	X: 0	Y: 0	SP: ff
f4fc	18	LDA	A: 0	X: 0	Y: 0	SP: fd
f4fe	f4ff	AND	A: 0	X: 0	Y: 0	SP: fd
f500	0	STA	A: 0	X: 0	Y: 0	SP: fd
f502	19	LDA	A: 0	X: 0	Y: 0	SP: fd
f504	f505	AND	A: 0	X: 0	Y: 0	SP: fd
f506	0	EOR	A: 0	X: 0	Y: 0	SP: fd
f508	0	CLC	A: 0	X: 0	Y: 0	SP: fd
f509	f50c	BEQ	A: 0	X: 0	Y: 0	SP: fd
f50c	18	ROR	A: 0	X: 0	Y: 0	SP: fd
f50e	19	ROR	A: 0	X: 0	Y: 0	SP: fd
f510	1a	ROR	A: 0	X: 0	Y: 0	SP: fd
f512	1b	ROR	A: 0	X: 0	Y: 0	SP: fd
f514	1c	ROR	A: 0	X: 0	Y: 0	SP: fd
f516	1d	ROR	A: 0	X: 0	Y: 0	SP: fd
f518	1e	ROR	A: 0	X: 0	Y: 0	SP: fd
f51a	1f	ROR	A: 0	X: 0	Y: 0	SP: fd
f51c	0	RTS	A: 0	X: 0	Y: 0	SP: fd
c7e4	c7e1	JMP	A: 0	X: 0	Y: 0	SP: ff
c7e1	f4fc	JSR	A: 0	X: 0	Y: 0	SP: ff
f4fc	18	LDA	A: 0	X: 0	Y: 0	SP: fd
f4fe	f4ff	AND	A: 0	X: 0	Y: 0	SP: fd
f500	0	STA	A: 0	X: 0	Y: 0	SP: fd
f502	19	LDA	A: 0	X: 0	Y: 0	SP: fd
f504	f505	AND	A: 0	X: 0	Y: 0	SP: fd
f506	0	EOR	A: 0	X: 0	Y: 0	SP: fd
f508	0	CLC	A: 0	X: 0	Y: 0	SP: fd
f509	f50c	BEQ	A: 0	X: 0	Y: 0	SP: fd
f50c	18	ROR	A: 0	X: 0	Y: 0	SP: fd
f50e	19	ROR	A: 0	X: 0	Y: 0	SP: fd
f510	1a	ROR	A: 0	X: 0	Y: 0	SP: fd
f512	1b	ROR	A: 0	X: 0	Y: 0	SP: fd
f514	1c	ROR	A: 0	X: 0	Y: 0	SP: fd
f516	1d	ROR	A: 0	X: 0	Y: 0	SP: fd
f518	1e	ROR	A: 0	X: 0	Y: 0	SP: fd
f51a	1f	ROR	A: 0	X: 0	Y: 0	SP: fd
f51c	0	RTS	A: 0	X: 0	Y: 0	SP: fd
c7e4	c7e1	JMP	A: 0	X: 0	Y: 0	SP: ff
c7e1	f4fc	JSR	A: 0	X: 0	Y: 0	SP: ff
f4fc	18	LDA	A: 0	X: 0	Y: 0	SP: fd
f4fe	f4ff	AND	A: 0	X: 0	Y: 0	SP: fd
f500	0	STA	A: 0	X: 0	Y: 0	SP: fd
f502	19	LDA	A: 0	X: 0	Y: 0	SP: fd
f504	f505	AND	A: 0	X: 0	Y: 0	SP: fd
f506	0	EOR	A: 0	X: 0	Y: 0	SP: fd
f508	0	CLC	A: 0	X: 0	Y: 0	SP: fd
f509	f50c	BEQ	A: 0	X: 0	Y: 0	SP: fd
f50c	18	ROR	A: 0	X: 0	Y: 0	SP: fd
f50e	19	ROR	A: 0	X: 0	Y: 0	SP: fd
f510	1a	ROR	A: 0	X: 0	Y: 0	SP: fd
f512	1b	ROR	A: 0	X: 0	Y: 0	SP: fd
f514	1c	ROR	A: 0	X: 0	Y: 0	SP: fd
f516	1d	ROR	A: 0	X: 0	Y: 0	SP: fd
f518	1e	ROR	A: 0	X: 0	Y: 0	SP: fd
f51a	1f	ROR	A: 0	X: 0	Y: 0	SP: fd
f51c	0	RTS	A: 0	X: 0	Y: 0	SP: fd
c7e4	c7e1	JMP	A: 0	X: 0	Y: 0	SP: ff
c7e1	f4fc	JSR	A: 0	X: 0	Y: 0	SP: ff
f4fc	18	LDA	A: 0	X: 0	Y: 0	SP: fd
f4fe	f4ff	AND	A: 0	X: 0	Y: 0	SP: fd
f500	0	STA	A: 0	X: 0	Y: 0	SP: fd
f502	19	LDA	A: 0	X: 0	Y: 0	SP: fd
f504	f505	AND	A: 0	X: 0	Y: 0	SP: fd
f506	0	EOR	A: 0	X: 0	Y: 0	SP: fd
f508	0	CLC	A: 0	X: 0	Y: 0	SP: fd
f509	f50c	BEQ	A: 0	X: 0	Y: 0	SP: fd
f50c	18	ROR	A: 0	X: 0	Y: 0	SP: fd
f50e	19	ROR	A: 0	X: 0	Y: 0	SP: fd
f510	1a	ROR	A: 0	X: 0	Y: 0	SP: fd
f512	1b	ROR	A: 0	X: 0	Y: 0	SP: fd
f514	1c	ROR	A: 0	X: 0	Y: 0	SP: fd
f516	1d	ROR	A: 0	X: 0	Y: 0	SP: fd
f518	1e	ROR	A: 0	X: 0	Y: 0	SP: fd
f51a	1f	ROR	A: 0	X: 0	Y: 0	SP: fd
f51c	0	RTS	A: 0	X: 0	Y: 0	SP: fd
c7e4	c7e1	JMP	A: 0	X: 0	Y: 0	SP: ff
c7e1	f4fc	JSR	A: 0	X: 0	Y: 0	SP: ff
f4fc	18	LDA	A: 0	X: 0	Y: 0	SP: fd
f4fe	f4ff	AND	A: 0	X: 0	Y: 0	SP: fd
f500	0	STA	A: 0	X: 0	Y: 0	SP: fd
f502	19	LDA	A: 0	X: 0	Y: 0	SP: fd
f504	f505	AND	A: 0	X: 0	Y: 0	SP: fd
f506	0	EOR	A: 0	X: 0	Y: 0	SP: fd
f508	0	CLC	A: 0	X: 0	Y: 0	SP: fd
f509	f50c	BEQ	A: 0	X: 0	Y: 0	SP: fd
f50c	18	ROR	A: 0	X: 0	Y: 0	SP: fd
f50e	19	ROR	A: 0	X: 0	Y: 0	SP: fd
f510	1a	ROR	A: 0	X: 0	Y: 0	SP: fd
f512	1b	ROR	A: 0	X: 0	Y: 0	SP: fd
f514	1c	ROR	A: 0	X: 0	Y: 0	SP: fd
f516	1d	ROR	A: 0	X: 0	Y: 0	SP: fd
f518	1e	ROR	A: 0	X: 0	Y: 0	SP: fd
f51a	1f	ROR	A: 0	X: 0	Y: 0	SP: fd
f51c	0	RTS	A: 0	X: 0	Y: 0	SP: fd
c7e4	c7e1	JMP	A: 0	X: 0	Y: 0	SP: ff
c7e1	f4fc	JSR	A: 0	X: 0	Y: 0	SP: ff
f4fc	18	LDA	A: 0	X: 0	Y: 0	SP: fd
f4fe	f4ff	AND	A: 0	X: 0	Y: 0	SP: fd
f500	0	STA	A: 0	X: 0	Y: 0	SP: fd
f502	19	LDA	A: 0	X: 0	Y: 0	SP: fd
f504	f505	AND	A: 0	X: 0	Y: 0	SP: fd
f506	0	EOR	A: 0	X: 0	Y: 0	SP: fd
f508	0	CLC	A: 0	X: 0	Y: 0	SP: fd
f509	f50c	BEQ	A: 0	X: 0	Y: 0	SP: fd
f50c	18	ROR	A: 0	X: 0	Y: 0	SP: fd
f50e	19	ROR	A: 0	X: 0	Y: 0	SP: fd
f510	1a	ROR	A: 0	X: 0	Y: 0	SP: fd
f512	1b	ROR	A: 0	X: 0	Y: 0	SP: fd
f514	1c	ROR	A: 0	X: 0	Y: 0	SP: fd
f516	1d	ROR	A: 0	X: 0	Y: 0	SP: fd
f518	1e	ROR	A: 0	X: 0	Y: 0	SP: fd
f51a	1f	ROR	A: 0	X: 0	Y: 0	SP: fd
f51c	0	RTS	A: 0	X: 0	Y: 0	SP: fd
c7e4	c7e1	JMP	A: 0	X: 0	Y: 0	SP: ff
c7e1	f4fc	JSR	A: 0	X: 0	Y: 0	SP: ff
f4fc	18	LDA	A: 0	X: 0	Y: 0	SP: fd
f4fe	f4ff	AND	A: 0	X: 0	Y: 0	SP: fd
f500	0	STA	A: 0	X: 0	Y: 0	SP: fd
f502	19	LDA	A: 0	X: 0	Y: 0	SP: fd
f504	f505	AND	A: 0	X: 0	Y: 0	SP: fd
f506	0	EOR	A: 0	X: 0	Y: 0	SP: fd
f508	0	CLC	A: 0	X: 0	Y: 0	SP: fd
f509	f50c	BEQ	A: 0	X: 0	Y: 0	SP: fd
f50c	18	ROR	A: 0	X: 0	Y: 0	SP: fd
f50e	19	ROR	A: 0	X: 0	Y: 0	SP: fd
f510	1a	ROR	A: 0	X: 0	Y: 0	SP: fd
f512	1b	ROR	A: 0	X: 0	Y: 0	SP: fd
f514	1c	ROR	A: 0	X: 0	Y: 0	SP: fd
f516	1d	ROR	A: 0	X: 0	Y: 0	SP: fd
f518	1e	ROR	A: 0	X: 0	Y: 0	SP: fd
f51a	1f	ROR	A: 0	X: 0	Y: 0	SP: fd
f51c	0	RTS	A: 0	X: 0	Y: 0	SP: fd
c7e4	c7e1	JMP	A: 0	X: 0	Y: 0	SP: ff
c7e1	f4fc	JSR	A: 0	X: 0	Y: 0	SP: ff
f4fc	18	LDA	A: 0	X: 0	Y: 0	SP: fd
f4fe	f4ff	AND	A: 0	X: 0	Y: 0	SP: fd
f500	0	STA	A: 0	X: 0	Y: 0	SP: fd
f502	19	LDA	A: 0	X: 0	Y: 0	SP: fd
f504	f505	AND	A: 0	X: 0	Y: 0	SP: fd
f506	0	EOR	A: 0	X: 0	Y: 0	SP: fd
f508	0	CLC	A: 0	X: 0	Y: 0	SP: fd
f509	f50c	BEQ	A: 0	X: 0	Y: 0	SP: fd
f50c	18	ROR	A: 0	X: 0	Y: 0	SP: fd
f50e	19	ROR	A: 0	X: 0	Y: 0	SP: fd
f510	1a	ROR	A: 0	X: 0	Y: 0	SP: fd
f512	1b	ROR	A: 0	X: 0	Y: 0	SP: fd
f514	1c	ROR	A: 0	X: 0	Y: 0	SP: fd
f516	1d	ROR	A: 0	X: 0	Y: 0	SP: fd
f518	1e	ROR	A: 0	X: 0	Y: 0	SP: fd
f51a	1f	ROR	A: 0	X: 0	Y: 0	SP: fd
f51c	0	RTS	A: 0	X: 0	Y: 0	SP: fd
c7e4	c7e1	JMP	A: 0	X: 0	Y: 0	SP: ff
c7e1	f4fc	JSR	A: 0	X: 0	Y: 0	SP: ff
f4fc	18	LDA	A: 0	X: 0	Y: 0	SP: fd
f4fe	f4ff	AND	A: 0	X: 0	Y: 0	SP: fd
f500	0	STA	A: 0	X: 0	Y: 0	SP: fd
f502	19	LDA	A: 0	X: 0	Y: 0	SP: fd
f504	f505	AND	A: 0	X: 0	Y: 0	SP: fd
f506	0	EOR	A: 0	X: 0	Y: 0	SP: fd
f508	0	CLC	A: 0	X: 0	Y: 0	SP: fd
f509	f50c	BEQ	A: 0	X: 0	Y: 0	SP: fd
f50c	18	ROR	A: 0	X: 0	Y: 0	SP: fd
f50e	19	ROR	A: 0	X: 0	Y: 0	SP: fd
f510	1a	ROR	A: 0	X: 0	Y: 0	SP: fd
f512	1b	ROR	A: 0	X: 0	Y: 0	SP: fd
f514	1c	ROR	A: 0	X: 0	Y: 0	SP: fd
f516	1d	ROR	A: 0	X: 0	Y: 0	SP: fd
f518	1e	ROR	A: 0	X: 0	Y: 0	SP: fd
f51a	1f	ROR	A: 0	X: 0	Y: 0	SP: fd
f51c	0	RTS	A: 0	X: 0	Y: 0	SP: fd
c7e4	c7e1	JMP	A: 0	X: 0	Y: 0	SP: ff
c7e1	f4fc	JSR	A: 0	X: 0	Y: 0	SP: ff
f4fc	18	LDA	A: 0	X: 0	Y: 0	SP: fd
f4fe	f4ff	AND	A: 0	X: 0	Y: 0	SP: fd
f500	0	STA	A: 0	X: 0	Y: 0	SP: fd
f502	19	LDA	A: 0	X: 0	Y: 0	SP: fd
f504	f505	AND	A: 0	X: 0	Y: 0	SP: fd
f506	0	EOR	A: 0	X: 0	Y: 0	SP: fd
f508	0	CLC	A: 0	X: 0	Y: 0	SP: fd
f509	f50c	BEQ	A: 0	X: 0	Y: 0	SP: fd
f50c	18	ROR	A: 0	X: 0	Y: 0	SP: fd
f50e	19	ROR	A: 0	X: 0	Y: 0	SP: fd
f510	1a	ROR	A: 0	X: 0	Y: 0	SP: fd
f512	1b	ROR	A: 0	X: 0	Y: 0	SP: fd
f514	1c	ROR	A: 0	X: 0	Y: 0	SP: fd
f516	1d	ROR	A: 0	X: 0	Y: 0	SP: fd
f518	1e	ROR	A: 0	X: 0	Y: 0	SP: fd
f51a	1f	ROR	A: 0	X: 0	Y: 0	SP: fd
f51c	0	RTS	A: 0	X: 0	Y: 0	SP: fd
c7e4	c7e1	JMP	A: 0	X: 0	Y: 0	SP: ff
c7e1	f4fc	JSR	A: 0	X: 0	Y: 0	SP: ff
f4fc	18	LDA	A: 0	X: 0	Y: 0	SP: fd
f4fe	f4ff	AND	A: 0	X: 0	Y: 0	SP: fd
f500	0	STA	A: 0	X: 0	Y: 0	SP: fd
f502	19	LDA	A: 0	X: 0	Y: 0	SP: fd
f504	f505	AND	A: 0	X: 0	Y: 0	SP: fd
f506	0	EOR	A: 0	X: 0	Y: 0	SP: fd
f508	0	CLC	A: 0	X: 0	Y: 0	SP: fd
f509	f50c	BEQ	A: 0	X: 0	Y: 0	SP: fd
f50c	18	ROR	A: 0	X: 0	Y: 0	SP: fd
f50e	19	ROR	A: 0	X: 0	Y: 0	SP: fd
f510	1a	ROR	A: 0	X: 0	Y: 0	SP: fd
f512	1b	ROR	A: 0	X: 0	Y: 0	SP: fd
f514	1c	ROR	A: 0	X: 0	Y: 0	SP: fd
f516	1d	ROR	A: 0	X: 0	Y: 0	SP: fd
f518	1e	ROR	A: 0	X: 0	Y: 0	SP: fd
f51a	1f	ROR	A: 0	X: 0	Y: 0	SP: fd
f51c	0	RTS	A: 0	X: 0	Y: 0	SP: fd
c7e4	c7e1	JMP	A: 0	X: 0	Y: 0	SP: ff
c7e1	f4fc	JSR	A: 0	X: 0	Y: 0	SP: ff
f4fc	18	LDA	A: 0	X: 0	Y: 0	SP: fd
f4fe	f4ff	AND	A: 0	X: 0	Y: 0	SP: fd
f500	0	STA	A: 0	X: 0	Y: 0	SP: fd
f502	19	LDA	A: 0	X: 0	Y: 0	SP: fd
f504	f505	AND	A: 0	X: 0	Y: 0	SP: fd
f506	0	EOR	A: 0	X: 0	Y: 0	SP: fd
f508	0	CLC	A: 0	X: 0	Y: 0	SP: fd
f509	f50c	BEQ	A: 0	X: 0	Y: 0	SP: fd
f50c	18	ROR	A: 0	X: 0	Y: 0	SP: fd
f50e	19	ROR	A: 0	X: 0	Y: 0	SP: fd
f510	1a	ROR	A: 0	X: 0	Y: 0	SP: fd
f512	1b	ROR	A: 0	X: 0	Y: 0	SP: fd
f514	1c	ROR	A: 0	X: 0	Y: 0	SP: fd
f516	1d	ROR	A: 0	X: 0	Y: 0	SP: fd
f518	1e	ROR	A: 0	X: 0	Y: 0	SP: fd
f51a	1f	ROR	A: 0	X: 0	Y: 0	SP: fd
f51c	0	RTS	A: 0	X: 0	Y: 0	SP: fd
c7e4	c7e1	JMP	A: 0	X: 0	Y: 0	SP: ff
c7e1	f4fc	JSR	A: 0	X: 0	Y: 0	SP: ff
f4fc	18	LDA	A: 0	X: 0	Y: 0	SP: fd
f4fe	f4ff	AND	A: 0	X: 0	Y: 0	SP: fd
f500	0	STA	A: 0	X: 0	Y: 0	SP: fd
f502	19	LDA	A: 0	X: 0	Y: 0	SP: fd
f504	f505	AND	A: 0	X: 0	Y: 0	SP: fd
f506	0	EOR	A: 0	X: 0	Y: 0	SP: fd
f508	0	CLC	A: 0	X: 0	Y: 0	SP: fd
f509	f50c	BEQ	A: 0	X: 0	Y: 0	SP: fd
f50c	18	ROR	A: 0	X: 0	Y: 0	SP: fd
f50e	19	ROR	A: 0	X: 0	Y: 0	SP: fd
f510	1a	ROR	A: 0	X: 0	Y: 0	SP: fd
f512	1b	ROR	A: 0	X: 0	Y: 0	SP: fd
f514	1c	ROR	A: 0	X: 0	Y: 0	SP: fd
f516	1d	ROR	A: 0	X: 0	Y: 0	SP: fd
f518	1e	ROR	A: 0	X: 0	Y: 0	SP: fd
f51a	1f	ROR	A: 0	X: 0	Y: 0	SP: fd
f51c	0	RTS	A: 0	X: 0	Y: 0	SP: fd
c7e4	c7e1	JMP	A: 0	X: 0	Y: 0	SP: ff
c7e1	f4fc	JSR	A: 0	X: 0	Y: 0	SP: ff
f4fc	18	LDA	A: 0	X: 0	Y: 0	SP: fd
f4fe	f4ff	AND	A: 0	X: 0	Y: 0	SP: fd
f500	0	STA	A: 0	X: 0	Y: 0	SP: fd
f502	19	LDA	A: 0	X: 0	Y: 0	SP: fd
f504	f505	AND	A: 0	X: 0	Y: 0	SP: fd
f506	0	EOR	A: 0	X: 0	Y: 0	SP: fd
f508	0	CLC	A: 0	X: 0	Y: 0	SP: fd
f509	f50c	BEQ	A: 0	X: 0	Y: 0	SP: fd
f50c	18	ROR	A: 0	X: 0	Y: 0	SP: fd
f50e	19	ROR	A: 0	X: 0	Y: 0	SP: fd
f510	1a	ROR	A: 0	X: 0	Y: 0	SP: fd
f512	1b	ROR	A: 0	X: 0	Y: 0	SP: fd
f514	1c	ROR	A: 0	X: 0	Y: 0	SP: fd
f516	1d	ROR	A: 0	X: 0	Y: 0	SP: fd
f518	1e	ROR	A: 0	X: 0	Y: 0	SP: fd
f51a	1f	ROR	A: 0	X: 0	Y: 0	SP: fd
f51c	0	RTS	A: 0	X: 0	Y: 0	SP: fd
c7e4	c7e1	JMP	A: 0	X: 0	Y: 0	SP: ff
c7e1	f4fc	JSR	A: 0	X: 0	Y: 0	SP: ff
f4fc	18	LDA	A: 0	X: 0	Y: 0	SP: fd
f4fe	f4ff	AND	A: 0	X: 0	Y: 0	SP: fd
f500	0	STA	A: 0	X: 0	Y: 0	SP: fd
f502	19	LDA	A: 0	X: 0	Y: 0	SP: fd
f504	f505	AND	A: 0	X: 0	Y: 0	SP: fd
f506	0	EOR	A: 0	X: 0	Y: 0	SP: fd
f508	0	CLC	A: 0	X: 0	Y: 0	SP: fd
f509	f50c	BEQ	A: 0	X: 0	Y: 0	SP: fd
f50c	18	ROR	A: 0	X: 0	Y: 0	SP: fd
f50e	19	ROR	A: 0	X: 0	Y: 0	SP: fd
f510	1a	ROR	A: 0	X: 0	Y: 0	SP: fd
f512	1b	ROR	A: 0	X: 0	Y: 0	SP: fd
f514	1c	ROR	A: 0	X: 0	Y: 0	SP: fd
f516	1d	ROR	A: 0	X: 0	Y: 0	SP: fd
f518	1e	ROR	A: 0	X: 0	Y: 0	SP: fd
f51a	1f	ROR	A: 0	X: 0	Y: 0	SP: fd
f51c	0	RTS	A: 0	X: 0	Y: 0	SP: fd
c7e4	c7e1	JMP	A: 0	X: 0	Y: 0	SP: ff
c7e1	f4fc	JSR	A: 0	X: 0	Y: 0	SP: ff
f4fc	18	LDA	A: 0	X: 0	Y: 0	SP: fd
f4fe	f4ff	AND	A: 0	X: 0	Y: 0	SP: fd
f500	0	STA	A: 0	X: 0	Y: 0	SP: fd
f502	19	LDA	A: 0	X: 0	Y: 0	SP: fd
f504	f505	AND	A: 0	X: 0	Y: 0	SP: fd
f506	0	EOR	A: 0	X: 0	Y: 0	SP: fd
f508	0	CLC	A: 0	X: 0	Y: 0	SP: fd
f509	f50c	BEQ	A: 0	X: 0	Y: 0	SP: fd
f50c	18	ROR	A: 0	X: 0	Y: 0	SP: fd
f50e	19	ROR	A: 0	X: 0	Y: 0	SP: fd
f510	1a	ROR	A: 0	X: 0	Y: 0	SP: fd
f512	1b	ROR	A: 0	X: 0	Y: 0	SP: fd
f514	1c	ROR	A: 0	X: 0	Y: 0	SP: fd
f516	1d	ROR	A: 0	X: 0	Y: 0	SP: fd
f518	1e	ROR	A: 0	X: 0	Y: 0	SP: fd
f51a	1f	ROR	A: 0	X: 0	Y: 0	SP: fd
f51c	0	RTS	A: 0	X: 0	Y: 0	SP: fd
c7e4	c7e1	JMP	A: 0	X: 0	Y: 0	SP: ff
c7e1	f4fc	JSR	A: 0	X: 0	Y: 0	SP: ff
f4fc	18	LDA	A: 0	X: 0	Y: 0	SP: fd
f4fe	f4ff	AND	A: 0	X: 0	Y: 0	SP: fd
f500	0	STA	A: 0	X: 0	Y: 0	SP: fd
f502	19	LDA	A: 0	X: 0	Y: 0	SP: fd
f504	f505	AND	A: 0	X: 0	Y: 0	SP: fd
f506	0	EOR	A: 0	X: 0	Y: 0	SP: fd
f508	0	CLC	A: 0	X: 0	Y: 0	SP: fd
f509	f50c	BEQ	A: 0	X: 0	Y: 0	SP: fd
f50c	18	ROR	A: 0	X: 0	Y: 0	SP: fd
f50e	19	ROR	A: 0	X: 0	Y: 0	SP: fd
f510	1a	ROR	A: 0	X: 0	Y: 0	SP: fd
f512	1b	ROR	A: 0	X: 0	Y: 0	SP: fd
f514	1c	ROR	A: 0	X: 0	Y: 0	SP: fd
f516	1d	ROR	A: 0	X: 0	Y: 0	SP: fd
f518	1e	ROR	A: 0	X: 0	Y: 0	SP: fd
f51a	1f	ROR	A: 0	X: 0	Y: 0	SP: fd
f51c	0	RTS	A: 0	X: 0	Y: 0	SP: fd
c7e4	c7e1	JMP	A: 0	X: 0	Y: 0	SP: ff
c7e1	f4fc	JSR	A: 0	X: 0	Y: 0	SP: ff
f4fc	18	LDA	A: 0	X: 0	Y: 0	SP: fd
f4fe	f4ff	AND	A: 0	X: 0	Y: 0	SP: fd
f500	0	STA	A: 0	X: 0	Y: 0	SP: fd
f502	19	LDA	A: 0	X: 0	Y: 0	SP: fd
f504	f505	AND	A: 0	X: 0	Y: 0	SP: fd
f506	0	EOR	A: 0	X: 0	Y: 0	SP: fd
f508	0	CLC	A: 0	X: 0	Y: 0	SP: fd
f509	f50c	BEQ	A: 0	X: 0	Y: 0	SP: fd
f50c	18	ROR	A: 0	X: 0	Y: 0	SP: fd
f50e	19	ROR	A: 0	X: 0	Y: 0	SP: fd
f510	1a	ROR	A: 0	X: 0	Y: 0	SP: fd
f512	1b	ROR	A: 0	X: 0	Y: 0	SP: fd
f514	1c	ROR	A: 0	X: 0	Y: 0	SP: fd
f516	1d	ROR	A: 0	X: 0	Y: 0	SP: fd
f518	1e	ROR	A: 0	X: 0	Y: 0	SP: fd
f51a	1f	ROR	A: 0	X: 0	Y: 0	SP: fd
f51c	0	RTS	A: 0	X: 0	Y: 0	SP: fd
c7e4	c7e1	JMP	A: 0	X: 0	Y: 0	SP: ff
c7e1	f4fc	JSR	A: 0	X: 0	Y: 0	SP: ff
f4fc	18	LDA	A: 0	X: 0	Y: 0	SP: fd
f4fe	f4ff	AND	A: 0	X: 0	Y: 0	SP: fd
f500	0	STA	A: 0	X: 0	Y: 0	SP: fd
f502	19	LDA	A: 0	X: 0	Y: 0	SP: fd
f504	f505	AND	A: 0	X: 0	Y: 0	SP: fd
f506	0	EOR	A: 0	X: 0	Y: 0	SP: fd
f508	0	CLC	A: 0	X: 0	Y: 0	SP: fd
f509	f50c	BEQ	A: 0	X: 0	Y: 0	SP: fd
f50c	18	ROR	A: 0	X: 0	Y: 0	SP: fd
f50e	19	ROR	A: 0	X: 0	Y: 0	SP: fd
f510	1a	ROR	A: 0	X: 0	Y: 0	SP: fd
f512	1b	ROR	A: 0	X: 0	Y: 0	SP: fd
f514	1c	ROR	A: 0	X: 0	Y: 0	SP: fd
f516	1d	ROR	A: 0	X: 0	Y: 0	SP: fd
f518	1e	ROR	A: 0	X: 0	Y: 0	SP: fd
f51a	1f	ROR	A: 0	X: 0	Y: 0	SP: fd
f51c	0	RTS	A: 0	X: 0	Y: 0	SP: fd
c7e4	c7e1	JMP	A: 0	X: 0	Y: 0	SP: ff
c7e1	f4fc	JSR	A: 0	X: 0	Y: 0	SP: ff
f4fc	18	LDA	A: 0	X: 0	Y: 0	SP: fd
f4fe	f4ff	AND	A: 0	X: 0	Y: 0	SP: fd
f500	0	STA	A: 0	X: 0	Y: 0	SP: fd
f502	19	LDA	A: 0	X: 0	Y: 0	SP: fd
f504	f505	AND	A: 0	X: 0	Y: 0	SP: fd
f506	0	EOR	A: 0	X: 0	Y: 0	SP: fd
f508	0	CLC	A: 0	X: 0	Y: 0	SP: fd
f509	f50c	BEQ	A: 0	X: 0	Y: 0	SP: fd
f50c	18	ROR	A: 0	X: 0	Y: 0	SP: fd
f50e	19	ROR	A: 0	X: 0	Y: 0	SP: fd
f510	1a	ROR	A: 0	X: 0	Y: 0	SP: fd
f512	1b	ROR	A: 0	X: 0	Y: 0	SP: fd
f514	1c	ROR	A: 0	X: 0	Y: 0	SP: fd
f516	1d	ROR	A: 0	X: 0	Y: 0	SP: fd
f518	1e	ROR	A: 0	X: 0	Y: 0	SP: fd
f51a	1f	ROR	A: 0	X: 0	Y: 0	SP: fd
f51c	0	RTS	A: 0	X: 0	Y: 0	SP: fd
c7e4	c7e1	JMP	A: 0	X: 0	Y: 0	SP: ff
c7e1	f4fc	JSR	A: 0	X: 0	Y: 0	SP: ff
f4fc	18	LDA	A: 0	X: 0	Y: 0	SP: fd
f4fe	f4ff	AND	A: 0	X: 0	Y: 0	SP: fd
f500	0	STA	A: 0	X: 0	Y: 0	SP: fd
f502	19	LDA	A: 0	X: 0	Y: 0	SP: fd
f504	f505	AND	A: 0	X: 0	Y: 0	SP: fd
f506	0	EOR	A: 0	X: 0	Y: 0	SP: fd
f508	0	CLC	A: 0	X: 0	Y: 0	SP: fd
f509	f50c	BEQ	A: 0	X: 0	Y: 0	SP: fd
f50c	18	ROR	A: 0	X: 0	Y: 0	SP: fd
f50e	19	ROR	A: 0	X: 0	Y: 0	SP: fd
f510	1a	ROR	A: 0	X: 0	Y: 0	SP: fd
f512	1b	ROR	A: 0	X: 0	Y: 0	SP: fd
f514	1c	ROR	A: 0	X: 0	Y: 0	SP: fd
f516	1d	ROR	A: 0	X: 0	Y: 0	SP: fd
f518	1e	ROR	A: 0	X: 0	Y: 0	SP: fd
f51a	1f	ROR	A: 0	X: 0	Y: 0	SP: fd
f51c	0	RTS	A: 0	X: 0	Y: 0	SP: fd
c7e4	c7e1	JMP	A: 0	X: 0	Y: 0	SP: ff
c7e1	f4fc	JSR	A: 0	X: 0	Y: 0	SP: ff
f4fc	18	LDA	A: 0	X: 0	Y: 0	SP: fd
f4fe	f4ff	AND	A: 0	X: 0	Y: 0	SP: fd
f500	0	STA	A: 0	X: 0	Y: 0	SP: fd
f502	19	LDA	A: 0	X: 0	Y: 0	SP: fd
f504	f505	AND	A: 0	X: 0	Y: 0	SP: fd
f506	0	EOR	A: 0	X: 0	Y: 0	SP: fd
f508	0	CLC	A: 0	X: 0	Y: 0	SP: fd
f509	f50c	BEQ	A: 0	X: 0	Y: 0	SP: fd
f50c	18	ROR	A: 0	X: 0	Y: 0	SP: fd
f50e	19	ROR	A: 0	X: 0	Y: 0	SP: fd
f510	1a	ROR	A: 0	X: 0	Y: 0	SP: fd
f512	1b	ROR	A: 0	X: 0	Y: 0	SP: fd
f514	1c	ROR	A: 0	X: 0	Y: 0	SP: fd
f516	1d	ROR	A: 0	X: 0	Y: 0	SP: fd
f518	1e	ROR	A: 0	X: 0	Y: 0	SP: fd
f51a	1f	ROR	A: 0	X: 0	Y: 0	SP: fd
f51c	0	RTS	A: 0	X: 0	Y: 0	SP: fd
c7e4	c7e1	JMP	A: 0	X: 0	Y: 0	SP: ff
c7e1	f4fc	JSR	A: 0	X: 0	Y: 0	SP: ff
f4fc	18	LDA	A: 0	X: 0	Y: 0	SP: fd
f4fe	f4ff	AND	A: 0	X: 0	Y: 0	SP: fd
f500	0	STA	A: 0	X: 0	Y: 0	SP: fd
f502	19	LDA	A: 0	X: 0	Y: 0	SP: fd
f504	f505	AND	A: 0	X: 0	Y: 0	SP: fd
f506	0	EOR	A: 0	X: 0	Y: 0	SP: fd
f508	0	CLC	A: 0	X: 0	Y: 0	SP: fd
f509	f50c	BEQ	A: 0	X: 0	Y: 0	SP: fd
f50c	18	ROR	A: 0	X: 0	Y: 0	SP: fd
f50e	19	ROR	A: 0	X: 0	Y: 0	SP: fd
f510	1a	ROR	A: 0	X: 0	Y: 0	SP: fd
f512	1b	ROR	A: 0	X: 0	Y: 0	SP: fd
f514	1c	ROR	A: 0	X: 0	Y: 0	SP: fd
f516	1d	ROR	A: 0	X: 0	Y: 0	SP: fd
f518	1e	ROR	A: 0	X: 0	Y: 0	SP: fd
f51a	1f	ROR	A: 0	X: 0	Y: 0	SP: fd
f51c	0	RTS	A: 0	X: 0	Y: 0	SP: fd
c7e4	c7e1	JMP	A: 0	X: 0	Y: 0	SP: ff
c7e1	f4fc	JSR	A: 0	X: 0	Y: 0	SP: ff
f4fc	18	LDA	A: 0	X: 0	Y: 0	SP: fd
f4fe	f4ff	AND	A: 0	X: 0	Y: 0	SP: fd
f500	0	STA	A: 0	X: 0	Y: 0	SP: fd
f502	19	LDA	A: 0	X: 0	Y: 0	SP: fd
f504	f505	AND	A: 0	X: 0	Y: 0	SP: fd
f506	0	EOR	A: 0	X: 0	Y: 0	SP: fd
f508	0	CLC	A: 0	X: 0	Y: 0	SP: fd
f509	f50c	BEQ	A: 0	X: 0	Y: 0	SP: fd
f50c	18	ROR	A: 0	X: 0	Y: 0	SP: fd
f50e	19	ROR	A: 0	X: 0	Y: 0	SP: fd
f510	1a	ROR	A: 0	X: 0	Y: 0	SP: fd
f512	1b	ROR	A: 0	X: 0	Y: 0	SP: fd
f514	1c	ROR	A: 0	X: 0	Y: 0	SP: fd
f516	1d	ROR	A: 0	X: 0	Y: 0	SP: fd
f518	1e	ROR	A: 0	X: 0	Y: 0	SP: fd
f51a	1f	ROR	A: 0	X: 0	Y: 0	SP: fd
f51c	0	RTS	A: 0	X: 0	Y: 0	SP: fd
c7e4	c7e1	JMP	A: 0	X: 0	Y: 0	SP: ff
c7e1	f4fc	JSR	A: 0	X: 0	Y: 0	SP: ff
f4fc	18	LDA	A: 0	X: 0	Y: 0	SP: fd
f4fe	f4ff	AND	A: 0	X: 0	Y: 0	SP: fd
f500	0	STA	A: 0	X: 0	Y: 0	SP: fd
f502	19	LDA	A: 0	X: 0	Y: 0	SP: fd
f504	f505	AND	A: 0	X: 0	Y: 0	SP: fd
f506	0	EOR	A: 0	X: 0	Y: 0	SP: fd
f508	0	CLC	A: 0	X: 0	Y: 0	SP: fd
f509	f50c	BEQ	A: 0	X: 0	Y: 0	SP: fd
f50c	18	ROR	A: 0	X: 0	Y: 0	SP: fd
f50e	19	ROR	A: 0	X: 0	Y: 0	SP: fd
f510	1a	ROR	A: 0	X: 0	Y: 0	SP: fd
f512	1b	ROR	A: 0	X: 0	Y: 0	SP: fd
f514	1c	ROR	A: 0	X: 0	Y: 0	SP: fd
f516	1d	ROR	A: 0	X: 0	Y: 0	SP: fd
f518	1e	ROR	A: 0	X: 0	Y: 0	SP: fd
f51a	1f	ROR	A: 0	X: 0	Y: 0	SP: fd
f51c	0	RTS	A: 0	X: 0	Y: 0	SP: fd
c7e4	c7e1	JMP	A: 0	X: 0	Y: 0	SP: ff
c7e1	f4fc	JSR	A: 0	X: 0	Y: 0	SP: ff
f4fc	18	LDA	A: 0	X: 0	Y: 0	SP: fd
f4fe	f4ff	AND	A: 0	X: 0	Y: 0	SP: fd
f500	0	STA	A: 0	X: 0	Y: 0	SP: fd
f502	19	LDA	A: 0	X: 0	Y: 0	SP: fd
f504	f505	AND	A: 0	X: 0	Y: 0	SP: fd
f506	0	EOR	A: 0	X: 0	Y: 0	SP: fd
f508	0	CLC	A: 0	X: 0	Y: 0	SP: fd
f509	f50c	BEQ	A: 0	X: 0	Y: 0	SP: fd
f50c	18	ROR	A: 0	X: 0	Y: 0	SP: fd
f50e	19	ROR	A: 0	X: 0	Y: 0	SP: fd
f510	1a	ROR	A: 0	X: 0	Y: 0	SP: fd
f512	1b	ROR	A: 0	X: 0	Y: 0	SP: fd
f514	1c	ROR	A: 0	X: 0	Y: 0	SP: fd
f516	1d	ROR	A: 0	X: 0	Y: 0	SP: fd
f518	1e	ROR	A: 0	X: 0	Y: 0	SP: fd
f51a	1f	ROR	A: 0	X: 0	Y: 0	SP: fd
f51c	0	RTS	A: 0	X: 0	Y: 0	SP: fd
c7e4	c7e1	JMP	A: 0	X: 0	Y: 0	SP: ff
c7e1	f4fc	JSR	A: 0	X: 0	Y: 0	SP: ff
f4fc	18	LDA	A: 0	X: 0	Y: 0	SP: fd
f4fe	f4ff	AND	A: 0	X: 0	Y: 0	SP: fd
f500	0	STA	A: 0	X: 0	Y: 0	SP: fd
f502	19	LDA	A: 0	X: 0	Y: 0	SP: fd
f504	f505	AND	A: 0	X: 0	Y: 0	SP: fd
f506	0	EOR	A: 0	X: 0	Y: 0	SP: fd
f508	0	CLC	A: 0	X: 0	Y: 0	SP: fd
f509	f50c	BEQ	A: 0	X: 0	Y: 0	SP: fd
f50c	18	ROR	A: 0	X: 0	Y: 0	SP: fd
f50e	19	ROR	A: 0	X: 0	Y: 0	SP: fd
f510	1a	ROR	A: 0	X: 0	Y: 0	SP: fd
f512	1b	ROR	A: 0	X: 0	Y: 0	SP: fd
f514	1c	ROR	A: 0	X: 0	Y: 0	SP: fd
f516	1d	ROR	A: 0	X: 0	Y: 0	SP: fd
f518	1e	ROR	A: 0	X: 0	Y: 0	SP: fd
f51a	1f	ROR	A: 0	X: 0	Y: 0	SP: fd
f51c	0	RTS	A: 0	X: 0	Y: 0	SP: fd
c7e4	c7e1	JMP	A: 0	X: 0	Y: 0	SP: ff
c7e1	f4fc	JSR	A: 0	X: 0	Y: 0	SP: ff
f4fc	18	LDA	A: 0	X: 0	Y: 0	SP: fd
f4fe	f4ff	AND	A: 0	X: 0	Y: 0	SP: fd
f500	0	STA	A: 0	X: 0	Y: 0	SP: fd
f502	19	LDA	A: 0	X: 0	Y: 0	SP: fd
f504	f505	AND	A: 0	X: 0	Y: 0	SP: fd
f506	0	EOR	A: 0	X: 0	Y: 0	SP: fd
f508	0	CLC	A: 0	X: 0	Y: 0	SP: fd
f509	f50c	BEQ	A: 0	X: 0	Y: 0	SP: fd
f50c	18	ROR	A: 0	X: 0	Y: 0	SP: fd
f50e	19	ROR	A: 0	X: 0	Y: 0	SP: fd
f510	1a	ROR	A: 0	X: 0	Y: 0	SP: fd
f512	1b	ROR	A: 0	X: 0	Y: 0	SP: fd
f514	1c	ROR	A: 0	X: 0	Y: 0	SP: fd
f516	1d	ROR	A: 0	X: 0	Y: 0	SP: fd
f518	1e	ROR	A: 0	X: 0	Y: 0	SP: fd
f51a	1f	ROR	A: 0	X: 0	Y: 0	SP: fd
f51c	0	RTS	A: 0	X: 0	Y: 0	SP: fd
c7e4	c7e1	JMP	A: 0	X: 0	Y: 0	SP: ff
c7e1	f4fc	JSR	A: 0	X: 0	Y: 0	SP: ff
f4fc	18	LDA	A: 0	X: 0	Y: 0	SP: fd
f4fe	f4ff	AND	A: 0	X: 0	Y: 0	SP: fd
f500	0	STA	A: 0	X: 0	Y: 0	SP: fd
f502	19	LDA	A: 0	X: 0	Y: 0	SP: fd
f504	f505	AND	A: 0	X: 0	Y: 0	SP: fd
f506	0	EOR	A: 0	X: 0	Y: 0	SP: fd
f508	0	CLC	A: 0	X: 0	Y: 0	SP: fd
f509	f50c	BEQ	A: 0	X: 0	Y: 0	SP: fd
f50c	18	ROR	A: 0	X: 0	Y: 0	SP: fd
f50e	19	ROR	A: 0	X: 0	Y: 0	SP: fd
f510	1a	ROR	A: 0	X: 0	Y: 0	SP: fd
f512	1b	ROR	A: 0	X: 0	Y: 0	SP: fd
f514	1c	ROR	A: 0	X: 0	Y: 0	SP: fd
f516	1d	ROR	A: 0	X: 0	Y: 0	SP: fd
f518	1e	ROR	A: 0	X: 0	Y: 0	SP: fd
f51a	1f	ROR	A: 0	X: 0	Y: 0	SP: fd
f51c	0	RTS	A: 0	X: 0	Y: 0	SP: fd
c7e4	c7e1	JMP	A: 0	X: 0	Y: 0	SP: ff
c7e1	f4fc	JSR	A: 0	X: 0	Y: 0	SP: ff
f4fc	18	LDA	A: 0	X: 0	Y: 0	SP: fd
f4fe	f4ff	AND	A: 0	X: 0	Y: 0	SP: fd
f500	0	STA	A: 0	X: 0	Y: 0	SP: fd
f502	19	LDA	A: 0	X: 0	Y: 0	SP: fd
f504	f505	AND	A: 0	X: 0	Y: 0	SP: fd
f506	0	EOR	A: 0	X: 0	Y: 0	SP: fd
f508	0	CLC	A: 0	X: 0	Y: 0	SP: fd
f509	f50c	BEQ	A: 0	X: 0	Y: 0	SP: fd
f50c	18	ROR	A: 0	X: 0	Y: 0	SP: fd
f50e	19	ROR	A: 0	X: 0	Y: 0	SP: fd
f510	1a	ROR	A: 0	X: 0	Y: 0	SP: fd
f512	1b	ROR	A: 0	X: 0	Y: 0	SP: fd
f514	1c	ROR	A: 0	X: 0	Y: 0	SP: fd
f516	1d	ROR	A: 0	X: 0	Y: 0	SP: fd
f518	1e	ROR	A: 0	X: 0	Y: 0	SP: fd
f51a	1f	ROR	A: 0	X: 0	Y: 0	SP: fd
f51c	0	RTS	A: 0	X: 0	Y: 0	SP: fd
c7e4	c7e1	JMP	A: 0	X: 0	Y: 0	SP: ff
c7e1	f4fc	JSR	A: 0	X: 0	Y: 0	SP: ff
f4fc	18	LDA	A: 0	X: 0	Y: 0	SP: fd
f4fe	f4ff	AND	A: 0	X: 0	Y: 0	SP: fd
f500	0	STA	A: 0	X: 0	Y: 0	SP: fd
f502	19	LDA	A: 0	X: 0	Y: 0	SP: fd
f504	f505	AND	A: 0	X: 0	Y: 0	SP: fd
f506	0	EOR	A: 0	X: 0	Y: 0	SP: fd
f508	0	CLC	A: 0	X: 0	Y: 0	SP: fd
f509	f50c	BEQ	A: 0	X: 0	Y: 0	SP: fd
f50c	18	ROR	A: 0	X: 0	Y: 0	SP: fd
f50e	19	ROR	A: 0	X: 0	Y: 0	SP: fd
f510	1a	ROR	A: 0	X: 0	Y: 0	SP: fd
f512	1b	ROR	A: 0	X: 0	Y: 0	SP: fd
f514	1c	ROR	A: 0	X: 0	Y: 0	SP: fd
f516	1d	ROR	A: 0	X: 0	Y: 0	SP: fd
f518	1e	ROR	A: 0	X: 0	Y: 0	SP: fd
f51a	1f	ROR	A: 0	X: 0	Y: 0	SP: fd
f51c	0	RTS	A: 0	X: 0	Y: 0	SP: fd
c7e4	c7e1	JMP	A: 0	X: 0	Y: 0	SP: ff
c7e1	f4fc	JSR	A: 0	X: 0	Y: 0	SP: ff
f4fc	18	LDA	A: 0	X: 0	Y: 0	SP: fd
f4fe	f4ff	AND	A: 0	X: 0	Y: 0	SP: fd
f500	0	STA	A: 0	X: 0	Y: 0	SP: fd
f502	19	LDA	A: 0	X: 0	Y: 0	SP: fd
f504	f505	AND	A: 0	X: 0	Y: 0	SP: fd
f506	0	EOR	A: 0	X: 0	Y: 0	SP: fd
f508	0	CLC	A: 0	X: 0	Y: 0	SP: fd
f509	f50c	BEQ	A: 0	X: 0	Y: 0	SP: fd
f50c	18	ROR	A: 0	X: 0	Y: 0	SP: fd
f50e	19	ROR	A: 0	X: 0	Y: 0	SP: fd
f510	1a	ROR	A: 0	X: 0	Y: 0	SP: fd
f512	1b	ROR	A: 0	X: 0	Y: 0	SP: fd
f514	1c	ROR	A: 0	X: 0	Y: 0	SP: fd
f516	1d	ROR	A: 0	X: 0	Y: 0	SP: fd
f518	1e	ROR	A: 0	X: 0	Y: 0	SP: fd
f51a	1f	ROR	A: 0	X: 0	Y: 0	SP: fd
f51c	0	RTS	A: 0	X: 0	Y: 0	SP: fd
c7e4	c7e1	JMP	A: 0	X: 0	Y: 0	SP: ff
c7e1	f4fc	JSR	A: 0	X: 0	Y: 0	SP: ff
f4fc	18	LDA	A: 0	X: 0	Y: 0	SP: fd
f4fe	f4ff	AND	A: 0	X: 0	Y: 0	SP: fd
f500	0	STA	A: 0	X: 0	Y: 0	SP: fd
f502	19	LDA	A: 0	X: 0	Y: 0	SP: fd
f504	f505	AND	A: 0	X: 0	Y: 0	SP: fd
f506	0	EOR	A: 0	X: 0	Y: 0	SP: fd
f508	0	CLC	A: 0	X: 0	Y: 0	SP: fd
f509	f50c	BEQ	A: 0	X: 0	Y: 0	SP: fd
f50c	18	ROR	A: 0	X: 0	Y: 0	SP: fd
f50e	19	ROR	A: 0	X: 0	Y: 0	SP: fd
f510	1a	ROR	A: 0	X: 0	Y: 0	SP: fd
f512	1b	ROR	A: 0	X: 0	Y: 0	SP: fd
f514	1c	ROR	A: 0	X: 0	Y: 0	SP: fd
f516	1d	ROR	A: 0	X: 0	Y: 0	SP: fd
f518	1e	ROR	A: 0	X: 0	Y: 0	SP: fd
f51a	1f	ROR	A: 0	X: 0	Y: 0	SP: fd
f51c	0	RTS	A: 0	X: 0	Y: 0	SP: fd
c7e4	c7e1	JMP	A: 0	X: 0	Y: 0	SP: ff
c7e1	f4fc	JSR	A: 0	X: 0	Y: 0	SP: ff
f4fc	18	LDA	A: 0	X: 0	Y: 0	SP: fd
f4fe	f4ff	AND	A: 0	X: 0	Y: 0	SP: fd
f500	0	STA	A: 0	X: 0	Y: 0	SP: fd
f502	19	LDA	A: 0	X: 0	Y: 0	SP: fd
f504	f505	AND	A: 0	X: 0	Y: 0	SP: fd
f506	0	EOR	A: 0	X: 0	Y: 0	SP: fd
f508	0	CLC	A: 0	X: 0	Y: 0	SP: fd
f509	f50c	BEQ	A: 0	X: 0	Y: 0	SP: fd
f50c	18	ROR	A: 0	X: 0	Y: 0	SP: fd
f50e	19	ROR	A: 0	X: 0	Y: 0	SP: fd
f510	1a	ROR	A: 0	X: 0	Y: 0	SP: fd
f512	1b	ROR	A: 0	X: 0	Y: 0	SP: fd
f514	1c	ROR	A: 0	X: 0	Y: 0	SP: fd
f516	1d	ROR	A: 0	X: 0	Y: 0	SP: fd
f518	1e	ROR	A: 0	X: 0	Y: 0	SP: fd
f51a	1f	ROR	A: 0	X: 0	Y: 0	SP: fd
f51c	0	RTS	A: 0	X: 0	Y: 0	SP: fd
c7e4	c7e1	JMP	A: 0	X: 0	Y: 0	SP: ff
c7e1	f4fc	JSR	A: 0	X: 0	Y: 0	SP: ff
f4fc	18	LDA	A: 0	X: 0	Y: 0	SP: fd
f4fe	f4ff	AND	A: 0	X: 0	Y: 0	SP: fd
f500	0	STA	A: 0	X: 0	Y: 0	SP: fd
f502	19	LDA	A: 0	X: 0	Y: 0	SP: fd
f504	f505	AND	A: 0	X: 0	Y: 0	SP: fd
f506	0	EOR	A: 0	X: 0	Y: 0	SP: fd
f508	0	CLC	A: 0	X: 0	Y: 0	SP: fd
f509	f50c	BEQ	A: 0	X: 0	Y: 0	SP: fd
f50c	18	ROR	A: 0	X: 0	Y: 0	SP: fd
f50e	19	ROR	A: 0	X: 0	Y: 0	SP: fd
f510	1a	ROR	A: 0	X: 0	Y: 0	SP: fd
f512	1b	ROR	A: 0	X: 0	Y: 0	SP: fd
f514	1c	ROR	A: 0	X: 0	Y: 0	SP: fd
f516	1d	ROR	A: 0	X: 0	Y: 0	SP: fd
f518	1e	ROR	A: 0	X: 0	Y: 0	SP: fd
f51a	1f	ROR	A: 0	X: 0	Y: 0	SP: fd
f51c	0	RTS	A: 0	X: 0	Y: 0	SP: fd
c7e4	c7e1	JMP	A: 0	X: 0	Y: 0	SP: ff
c7e1	f4fc	JSR	A: 0	X: 0	Y: 0	SP: ff
f4fc	18	LDA	A: 0	X: 0	Y: 0	SP: fd
f4fe	f4ff	AND	A: 0	X: 0	Y: 0	SP: fd
f500	0	STA	A: 0	X: 0	Y: 0	SP: fd
f502	19	LDA	A: 0	X: 0	Y: 0	SP: fd
f504	f505	AND	A: 0	X: 0	Y: 0	SP: fd
f506	0	EOR	A: 0	X: 0	Y: 0	SP: fd
f508	0	CLC	A: 0	X: 0	Y: 0	SP: fd
f509	f50c	BEQ	A: 0	X: 0	Y: 0	SP: fd
f50c	18	ROR	A: 0	X: 0	Y: 0	SP: fd
f50e	19	ROR	A: 0	X: 0	Y: 0	SP: fd
f510	1a	ROR	A: 0	X: 0	Y: 0	SP: fd
f512	1b	ROR	A: 0	X: 0	Y: 0	SP: fd
f514	1c	ROR	A: 0	X: 0	Y: 0	SP: fd
f516	1d	ROR	A: 0	X: 0	Y: 0	SP: fd
f518	1e	ROR	A: 0	X: 0	Y: 0	SP: fd
f51a	1f	ROR	A: 0	X: 0	Y: 0	SP: fd
f51c	0	RTS	A: 0	X: 0	Y: 0	SP: fd
c7e4	c7e1	JMP	A: 0	X: 0	Y: 0	SP: ff
c7e1	f4fc	JSR	A: 0	X: 0	Y: 0	SP: ff
f4fc	18	LDA	A: 0	X: 0	Y: 0	SP: fd
f4fe	f4ff	AND	A: 0	X: 0	Y: 0	SP: fd
f500	0	STA	A: 0	X: 0	Y: 0	SP: fd
f502	19	LDA	A: 0	X: 0	Y: 0	SP: fd
f504	f505	AND	A: 0	X: 0	Y: 0	SP: fd
f506	0	EOR	A: 0	X: 0	Y: 0	SP: fd
f508	0	CLC	A: 0	X: 0	Y: 0	SP: fd
f509	f50c	BEQ	A: 0	X: 0	Y: 0	SP: fd
f50c	18	ROR	A: 0	X: 0	Y: 0	SP: fd
f50e	19	ROR	A: 0	X: 0	Y: 0	SP: fd
f510	1a	ROR	A: 0	X: 0	Y: 0	SP: fd
f512	1b	ROR	A: 0	X: 0	Y: 0	SP: fd
f514	1c	ROR	A: 0	X: 0	Y: 0	SP: fd
f516	1d	ROR	A: 0	X: 0	Y: 0	SP: fd
f518	1e	ROR	A: 0	X: 0	Y: 0	SP: fd
f51a	1f	ROR	A: 0	X: 0	Y: 0	SP: fd
f51c	0	RTS	A: 0	X: 0	Y: 0	SP: fd
c7e4	c7e1	JMP	A: 0	X: 0	Y: 0	SP: ff
c7e1	f4fc	JSR	A: 0	X: 0	Y: 0	SP: ff
f4fc	18	LDA	A: 0	X: 0	Y: 0	SP: fd
f4fe	f4ff	AND	A: 0	X: 0	Y: 0	SP: fd
f500	0	STA	A: 0	X: 0	Y: 0	SP: fd
f502	19	LDA	A: 0	X: 0	Y: 0	SP: fd
f504	f505	AND	A: 0	X: 0	Y: 0	SP: fd
f506	0	EOR	A: 0	X: 0	Y: 0	SP: fd
f508	0	CLC	A: 0	X: 0	Y: 0	SP: fd
f509	f50c	BEQ	A: 0	X: 0	Y: 0	SP: fd
f50c	18	ROR	A: 0	X: 0	Y: 0	SP: fd
f50e	19	ROR	A: 0	X: 0	Y: 0	SP: fd
f510	1a	ROR	A: 0	X: 0	Y: 0	SP: fd
f512	1b	ROR	A: 0	X: 0	Y: 0	SP: fd
f514	1c	ROR	A: 0	X: 0	Y: 0	SP: fd
f516	1d	ROR	A: 0	X: 0	Y: 0	SP: fd
f518	1e	ROR	A: 0	X: 0	Y: 0	SP: fd
f51a	1f	ROR	A: 0	X: 0	Y: 0	SP: fd
f51c	0	RTS	A: 0	X: 0	Y: 0	SP: fd
c7e4	c7e1	JMP	A: 0	X: 0	Y: 0	SP: ff
c7e1	f4fc	JSR	A: 0	X: 0	Y: 0	SP: ff
f4fc	18	LDA	A: 0	X: 0	Y: 0	SP: fd
f4fe	f4ff	AND	A: 0	X: 0	Y: 0	SP: fd
f500	0	STA	A: 0	X: 0	Y: 0	SP: fd
f502	19	LDA	A: 0	X: 0	Y: 0	SP: fd
f504	f505	AND	A: 0	X: 0	Y: 0	SP: fd
f506	0	EOR	A: 0	X: 0	Y: 0	SP: fd
f508	0	CLC	A: 0	X: 0	Y: 0	SP: fd
f509	f50c	BEQ	A: 0	X: 0	Y: 0	SP: fd
f50c	18	ROR	A: 0	X: 0	Y: 0	SP: fd
f50e	19	ROR	A: 0	X: 0	Y: 0	SP: fd
f510	1a	ROR	A: 0	X: 0	Y: 0	SP: fd
f512	1b	ROR	A: 0	X: 0	Y: 0	SP: fd
f514	1c	ROR	A: 0	X: 0	Y: 0	SP: fd
f516	1d	ROR	A: 0	X: 0	Y: 0	SP: fd
f518	1e	ROR	A: 0	X: 0	Y: 0	SP: fd
f51a	1f	ROR	A: 0	X: 0	Y: 0	SP: fd
f51c	0	RTS	A: 0	X: 0	Y: 0	SP: fd
c7e4	c7e1	JMP	A: 0	X: 0	Y: 0	SP: ff
c7e1	f4fc	JSR	A: 0	X: 0	Y: 0	SP: ff
f4fc	18	LDA	A: 0	X: 0	Y: 0	SP: fd
f4fe	f4ff	AND	A: 0	X: 0	Y: 0	SP: fd
f500	0	STA	A: 0	X: 0	Y: 0	SP: fd
f502	19	LDA	A: 0	X: 0	Y: 0	SP: fd
f504	f505	AND	A: 0	X: 0	Y: 0	SP: fd
f506	0	EOR	A: 0	X: 0	Y: 0	SP: fd
f508	0	CLC	A: 0	X: 0	Y: 0	SP: fd
f509	f50c	BEQ	A: 0	X: 0	Y: 0	SP: fd
f50c	18	ROR	A: 0	X: 0	Y: 0	SP: fd
f50e	19	ROR	A: 0	X: 0	Y: 0	SP: fd
f510	1a	ROR	A: 0	X: 0	Y: 0	SP: fd
f512	1b	ROR	A: 0	X: 0	Y: 0	SP: fd
f514	1c	ROR	A: 0	X: 0	Y: 0	SP: fd
f516	1d	ROR	A: 0	X: 0	Y: 0	SP: fd
f518	1e	ROR	A: 0	X: 0	Y: 0	SP: fd
f51a	1f	ROR	A: 0	X: 0	Y: 0	SP: fd
f51c	0	RTS	A: 0	X: 0	Y: 0	SP: fd
c7e4	c7e1	JMP	A: 0	X: 0	Y: 0	SP: ff
c7e1	f4fc	JSR	A: 0	X: 0	Y: 0	SP: ff
f4fc	18	LDA	A: 0	X: 0	Y: 0	SP: fd
f4fe	f4ff	AND	A: 0	X: 0	Y: 0	SP: fd
f500	0	STA	A: 0	X: 0	Y: 0	SP: fd
f502	19	LDA	A: 0	X: 0	Y: 0	SP: fd
f504	f505	AND	A: 0	X: 0	Y: 0	SP: fd
f506	0	EOR	A: 0	X: 0	Y: 0	SP: fd
f508	0	CLC	A: 0	X: 0	Y: 0	SP: fd
f509	f50c	BEQ	A: 0	X: 0	Y: 0	SP: fd
f50c	18	ROR	A: 0	X: 0	Y: 0	SP: fd
f50e	19	ROR	A: 0	X: 0	Y: 0	SP: fd
f510	1a	ROR	A: 0	X: 0	Y: 0	SP: fd
f512	1b	ROR	A: 0	X: 0	Y: 0	SP: fd
f514	1c	ROR	A: 0	X: 0	Y: 0	SP: fd
f516	1d	ROR	A: 0	X: 0	Y: 0	SP: fd
f518	1e	ROR	A: 0	X: 0	Y: 0	SP: fd
f51a	1f	ROR	A: 0	X: 0	Y: 0	SP: fd
f51c	0	RTS	A: 0	X: 0	Y: 0	SP: fd
c7e4	c7e1	JMP	A: 0	X: 0	Y: 0	SP: ff
c7e1	f4fc	JSR	A: 0	X: 0	Y: 0	SP: ff
f4fc	18	LDA	A: 0	X: 0	Y: 0	SP: fd
f4fe	f4ff	AND	A: 0	X: 0	Y: 0	SP: fd
f500	0	STA	A: 0	X: 0	Y: 0	SP: fd
f502	19	LDA	A: 0	X: 0	Y: 0	SP: fd
f504	f505	AND	A: 0	X: 0	Y: 0	SP: fd
f506	0	EOR	A: 0	X: 0	Y: 0	SP: fd
f508	0	CLC	A: 0	X: 0	Y: 0	SP: fd
f509	f50c	BEQ	A: 0	X: 0	Y: 0	SP: fd
f50c	18	ROR	A: 0	X: 0	Y: 0	SP: fd
f50e	19	ROR	A: 0	X: 0	Y: 0	SP: fd
f510	1a	ROR	A: 0	X: 0	Y: 0	SP: fd
f512	1b	ROR	A: 0	X: 0	Y: 0	SP: fd
f514	1c	ROR	A: 0	X: 0	Y: 0	SP: fd
f516	1d	ROR	A: 0	X: 0	Y: 0	SP: fd
f518	1e	ROR	A: 0	X: 0	Y: 0	SP: fd
f51a	1f	ROR	A: 0	X: 0	Y: 0	SP: fd
f51c	0	RTS	A: 0	X: 0	Y: 0	SP: fd
c7e4	c7e1	JMP	A: 0	X: 0	Y: 0	SP: ff
c7e1	f4fc	JSR	A: 0	X: 0	Y: 0	SP: ff
f4fc	18	LDA	A: 0	X: 0	Y: 0	SP: fd
f4fe	f4ff	AND	A: 0	X: 0	Y: 0	SP: fd
f500	0	STA	A: 0	X: 0	Y: 0	SP: fd
f502	19	LDA	A: 0	X: 0	Y: 0	SP: fd
f504	f505	AND	A: 0	X: 0	Y: 0	SP: fd
f506	0	EOR	A: 0	X: 0	Y: 0	SP: fd
f508	0	CLC	A: 0	X: 0	Y: 0	SP: fd
f509	f50c	BEQ	A: 0	X: 0	Y: 0	SP: fd
f50c	18	ROR	A: 0	X: 0	Y: 0	SP: fd
f50e	19	ROR	A: 0	X: 0	Y: 0	SP: fd
f510	1a	ROR	A: 0	X: 0	Y: 0	SP: fd
f512	1b	ROR	A: 0	X: 0	Y: 0	SP: fd
f514	1c	ROR	A: 0	X: 0	Y: 0	SP: fd
f516	1d	ROR	A: 0	X: 0	Y: 0	SP: fd
f518	1e	ROR	A: 0	X: 0	Y: 0	SP: fd
f51a	1f	ROR	A: 0	X: 0	Y: 0	SP: fd
f51c	0	RTS	A: 0	X: 0	Y: 0	SP: fd
c7e4	c7e1	JMP	A: 0	X: 0	Y: 0	SP: ff
c7e1	f4fc	JSR	A: 0	X: 0	Y: 0	SP: ff
f4fc	18	LDA	A: 0	X: 0	Y: 0	SP: fd
f4fe	f4ff	AND	A: 0	X: 0	Y: 0	SP: fd
f500	0	STA	A: 0	X: 0	Y: 0	SP: fd
f502	19	LDA	A: 0	X: 0	Y: 0	SP: fd
f504	f505	AND	A: 0	X: 0	Y: 0	SP: fd
f506	0	EOR	A: 0	X: 0	Y: 0	SP: fd
f508	0	CLC	A: 0	X: 0	Y: 0	SP: fd
f509	f50c	BEQ	A: 0	X: 0	Y: 0	SP: fd
f50c	18	ROR	A: 0	X: 0	Y: 0	SP: fd
f50e	19	ROR	A: 0	X: 0	Y: 0	SP: fd
f510	1a	ROR	A: 0	X: 0	Y: 0	SP: fd
f512	1b	ROR	A: 0	X: 0	Y: 0	SP: fd
f514	1c	ROR	A: 0	X: 0	Y: 0	SP: fd
f516	1d	ROR	A: 0	X: 0	Y: 0	SP: fd
f518	1e	ROR	A: 0	X: 0	Y: 0	SP: fd
f51a	1f	ROR	A: 0	X: 0	Y: 0	SP: fd
f51c	0	RTS	A: 0	X: 0	Y: 0	SP: fd
c7e4	c7e1	JMP	A: 0	X: 0	Y: 0	SP: ff
c7e1	f4fc	JSR	A: 0	X: 0	Y: 0	SP: ff
f4fc	18	LDA	A: 0	X: 0	Y: 0	SP: fd
f4fe	f4ff	AND	A: 0	X: 0	Y: 0	SP: fd
f500	0	STA	A: 0	X: 0	Y: 0	SP: fd
f502	19	LDA	A: 0	X: 0	Y: 0	SP: fd
f504	f505	AND	A: 0	X: 0	Y: 0	SP: fd
f506	0	EOR	A: 0	X: 0	Y: 0	SP: fd
f508	0	CLC	A: 0	X: 0	Y: 0	SP: fd
f509	f50c	BEQ	A: 0	X: 0	Y: 0	SP: fd
f50c	18	ROR	A: 0	X: 0	Y: 0	SP: fd
f50e	19	ROR	A: 0	X: 0	Y: 0	SP: fd
f510	1a	ROR	A: 0	X: 0	Y: 0	SP: fd
f512	1b	ROR	A: 0	X: 0	Y: 0	SP: fd
f514	1c	ROR	A: 0	X: 0	Y: 0	SP: fd
f516	1d	ROR	A: 0	X: 0	Y: 0	SP: fd
f518	1e	ROR	A: 0	X: 0	Y: 0	SP: fd
f51a	1f	ROR	A: 0	X: 0	Y: 0	SP: fd
f51c	0	RTS	A: 0	X: 0	Y: 0	SP: fd
c7e4	c7e1	JMP	A: 0	X: 0	Y: 0	SP: ff
c7e1	f4fc	JSR	A: 0	X: 0	Y: 0	SP: ff
f4fc	18	LDA	A: 0	X: 0	Y: 0	SP: fd
f4fe	f4ff	AND	A: 0	X: 0	Y: 0	SP: fd
f500	0	STA	A: 0	X: 0	Y: 0	SP: fd
f502	19	LDA	A: 0	X: 0	Y: 0	SP: fd
f504	f505	AND	A: 0	X: 0	Y: 0	SP: fd
f506	0	EOR	A: 0	X: 0	Y: 0	SP: fd
f508	0	CLC	A: 0	X: 0	Y: 0	SP: fd
f509	f50c	BEQ	A: 0	X: 0	Y: 0	SP: fd
f50c	18	ROR	A: 0	X: 0	Y: 0	SP: fd
f50e	19	ROR	A: 0	X: 0	Y: 0	SP: fd
f510	1a	ROR	A: 0	X: 0	Y: 0	SP: fd
f512	1b	ROR	A: 0	X: 0	Y: 0	SP: fd
f514	1c	ROR	A: 0	X: 0	Y: 0	SP: fd
f516	1d	ROR	A: 0	X: 0	Y: 0	SP: fd
f518	1e	ROR	A: 0	X: 0	Y: 0	SP: fd
f51a	1f	ROR	A: 0	X: 0	Y: 0	SP: fd
f51c	0	RTS	A: 0	X: 0	Y: 0	SP: fd
c7e4	c7e1	JMP	A: 0	X: 0	Y: 0	SP: ff
c7e1	f4fc	JSR	A: 0	X: 0	Y: 0	SP: ff
f4fc	18	LDA	A: 0	X: 0	Y: 0	SP: fd
f4fe	f4ff	AND	A: 0	X: 0	Y: 0	SP: fd
f500	0	STA	A: 0	X: 0	Y: 0	SP: fd
f502	19	LDA	A: 0	X: 0	Y: 0	SP: fd
f504	f505	AND	A: 0	X: 0	Y: 0	SP: fd
f506	0	EOR	A: 0	X: 0	Y: 0	SP: fd
f508	0	CLC	A: 0	X: 0	Y: 0	SP: fd
f509	f50c	BEQ	A: 0	X: 0	Y: 0	SP: fd
f50c	18	ROR	A: 0	X: 0	Y: 0	SP: fd
f50e	19	ROR	A: 0	X: 0	Y: 0	SP: fd
f510	1a	ROR	A: 0	X: 0	Y: 0	SP: fd
f512	1b	ROR	A: 0	X: 0	Y: 0	SP: fd
f514	1c	ROR	A: 0	X: 0	Y: 0	SP: fd
f516	1d	ROR	A: 0	X: 0	Y: 0	SP: fd
f518	1e	ROR	A: 0	X: 0	Y: 0	SP: fd
f51a	1f	ROR	A: 0	X: 0	Y: 0	SP: fd
f51c	0	RTS	A: 0	X: 0	Y: 0	SP: fd
c7e4	c7e1	JMP	A: 0	X: 0	Y: 0	SP: ff
c7e1	f4fc	JSR	A: 0	X: 0	Y: 0	SP: ff
f4fc	18	LDA	A: 0	X: 0	Y: 0	SP: fd
f4fe	f4ff	AND	A: 0	X: 0	Y: 0	SP: fd
f500	0	STA	A: 0	X: 0	Y: 0	SP: fd
f502	19	LDA	A: 0	X: 0	Y: 0	SP: fd
f504	f505	AND	A: 0	X: 0	Y: 0	SP: fd
f506	0	EOR	A: 0	X: 0	Y: 0	SP: fd
f508	0	CLC	A: 0	X: 0	Y: 0	SP: fd
f509	f50c	BEQ	A: 0	X: 0	Y: 0	SP: fd
f50c	18	ROR	A: 0	X: 0	Y: 0	SP: fd
f50e	19	ROR	A: 0	X: 0	Y: 0	SP: fd
f510	1a	ROR	A: 0	X: 0	Y: 0	SP: fd
f512	1b	ROR	A: 0	X: 0	Y: 0	SP: fd
f514	1c	ROR	A: 0	X: 0	Y: 0	SP: fd
f516	1d	ROR	A: 0	X: 0	Y: 0	SP: fd
f518	1e	ROR	A: 0	X: 0	Y: 0	SP: fd
f51a	1f	ROR	A: 0	X: 0	Y: 0	SP: fd
f51c	0	RTS	A: 0	X: 0	Y: 0	SP: fd
c7e4	c7e1	JMP	A: 0	X: 0	Y: 0	SP: ff
c7e1	f4fc	JSR	A: 0	X: 0	Y: 0	SP: ff
f4fc	18	LDA	A: 0	X: 0	Y: 0	SP: fd
f4fe	f4ff	AND	A: 0	X: 0	Y: 0	SP: fd
f500	0	STA	A: 0	X: 0	Y: 0	SP: fd
f502	19	LDA	A: 0	X: 0	Y: 0	SP: fd
f504	f505	AND	A: 0	X: 0	Y: 0	SP: fd
f506	0	EOR	A: 0	X: 0	Y: 0	SP: fd
f508	0	CLC	A: 0	X: 0	Y: 0	SP: fd
f509	f50c	BEQ	A: 0	X: 0	Y: 0	SP: fd
f50c	18	ROR	A: 0	X: 0	Y: 0	SP: fd
f50e	19	ROR	A: 0	X: 0	Y: 0	SP: fd
f510	1a	ROR	A: 0	X: 0	Y: 0	SP: fd
f512	1b	ROR	A: 0	X: 0	Y: 0	SP: fd
f514	1c	ROR	A: 0	X: 0	Y: 0	SP: fd
f516	1d	ROR	A: 0	X: 0	Y: 0	SP: fd
f518	1e	ROR	A: 0	X: 0	Y: 0	SP: fd
f51a	1f	ROR	A: 0	X: 0	Y: 0	SP: fd
f51c	0	RTS	A: 0	X: 0	Y: 0	SP: fd
c7e4	c7e1	JMP	A: 0	X: 0	Y: 0	SP: ff
c7e1	f4fc	JSR	A: 0	X: 0	Y: 0	SP: ff
f4fc	18	LDA	A: 0	X: 0	Y: 0	SP: fd
f4fe	f4ff	AND	A: 0	X: 0	Y: 0	SP: fd
f500	0	STA	A: 0	X: 0	Y: 0	SP: fd
f502	19	LDA	A: 0	X: 0	Y: 0	SP: fd
f504	f505	AND	A: 0	X: 0	Y: 0	SP: fd
f506	0	EOR	A: 0	X: 0	Y: 0	SP: fd
f508	0	CLC	A: 0	X: 0	Y: 0	SP: fd
f509	f50c	BEQ	A: 0	X: 0	Y: 0	SP: fd
f50c	18	ROR	A: 0	X: 0	Y: 0	SP: fd
f50e	19	ROR	A: 0	X: 0	Y: 0	SP: fd
f510	1a	ROR	A: 0	X: 0	Y: 0	SP: fd
f512	1b	ROR	A: 0	X: 0	Y: 0	SP: fd
f514	1c	ROR	A: 0	X: 0	Y: 0	SP: fd
f516	1d	ROR	A: 0	X: 0	Y: 0	SP: fd
f518	1e	ROR	A: 0	X: 0	Y: 0	SP: fd
f51a	1f	ROR	A: 0	X: 0	Y: 0	SP: fd
f51c	0	RTS	A: 0	X: 0	Y: 0	SP: fd
c7e4	c7e1	JMP	A: 0	X: 0	Y: 0	SP: ff
c7e1	f4fc	JSR	A: 0	X: 0	Y: 0	SP: ff
f4fc	18	LDA	A: 0	X: 0	Y: 0	SP: fd
f4fe	f4ff	AND	A: 0	X: 0	Y: 0	SP: fd
f500	0	STA	A: 0	X: 0	Y: 0	SP: fd
f502	19	LDA	A: 0	X: 0	Y: 0	SP: fd
f504	f505	AND	A: 0	X: 0	Y: 0	SP: fd
f506	0	EOR	A: 0	X: 0	Y: 0	SP: fd
f508	0	CLC	A: 0	X: 0	Y: 0	SP: fd
f509	f50c	BEQ	A: 0	X: 0	Y: 0	SP: fd
f50c	18	ROR	A: 0	X: 0	Y: 0	SP: fd
f50e	19	ROR	A: 0	X: 0	Y: 0	SP: fd
f510	1a	ROR	A: 0	X: 0	Y: 0	SP: fd
f512	1b	ROR	A: 0	X: 0	Y: 0	SP: fd
f514	1c	ROR	A: 0	X: 0	Y: 0	SP: fd
f516	1d	ROR	A: 0	X: 0	Y: 0	SP: fd
f518	1e	ROR	A: 0	X: 0	Y: 0	SP: fd
f51a	1f	ROR	A: 0	X: 0	Y: 0	SP: fd
f51c	0	RTS	A: 0	X: 0	Y: 0	SP: fd
c7e4	c7e1	JMP	A: 0	X: 0	Y: 0	SP: ff
c7e1	f4fc	JSR	A: 0	X: 0	Y: 0	SP: ff
f4fc	18	LDA	A: 0	X: 0	Y: 0	SP: fd
f4fe	f4ff	AND	A: 0	X: 0	Y: 0	SP: fd
f500	0	STA	A: 0	X: 0	Y: 0	SP: fd
f502	19	LDA	A: 0	X: 0	Y: 0	SP: fd
f504	f505	AND	A: 0	X: 0	Y: 0	SP: fd
f506	0	EOR	A: 0	X: 0	Y: 0	SP: fd
f508	0	CLC	A: 0	X: 0	Y: 0	SP: fd
f509	f50c	BEQ	A: 0	X: 0	Y: 0	SP: fd
f50c	18	ROR	A: 0	X: 0	Y: 0	SP: fd
f50e	19	ROR	A: 0	X: 0	Y: 0	SP: fd
f510	1a	ROR	A: 0	X: 0	Y: 0	SP: fd
f512	1b	ROR	A: 0	X: 0	Y: 0	SP: fd
f514	1c	ROR	A: 0	X: 0	Y: 0	SP: fd
f516	1d	ROR	A: 0	X: 0	Y: 0	SP: fd
f518	1e	ROR	A: 0	X: 0	Y: 0	SP: fd
f51a	1f	ROR	A: 0	X: 0	Y: 0	SP: fd
f51c	0	RTS	A: 0	X: 0	Y: 0	SP: fd
c7e4	c7e1	JMP	A: 0	X: 0	Y: 0	SP: ff
c7e1	f4fc	JSR	A: 0	X: 0	Y: 0	SP: ff
f4fc	18	LDA	A: 0	X: 0	Y: 0	SP: fd
f4fe	f4ff	AND	A: 0	X: 0	Y: 0	SP: fd
f500	0	STA	A: 0	X: 0	Y: 0	SP: fd
f502	19	LDA	A: 0	X: 0	Y: 0	SP: fd
f504	f505	AND	A: 0	X: 0	Y: 0	SP: fd
f506	0	EOR	A: 0	X: 0	Y: 0	SP: fd
f508	0	CLC	A: 0	X: 0	Y: 0	SP: fd
f509	f50c	BEQ	A: 0	X: 0	Y: 0	SP: fd
f50c	18	ROR	A: 0	X: 0	Y: 0	SP: fd
f50e	19	ROR	A: 0	X: 0	Y: 0	SP: fd
f510	1a	ROR	A: 0	X: 0	Y: 0	SP: fd
f512	1b	ROR	A: 0	X: 0	Y: 0	SP: fd
f514	1c	ROR	A: 0	X: 0	Y: 0	SP: fd
f516	1d	ROR	A: 0	X: 0	Y: 0	SP: fd
f518	1e	ROR	A: 0	X: 0	Y: 0	SP: fd
f51a	1f	ROR	A: 0	X: 0	Y: 0	SP: fd
f51c	0	RTS	A: 0	X: 0	Y: 0	SP: fd
c7e4	c7e1	JMP	A: 0	X: 0	Y: 0	SP: ff
c7e1	f4fc	JSR	A: 0	X: 0	Y: 0	SP: ff
f4fc	18	LDA	A: 0	X: 0	Y: 0	SP: fd
f4fe	f4ff	AND	A: 0	X: 0	Y: 0	SP: fd
f500	0	STA	A: 0	X: 0	Y: 0	SP: fd
f502	19	LDA	A: 0	X: 0	Y: 0	SP: fd
f504	f505	AND	A: 0	X: 0	Y: 0	SP: fd
f506	0	EOR	A: 0	X: 0	Y: 0	SP: fd
f508	0	CLC	A: 0	X: 0	Y: 0	SP: fd
f509	f50c	BEQ	A: 0	X: 0	Y: 0	SP: fd
f50c	18	ROR	A: 0	X: 0	Y: 0	SP: fd
f50e	19	ROR	A: 0	X: 0	Y: 0	SP: fd
f510	1a	ROR	A: 0	X: 0	Y: 0	SP: fd
f512	1b	ROR	A: 0	X: 0	Y: 0	SP: fd
f514	1c	ROR	A: 0	X: 0	Y: 0	SP: fd
f516	1d	ROR	A: 0	X: 0	Y: 0	SP: fd
f518	1e	ROR	A: 0	X: 0	Y: 0	SP: fd
f51a	1f	ROR	A: 0	X: 0	Y: 0	SP: fd
f51c	0	RTS	A: 0	X: 0	Y: 0	SP: fd
c7e4	c7e1	JMP	A: 0	X: 0	Y: 0	SP: ff
c7e1	f4fc	JSR	A: 0	X: 0	Y: 0	SP: ff
f4fc	18	LDA	A: 0	X: 0	Y: 0	SP: fd
f4fe	f4ff	AND	A: 0	X: 0	Y: 0	SP: fd
f500	0	STA	A: 0	X: 0	Y: 0	SP: fd
f502	19	LDA	A: 0	X: 0	Y: 0	SP: fd
f504	f505	AND	A: 0	X: 0	Y: 0	SP: fd
f506	0	EOR	A: 0	X: 0	Y: 0	SP: fd
f508	0	CLC	A: 0	X: 0	Y: 0	SP: fd
f509	f50c	BEQ	A: 0	X: 0	Y: 0	SP: fd
f50c	18	ROR	A: 0	X: 0	Y: 0	SP: fd
f50e	19	ROR	A: 0	X: 0	Y: 0	SP: fd
f510	1a	ROR	A: 0	X: 0	Y: 0	SP: fd
f512	1b	ROR	A: 0	X: 0	Y: 0	SP: fd
f514	1c	ROR	A: 0	X: 0	Y: 0	SP: fd
f516	1d	ROR	A: 0	X: 0	Y: 0	SP: fd
f518	1e	ROR	A: 0	X: 0	Y: 0	SP: fd
f51a	1f	ROR	A: 0	X: 0	Y: 0	SP: fd
f51c	0	RTS	A: 0	X: 0	Y: 0	SP: fd
c7e4	c7e1	JMP	A: 0	X: 0	Y: 0	SP: ff
c7e1	f4fc	JSR	A: 0	X: 0	Y: 0	SP: ff
f4fc	18	LDA	A: 0	X: 0	Y: 0	SP: fd
f4fe	f4ff	AND	A: 0	X: 0	Y: 0	SP: fd
f500	0	STA	A: 0	X: 0	Y: 0	SP: fd
f502	19	LDA	A: 0	X: 0	Y: 0	SP: fd
f504	f505	AND	A: 0	X: 0	Y: 0	SP: fd
f506	0	EOR	A: 0	X: 0	Y: 0	SP: fd
f508	0	CLC	A: 0	X: 0	Y: 0	SP: fd
f509	f50c	BEQ	A: 0	X: 0	Y: 0	SP: fd
f50c	18	ROR	A: 0	X: 0	Y: 0	SP: fd
f50e	19	ROR	A: 0	X: 0	Y: 0	SP: fd
f510	1a	ROR	A: 0	X: 0	Y: 0	SP: fd
f512	1b	ROR	A: 0	X: 0	Y: 0	SP: fd
f514	1c	ROR	A: 0	X: 0	Y: 0	SP: fd
f516	1d	ROR	A: 0	X: 0	Y: 0	SP: fd
f518	1e	ROR	A: 0	X: 0	Y: 0	SP: fd
f51a	1f	ROR	A: 0	X: 0	Y: 0	SP: fd
f51c	0	RTS	A: 0	X: 0	Y: 0	SP: fd
c7e4	c7e1	JMP	A: 0	X: 0	Y: 0	SP: ff
c7e1	f4fc	JSR	A: 0	X: 0	Y: 0	SP: ff
f4fc	18	LDA	A: 0	X: 0	Y: 0	SP: fd
f4fe	f4ff	AND	A: 0	X: 0	Y: 0	SP: fd
f500	0	STA	A: 0	X: 0	Y: 0	SP: fd
f502	19	LDA	A: 0	X: 0	Y: 0	SP: fd
f504	f505	AND	A: 0	X: 0	Y: 0	SP: fd
f506	0	EOR	A: 0	X: 0	Y: 0	SP: fd
f508	0	CLC	A: 0	X: 0	Y: 0	SP: fd
f509	f50c	BEQ	A: 0	X: 0	Y: 0	SP: fd
f50c	18	ROR	A: 0	X: 0	Y: 0	SP: fd
f50e	19	ROR	A: 0	X: 0	Y: 0	SP: fd
f510	1a	ROR	A: 0	X: 0	Y: 0	SP: fd
f512	1b	ROR	A: 0	X: 0	Y: 0	SP: fd
f514	1c	ROR	A: 0	X: 0	Y: 0	SP: fd
f516	1d	ROR	A: 0	X: 0	Y: 0	SP: fd
f518	1e	ROR	A: 0	X: 0	Y: 0	SP: fd
f51a	1f	ROR	A: 0	X: 0	Y: 0	SP: fd
f51c	0	RTS	A: 0	X: 0	Y: 0	SP: fd
c7e4	c7e1	JMP	A: 0	X: 0	Y: 0	SP: ff
c7e1	f4fc	JSR	A: 0	X: 0	Y: 0	SP: ff
f4fc	18	LDA	A: 0	X: 0	Y: 0	SP: fd
f4fe	f4ff	AND	A: 0	X: 0	Y: 0	SP: fd
f500	0	STA	A: 0	X: 0	Y: 0	SP: fd
f502	19	LDA	A: 0	X: 0	Y: 0	SP: fd
f504	f505	AND	A: 0	X: 0	Y: 0	SP: fd
f506	0	EOR	A: 0	X: 0	Y: 0	SP: fd
f508	0	CLC	A: 0	X: 0	Y: 0	SP: fd
f509	f50c	BEQ	A: 0	X: 0	Y: 0	SP: fd
f50c	18	ROR	A: 0	X: 0	Y: 0	SP: fd
f50e	19	ROR	A: 0	X: 0	Y: 0	SP: fd
f510	1a	ROR	A: 0	X: 0	Y: 0	SP: fd
f512	1b	ROR	A: 0	X: 0	Y: 0	SP: fd
f514	1c	ROR	A: 0	X: 0	Y: 0	SP: fd
f516	1d	ROR	A: 0	X: 0	Y: 0	SP: fd
f518	1e	ROR	A: 0	X: 0	Y: 0	SP: fd
f51a	1f	ROR	A: 0	X: 0	Y: 0	SP: fd
f51c	0	RTS	A: 0	X: 0	Y: 0	SP: fd
c7e4	c7e1	JMP	A: 0	X: 0	Y: 0	SP: ff
c7e1	f4fc	JSR	A: 0	X: 0	Y: 0	SP: ff
f4fc	18	LDA	A: 0	X: 0	Y: 0	SP: fd
f4fe	f4ff	AND	A: 0	X: 0	Y: 0	SP: fd
f500	0	STA	A: 0	X: 0	Y: 0	SP: fd
f502	19	LDA	A: 0	X: 0	Y: 0	SP: fd
f504	f505	AND	A: 0	X: 0	Y: 0	SP: fd
f506	0	EOR	A: 0	X: 0	Y: 0	SP: fd
f508	0	CLC	A: 0	X: 0	Y: 0	SP: fd
f509	f50c	BEQ	A: 0	X: 0	Y: 0	SP: fd
f50c	18	ROR	A: 0	X: 0	Y: 0	SP: fd
f50e	19	ROR	A: 0	X: 0	Y: 0	SP: fd
f510	1a	ROR	A: 0	X: 0	Y: 0	SP: fd
f512	1b	ROR	A: 0	X: 0	Y: 0	SP: fd
f514	1c	ROR	A: 0	X: 0	Y: 0	SP: fd
f516	1d	ROR	A: 0	X: 0	Y: 0	SP: fd
f518	1e	ROR	A: 0	X: 0	Y: 0	SP: fd
f51a	1f	ROR	A: 0	X: 0	Y: 0	SP: fd
f51c	0	RTS	A: 0	X: 0	Y: 0	SP: fd
c7e4	c7e1	JMP	A: 0	X: 0	Y: 0	SP: ff
c7e1	f4fc	JSR	A: 0	X: 0	Y: 0	SP: ff
f4fc	18	LDA	A: 0	X: 0	Y: 0	SP: fd
f4fe	f4ff	AND	A: 0	X: 0	Y: 0	SP: fd
f500	0	STA	A: 0	X: 0	Y: 0	SP: fd
f502	19	LDA	A: 0	X: 0	Y: 0	SP: fd
f504	f505	AND	A: 0	X: 0	Y: 0	SP: fd
f506	0	EOR	A: 0	X: 0	Y: 0	SP: fd
f508	0	CLC	A: 0	X: 0	Y: 0	SP: fd
f509	f50c	BEQ	A: 0	X: 0	Y: 0	SP: fd
f50c	18	ROR	A: 0	X: 0	Y: 0	SP: fd
f50e	19	ROR	A: 0	X: 0	Y: 0	SP: fd
f510	1a	ROR	A: 0	X: 0	Y: 0	SP: fd
f512	1b	ROR	A: 0	X: 0	Y: 0	SP: fd
f514	1c	ROR	A: 0	X: 0	Y: 0	SP: fd
f516	1d	ROR	A: 0	X: 0	Y: 0	SP: fd
f518	1e	ROR	A: 0	X: 0	Y: 0	SP: fd
f51a	1f	ROR	A: 0	X: 0	Y: 0	SP: fd
f51c	0	RTS	A: 0	X: 0	Y: 0	SP: fd
c7e4	c7e1	JMP	A: 0	X: 0	Y: 0	SP: ff
c7e1	f4fc	JSR	A: 0	X: 0	Y: 0	SP: ff
f4fc	18	LDA	A: 0	X: 0	Y: 0	SP: fd
f4fe	f4ff	AND	A: 0	X: 0	Y: 0	SP: fd
f500	0	STA	A: 0	X: 0	Y: 0	SP: fd
f502	19	LDA	A: 0	X: 0	Y: 0	SP: fd
f504	f505	AND	A: 0	X: 0	Y: 0	SP: fd
f506	0	EOR	A: 0	X: 0	Y: 0	SP: fd
f508	0	CLC	A: 0	X: 0	Y: 0	SP: fd
f509	f50c	BEQ	A: 0	X: 0	Y: 0	SP: fd
f50c	18	ROR	A: 0	X: 0	Y: 0	SP: fd
f50e	19	ROR	A: 0	X: 0	Y: 0	SP: fd
f510	1a	ROR	A: 0	X: 0	Y: 0	SP: fd
f512	1b	ROR	A: 0	X: 0	Y: 0	SP: fd
f514	1c	ROR	A: 0	X: 0	Y: 0	SP: fd
f516	1d	ROR	A: 0	X: 0	Y: 0	SP: fd
f518	1e	ROR	A: 0	X: 0	Y: 0	SP: fd
f51a	1f	ROR	A: 0	X: 0	Y: 0	SP: fd
f51c	0	RTS	A: 0	X: 0	Y: 0	SP: fd
c7e4	c7e1	JMP	A: 0	X: 0	Y: 0	SP: ff
c7e1	f4fc	JSR	A: 0	X: 0	Y: 0	SP: ff
f4fc	18	LDA	A: 0	X: 0	Y: 0	SP: fd
f4fe	f4ff	AND	A: 0	X: 0	Y: 0	SP: fd
f500	0	STA	A: 0	X: 0	Y: 0	SP: fd
f502	19	LDA	A: 0	X: 0	Y: 0	SP: fd
f504	f505	AND	A: 0	X: 0	Y: 0	SP: fd
f506	0	EOR	A: 0	X: 0	Y: 0	SP: fd
f508	0	CLC	A: 0	X: 0	Y: 0	SP: fd
f509	f50c	BEQ	A: 0	X: 0	Y: 0	SP: fd
f50c	18	ROR	A: 0	X: 0	Y: 0	SP: fd
f50e	19	ROR	A: 0	X: 0	Y: 0	SP: fd
f510	1a	ROR	A: 0	X: 0	Y: 0	SP: fd
f512	1b	ROR	A: 0	X: 0	Y: 0	SP: fd
f514	1c	ROR	A: 0	X: 0	Y: 0	SP: fd
f516	1d	ROR	A: 0	X: 0	Y: 0	SP: fd
f518	1e	ROR	A: 0	X: 0	Y: 0	SP: fd
f51a	1f	ROR	A: 0	X: 0	Y: 0	SP: fd
f51c	0	RTS	A: 0	X: 0	Y: 0	SP: fd
c7e4	c7e1	JMP	A: 0	X: 0	Y: 0	SP: ff
c7e1	f4fc	JSR	A: 0	X: 0	Y: 0	SP: ff
f4fc	18	LDA	A: 0	X: 0	Y: 0	SP: fd
f4fe	f4ff	AND	A: 0	X: 0	Y: 0	SP: fd
f500	0	STA	A: 0	X: 0	Y: 0	SP: fd
f502	19	LDA	A: 0	X: 0	Y: 0	SP: fd
f504	f505	AND	A: 0	X: 0	Y: 0	SP: fd
f506	0	EOR	A: 0	X: 0	Y: 0	SP: fd
f508	0	CLC	A: 0	X: 0	Y: 0	SP: fd
f509	f50c	BEQ	A: 0	X: 0	Y: 0	SP: fd
f50c	18	ROR	A: 0	X: 0	Y: 0	SP: fd
f50e	19	ROR	A: 0	X: 0	Y: 0	SP: fd
f510	1a	ROR	A: 0	X: 0	Y: 0	SP: fd
f512	1b	ROR	A: 0	X: 0	Y: 0	SP: fd
f514	1c	ROR	A: 0	X: 0	Y: 0	SP: fd
f516	1d	ROR	A: 0	X: 0	Y: 0	SP: fd
f518	1e	ROR	A: 0	X: 0	Y: 0	SP: fd
f51a	1f	ROR	A: 0	X: 0	Y: 0	SP: fd
f51c	0	RTS	A: 0	X: 0	Y: 0	SP: fd
c7e4	c7e1	JMP	A: 0	X: 0	Y: 0	SP: ff
c7e1	f4fc	JSR	A: 0	X: 0	Y: 0	SP: ff
f4fc	18	LDA	A: 0	X: 0	Y: 0	SP: fd
f4fe	f4ff	AND	A: 0	X: 0	Y: 0	SP: fd
f500	0	STA	A: 0	X: 0	Y: 0	SP: fd
f502	19	LDA	A: 0	X: 0	Y: 0	SP: fd
f504	f505	AND	A: 0	X: 0	Y: 0	SP: fd
f506	0	EOR	A: 0	X: 0	Y: 0	SP: fd
f508	0	CLC	A: 0	X: 0	Y: 0	SP: fd
f509	f50c	BEQ	A: 0	X: 0	Y: 0	SP: fd
f50c	18	ROR	A: 0	X: 0	Y: 0	SP: fd
f50e	19	ROR	A: 0	X: 0	Y: 0	SP: fd
f510	1a	ROR	A: 0	X: 0	Y: 0	SP: fd
f512	1b	ROR	A: 0	X: 0	Y: 0	SP: fd
f514	1c	ROR	A: 0	X: 0	Y: 0	SP: fd
f516	1d	ROR	A: 0	X: 0	Y: 0	SP: fd
f518	1e	ROR	A: 0	X: 0	Y: 0	SP: fd
f51a	1f	ROR	A: 0	X: 0	Y: 0	SP: fd
f51c	0	RTS	A: 0	X: 0	Y: 0	SP: fd
c7e4	c7e1	JMP	A: 0	X: 0	Y: 0	SP: ff
c7e1	f4fc	JSR	A: 0	X: 0	Y: 0	SP: ff
f4fc	18	LDA	A: 0	X: 0	Y: 0	SP: fd
f4fe	f4ff	AND	A: 0	X: 0	Y: 0	SP: fd
f500	0	STA	A: 0	X: 0	Y: 0	SP: fd
f502	19	LDA	A: 0	X: 0	Y: 0	SP: fd
f504	f505	AND	A: 0	X: 0	Y: 0	SP: fd
f506	0	EOR	A: 0	X: 0	Y: 0	SP: fd
f508	0	CLC	A: 0	X: 0	Y: 0	SP: fd
f509	f50c	BEQ	A: 0	X: 0	Y: 0	SP: fd
f50c	18	ROR	A: 0	X: 0	Y: 0	SP: fd
f50e	19	ROR	A: 0	X: 0	Y: 0	SP: fd
f510	1a	ROR	A: 0	X: 0	Y: 0	SP: fd
f512	1b	ROR	A: 0	X: 0	Y: 0	SP: fd
f514	1c	ROR	A: 0	X: 0	Y: 0	SP: fd
f516	1d	ROR	A: 0	X: 0	Y: 0	SP: fd
f518	1e	ROR	A: 0	X: 0	Y: 0	SP: fd
f51a	1f	ROR	A: 0	X: 0	Y: 0	SP: fd
f51c	0	RTS	A: 0	X: 0	Y: 0	SP: fd
c7e4	c7e1	JMP	A: 0	X: 0	Y: 0	SP: ff
c7e1	f4fc	JSR	A: 0	X: 0	Y: 0	SP: ff
f4fc	18	LDA	A: 0	X: 0	Y: 0	SP: fd
f4fe	f4ff	AND	A: 0	X: 0	Y: 0	SP: fd
f500	0	STA	A: 0	X: 0	Y: 0	SP: fd
f502	19	LDA	A: 0	X: 0	Y: 0	SP: fd
f504	f505	AND	A: 0	X: 0	Y: 0	SP: fd
f506	0	EOR	A: 0	X: 0	Y: 0	SP: fd
f508	0	CLC	A: 0	X: 0	Y: 0	SP: fd
f509	f50c	BEQ	A: 0	X: 0	Y: 0	SP: fd
f50c	18	ROR	A: 0	X: 0	Y: 0	SP: fd
f50e	19	ROR	A: 0	X: 0	Y: 0	SP: fd
f510	1a	ROR	A: 0	X: 0	Y: 0	SP: fd
f512	1b	ROR	A: 0	X: 0	Y: 0	SP: fd
f514	1c	ROR	A: 0	X: 0	Y: 0	SP: fd
f516	1d	ROR	A: 0	X: 0	Y: 0	SP: fd
f518	1e	ROR	A: 0	X: 0	Y: 0	SP: fd
f51a	1f	ROR	A: 0	X: 0	Y: 0	SP: fd
f51c	0	RTS	A: 0	X: 0	Y: 0	SP: fd
c7e4	c7e1	JMP	A: 0	X: 0	Y: 0	SP: ff
c7e1	f4fc	JSR	A: 0	X: 0	Y: 0	SP: ff
f4fc	18	LDA	A: 0	X: 0	Y: 0	SP: fd
f4fe	f4ff	AND	A: 0	X: 0	Y: 0	SP: fd
f500	0	STA	A: 0	X: 0	Y: 0	SP: fd
f502	19	LDA	A: 0	X: 0	Y: 0	SP: fd
f504	f505	AND	A: 0	X: 0	Y: 0	SP: fd
f506	0	EOR	A: 0	X: 0	Y: 0	SP: fd
f508	0	CLC	A: 0	X: 0	Y: 0	SP: fd
f509	f50c	BEQ	A: 0	X: 0	Y: 0	SP: fd
f50c	18	ROR	A: 0	X: 0	Y: 0	SP: fd
f50e	19	ROR	A: 0	X: 0	Y: 0	SP: fd
f510	1a	ROR	A: 0	X: 0	Y: 0	SP: fd
f512	1b	ROR	A: 0	X: 0	Y: 0	SP: fd
f514	1c	ROR	A: 0	X: 0	Y: 0	SP: fd
f516	1d	ROR	A: 0	X: 0	Y: 0	SP: fd
f518	1e	ROR	A: 0	X: 0	Y: 0	SP: fd
f51a	1f	ROR	A: 0	X: 0	Y: 0	SP: fd
f51c	0	RTS	A: 0	X: 0	Y: 0	SP: fd
c7e4	c7e1	JMP	A: 0	X: 0	Y: 0	SP: ff
c7e1	f4fc	JSR	A: 0	X: 0	Y: 0	SP: ff
f4fc	18	LDA	A: 0	X: 0	Y: 0	SP: fd
f4fe	f4ff	AND	A: 0	X: 0	Y: 0	SP: fd
f500	0	STA	A: 0	X: 0	Y: 0	SP: fd
f502	19	LDA	A: 0	X: 0	Y: 0	SP: fd
f504	f505	AND	A: 0	X: 0	Y: 0	SP: fd
f506	0	EOR	A: 0	X: 0	Y: 0	SP: fd
f508	0	CLC	A: 0	X: 0	Y: 0	SP: fd
f509	f50c	BEQ	A: 0	X: 0	Y: 0	SP: fd
f50c	18	ROR	A: 0	X: 0	Y: 0	SP: fd
f50e	19	ROR	A: 0	X: 0	Y: 0	SP: fd
f510	1a	ROR	A: 0	X: 0	Y: 0	SP: fd
f512	1b	ROR	A: 0	X: 0	Y: 0	SP: fd
f514	1c	ROR	A: 0	X: 0	Y: 0	SP: fd
f516	1d	ROR	A: 0	X: 0	Y: 0	SP: fd
f518	1e	ROR	A: 0	X: 0	Y: 0	SP: fd
f51a	1f	ROR	A: 0	X: 0	Y: 0	SP: fd
f51c	0	RTS	A: 0	X: 0	Y: 0	SP: fd
c7e4	c7e1	JMP	A: 0	X: 0	Y: 0	SP: ff
c7e1	f4fc	JSR	A: 0	X: 0	Y: 0	SP: ff
f4fc	18	LDA	A: 0	X: 0	Y: 0	SP: fd
f4fe	f4ff	AND	A: 0	X: 0	Y: 0	SP: fd
f500	0	STA	A: 0	X: 0	Y: 0	SP: fd
f502	19	LDA	A: 0	X: 0	Y: 0	SP: fd
f504	f505	AND	A: 0	X: 0	Y: 0	SP: fd
f506	0	EOR	A: 0	X: 0	Y: 0	SP: fd
f508	0	CLC	A: 0	X: 0	Y: 0	SP: fd
f509	f50c	BEQ	A: 0	X: 0	Y: 0	SP: fd
f50c	18	ROR	A: 0	X: 0	Y: 0	SP: fd
f50e	19	ROR	A: 0	X: 0	Y: 0	SP: fd
f510	1a	ROR	A: 0	X: 0	Y: 0	SP: fd
f512	1b	ROR	A: 0	X: 0	Y: 0	SP: fd
f514	1c	ROR	A: 0	X: 0	Y: 0	SP: fd
f516	1d	ROR	A: 0	X: 0	Y: 0	SP: fd
f518	1e	ROR	A: 0	X: 0	Y: 0	SP: fd
f51a	1f	ROR	A: 0	X: 0	Y: 0	SP: fd
f51c	0	RTS	A: 0	X: 0	Y: 0	SP: fd
c7e4	c7e1	JMP	A: 0	X: 0	Y: 0	SP: ff
c7e1	f4fc	JSR	A: 0	X: 0	Y: 0	SP: ff
f4fc	18	LDA	A: 0	X: 0	Y: 0	SP: fd
f4fe	f4ff	AND	A: 0	X: 0	Y: 0	SP: fd
f500	0	STA	A: 0	X: 0	Y: 0	SP: fd
f502	19	LDA	A: 0	X: 0	Y: 0	SP: fd
f504	f505	AND	A: 0	X: 0	Y: 0	SP: fd
f506	0	EOR	A: 0	X: 0	Y: 0	SP: fd
f508	0	CLC	A: 0	X: 0	Y: 0	SP: fd
f509	f50c	BEQ	A: 0	X: 0	Y: 0	SP: fd
f50c	18	ROR	A: 0	X: 0	Y: 0	SP: fd
f50e	19	ROR	A: 0	X: 0	Y: 0	SP: fd
f510	1a	ROR	A: 0	X: 0	Y: 0	SP: fd
f512	1b	ROR	A: 0	X: 0	Y: 0	SP: fd
f514	1c	ROR	A: 0	X: 0	Y: 0	SP: fd
f516	1d	ROR	A: 0	X: 0	Y: 0	SP: fd
f518	1e	ROR	A: 0	X: 0	Y: 0	SP: fd
f51a	1f	ROR	A: 0	X: 0	Y: 0	SP: fd
f51c	0	RTS	A: 0	X: 0	Y: 0	SP: fd
c7e4	c7e1	JMP	A: 0	X: 0	Y: 0	SP: ff
c7e1	f4fc	JSR	A: 0	X: 0	Y: 0	SP: ff
f4fc	18	LDA	A: 0	X: 0	Y: 0	SP: fd
f4fe	f4ff	AND	A: 0	X: 0	Y: 0	SP: fd
f500	0	STA	A: 0	X: 0	Y: 0	SP: fd
f502	19	LDA	A: 0	X: 0	Y: 0	SP: fd
f504	f505	AND	A: 0	X: 0	Y: 0	SP: fd
f506	0	EOR	A: 0	X: 0	Y: 0	SP: fd
f508	0	CLC	A: 0	X: 0	Y: 0	SP: fd
f509	f50c	BEQ	A: 0	X: 0	Y: 0	SP: fd
f50c	18	ROR	A: 0	X: 0	Y: 0	SP: fd
f50e	19	ROR	A: 0	X: 0	Y: 0	SP: fd
f510	1a	ROR	A: 0	X: 0	Y: 0	SP: fd
f512	1b	ROR	A: 0	X: 0	Y: 0	SP: fd
f514	1c	ROR	A: 0	X: 0	Y: 0	SP: fd
f516	1d	ROR	A: 0	X: 0	Y: 0	SP: fd
f518	1e	ROR	A: 0	X: 0	Y: 0	SP: fd
f51a	1f	ROR	A: 0	X: 0	Y: 0	SP: fd
f51c	0	RTS	A: 0	X: 0	Y: 0	SP: fd
c7e4	c7e1	JMP	A: 0	X: 0	Y: 0	SP: ff
c7e1	f4fc	JSR	A: 0	X: 0	Y: 0	SP: ff
f4fc	18	LDA	A: 0	X: 0	Y: 0	SP: fd
f4fe	f4ff	AND	A: 0	X: 0	Y: 0	SP: fd
f500	0	STA	A: 0	X: 0	Y: 0	SP: fd
f502	19	LDA	A: 0	X: 0	Y: 0	SP: fd
f504	f505	AND	A: 0	X: 0	Y: 0	SP: fd
f506	0	EOR	A: 0	X: 0	Y: 0	SP: fd
f508	0	CLC	A: 0	X: 0	Y: 0	SP: fd
f509	f50c	BEQ	A: 0	X: 0	Y: 0	SP: fd
f50c	18	ROR	A: 0	X: 0	Y: 0	SP: fd
f50e	19	ROR	A: 0	X: 0	Y: 0	SP: fd
f510	1a	ROR	A: 0	X: 0	Y: 0	SP: fd
f512	1b	ROR	A: 0	X: 0	Y: 0	SP: fd
f514	1c	ROR	A: 0	X: 0	Y: 0	SP: fd
f516	1d	ROR	A: 0	X: 0	Y: 0	SP: fd
f518	1e	ROR	A: 0	X: 0	Y: 0	SP: fd
f51a	1f	ROR	A: 0	X: 0	Y: 0	SP: fd
f51c	0	RTS	A: 0	X: 0	Y: 0	SP: fd
c7e4	c7e1	JMP	A: 0	X: 0	Y: 0	SP: ff
c7e1	f4fc	JSR	A: 0	X: 0	Y: 0	SP: ff
f4fc	18	LDA	A: 0	X: 0	Y: 0	SP: fd
f4fe	f4ff	AND	A: 0	X: 0	Y: 0	SP: fd
f500	0	STA	A: 0	X: 0	Y: 0	SP: fd
f502	19	LDA	A: 0	X: 0	Y: 0	SP: fd
f504	f505	AND	A: 0	X: 0	Y: 0	SP: fd
f506	0	EOR	A: 0	X: 0	Y: 0	SP: fd
f508	0	CLC	A: 0	X: 0	Y: 0	SP: fd
f509	f50c	BEQ	A: 0	X: 0	Y: 0	SP: fd
f50c	18	ROR	A: 0	X: 0	Y: 0	SP: fd
f50e	19	ROR	A: 0	X: 0	Y: 0	SP: fd
f510	1a	ROR	A: 0	X: 0	Y: 0	SP: fd
f512	1b	ROR	A: 0	X: 0	Y: 0	SP: fd
f514	1c	ROR	A: 0	X: 0	Y: 0	SP: fd
f516	1d	ROR	A: 0	X: 0	Y: 0	SP: fd
f518	1e	ROR	A: 0	X: 0	Y: 0	SP: fd
f51a	1f	ROR	A: 0	X: 0	Y: 0	SP: fd
f51c	0	RTS	A: 0	X: 0	Y: 0	SP: fd
c7e4	c7e1	JMP	A: 0	X: 0	Y: 0	SP: ff
c7e1	f4fc	JSR	A: 0	X: 0	Y: 0	SP: ff
f4fc	18	LDA	A: 0	X: 0	Y: 0	SP: fd
f4fe	f4ff	AND	A: 0	X: 0	Y: 0	SP: fd
f500	0	STA	A: 0	X: 0	Y: 0	SP: fd
f502	19	LDA	A: 0	X: 0	Y: 0	SP: fd
f504	f505	AND	A: 0	X: 0	Y: 0	SP: fd
f506	0	EOR	A: 0	X: 0	Y: 0	SP: fd
f508	0	CLC	A: 0	X: 0	Y: 0	SP: fd
f509	f50c	BEQ	A: 0	X: 0	Y: 0	SP: fd
f50c	18	ROR	A: 0	X: 0	Y: 0	SP: fd
f50e	19	ROR	A: 0	X: 0	Y: 0	SP: fd
f510	1a	ROR	A: 0	X: 0	Y: 0	SP: fd
f512	1b	ROR	A: 0	X: 0	Y: 0	SP: fd
f514	1c	ROR	A: 0	X: 0	Y: 0	SP: fd
f516	1d	ROR	A: 0	X: 0	Y: 0	SP: fd
f518	1e	ROR	A: 0	X: 0	Y: 0	SP: fd
f51a	1f	ROR	A: 0	X: 0	Y: 0	SP: fd
f51c	0	RTS	A: 0	X: 0	Y: 0	SP: fd
c7e4	c7e1	JMP	A: 0	X: 0	Y: 0	SP: ff
c7e1	f4fc	JSR	A: 0	X: 0	Y: 0	SP: ff
f4fc	18	LDA	A: 0	X: 0	Y: 0	SP: fd
f4fe	f4ff	AND	A: 0	X: 0	Y: 0	SP: fd
f500	0	STA	A: 0	X: 0	Y: 0	SP: fd
f502	19	LDA	A: 0	X: 0	Y: 0	SP: fd
f504	f505	AND	A: 0	X: 0	Y: 0	SP: fd
f506	0	EOR	A: 0	X: 0	Y: 0	SP: fd
f508	0	CLC	A: 0	X: 0	Y: 0	SP: fd
f509	f50c	BEQ	A: 0	X: 0	Y: 0	SP: fd
f50c	18	ROR	A: 0	X: 0	Y: 0	SP: fd
f50e	19	ROR	A: 0	X: 0	Y: 0	SP: fd
f510	1a	ROR	A: 0	X: 0	Y: 0	SP: fd
f512	1b	ROR	A: 0	X: 0	Y: 0	SP: fd
f514	1c	ROR	A: 0	X: 0	Y: 0	SP: fd
f516	1d	ROR	A: 0	X: 0	Y: 0	SP: fd
f518	1e	ROR	A: 0	X: 0	Y: 0	SP: fd
f51a	1f	ROR	A: 0	X: 0	Y: 0	SP: fd
f51c	0	RTS	A: 0	X: 0	Y: 0	SP: fd
c7e4	c7e1	JMP	A: 0	X: 0	Y: 0	SP: ff
c7e1	f4fc	JSR	A: 0	X: 0	Y: 0	SP: ff
f4fc	18	LDA	A: 0	X: 0	Y: 0	SP: fd
f4fe	f4ff	AND	A: 0	X: 0	Y: 0	SP: fd
f500	0	STA	A: 0	X: 0	Y: 0	SP: fd
f502	19	LDA	A: 0	X: 0	Y: 0	SP: fd
f504	f505	AND	A: 0	X: 0	Y: 0	SP: fd
f506	0	EOR	A: 0	X: 0	Y: 0	SP: fd
f508	0	CLC	A: 0	X: 0	Y: 0	SP: fd
f509	f50c	BEQ	A: 0	X: 0	Y: 0	SP: fd
f50c	18	ROR	A: 0	X: 0	Y: 0	SP: fd
f50e	19	ROR	A: 0	X: 0	Y: 0	SP: fd
f510	1a	ROR	A: 0	X: 0	Y: 0	SP: fd
f512	1b	ROR	A: 0	X: 0	Y: 0	SP: fd
f514	1c	ROR	A: 0	X: 0	Y: 0	SP: fd
f516	1d	ROR	A: 0	X: 0	Y: 0	SP: fd
f518	1e	ROR	A: 0	X: 0	Y: 0	SP: fd
f51a	1f	ROR	A: 0	X: 0	Y: 0	SP: fd
f51c	0	RTS	A: 0	X: 0	Y: 0	SP: fd
c7e4	c7e1	JMP	A: 0	X: 0	Y: 0	SP: ff
c7e1	f4fc	JSR	A: 0	X: 0	Y: 0	SP: ff
f4fc	18	LDA	A: 0	X: 0	Y: 0	SP: fd
f4fe	f4ff	AND	A: 0	X: 0	Y: 0	SP: fd
f500	0	STA	A: 0	X: 0	Y: 0	SP: fd
f502	19	LDA	A: 0	X: 0	Y: 0	SP: fd
f504	f505	AND	A: 0	X: 0	Y: 0	SP: fd
f506	0	EOR	A: 0	X: 0	Y: 0	SP: fd
f508	0	CLC	A: 0	X: 0	Y: 0	SP: fd
f509	f50c	BEQ	A: 0	X: 0	Y: 0	SP: fd
f50c	18	ROR	A: 0	X: 0	Y: 0	SP: fd
f50e	19	ROR	A: 0	X: 0	Y: 0	SP: fd
f510	1a	ROR	A: 0	X: 0	Y: 0	SP: fd
f512	1b	ROR	A: 0	X: 0	Y: 0	SP: fd
f514	1c	ROR	A: 0	X: 0	Y: 0	SP: fd
f516	1d	ROR	A: 0	X: 0	Y: 0	SP: fd
f518	1e	ROR	A: 0	X: 0	Y: 0	SP: fd
f51a	1f	ROR	A: 0	X: 0	Y: 0	SP: fd
f51c	0	RTS	A: 0	X: 0	Y: 0	SP: fd
c7e4	c7e1	JMP	A: 0	X: 0	Y: 0	SP: ff
c7e1	f4fc	JSR	A: 0	X: 0	Y: 0	SP: ff
f4fc	18	LDA	A: 0	X: 0	Y: 0	SP: fd
f4fe	f4ff	AND	A: 0	X: 0	Y: 0	SP: fd
f500	0	STA	A: 0	X: 0	Y: 0	SP: fd
f502	19	LDA	A: 0	X: 0	Y: 0	SP: fd
f504	f505	AND	A: 0	X: 0	Y: 0	SP: fd
f506	0	EOR	A: 0	X: 0	Y: 0	SP: fd
f508	0	CLC	A: 0	X: 0	Y: 0	SP: fd
f509	f50c	BEQ	A: 0	X: 0	Y: 0	SP: fd
f50c	18	ROR	A: 0	X: 0	Y: 0	SP: fd
f50e	19	ROR	A: 0	X: 0	Y: 0	SP: fd
f510	1a	ROR	A: 0	X: 0	Y: 0	SP: fd
f512	1b	ROR	A: 0	X: 0	Y: 0	SP: fd
f514	1c	ROR	A: 0	X: 0	Y: 0	SP: fd
f516	1d	ROR	A: 0	X: 0	Y: 0	SP: fd
f518	1e	ROR	A: 0	X: 0	Y: 0	SP: fd
f51a	1f	ROR	A: 0	X: 0	Y: 0	SP: fd
f51c	0	RTS	A: 0	X: 0	Y: 0	SP: fd
c7e4	c7e1	JMP	A: 0	X: 0	Y: 0	SP: ff
c7e1	f4fc	JSR	A: 0	X: 0	Y: 0	SP: ff
f4fc	18	LDA	A: 0	X: 0	Y: 0	SP: fd
f4fe	f4ff	AND	A: 0	X: 0	Y: 0	SP: fd
f500	0	STA	A: 0	X: 0	Y: 0	SP: fd
f502	19	LDA	A: 0	X: 0	Y: 0	SP: fd
f504	f505	AND	A: 0	X: 0	Y: 0	SP: fd
f506	0	EOR	A: 0	X: 0	Y: 0	SP: fd
f508	0	CLC	A: 0	X: 0	Y: 0	SP: fd
f509	f50c	BEQ	A: 0	X: 0	Y: 0	SP: fd
f50c	18	ROR	A: 0	X: 0	Y: 0	SP: fd
f50e	19	ROR	A: 0	X: 0	Y: 0	SP: fd
f510	1a	ROR	A: 0	X: 0	Y: 0	SP: fd
f512	1b	ROR	A: 0	X: 0	Y: 0	SP: fd
f514	1c	ROR	A: 0	X: 0	Y: 0	SP: fd
f516	1d	ROR	A: 0	X: 0	Y: 0	SP: fd
f518	1e	ROR	A: 0	X: 0	Y: 0	SP: fd
f51a	1f	ROR	A: 0	X: 0	Y: 0	SP: fd
f51c	0	RTS	A: 0	X: 0	Y: 0	SP: fd
c7e4	c7e1	JMP	A: 0	X: 0	Y: 0	SP: ff
c7e1	f4fc	JSR	A: 0	X: 0	Y: 0	SP: ff
f4fc	18	LDA	A: 0	X: 0	Y: 0	SP: fd
f4fe	f4ff	AND	A: 0	X: 0	Y: 0	SP: fd
f500	0	STA	A: 0	X: 0	Y: 0	SP: fd
f502	19	LDA	A: 0	X: 0	Y: 0	SP: fd
f504	f505	AND	A: 0	X: 0	Y: 0	SP: fd
f506	0	EOR	A: 0	X: 0	Y: 0	SP: fd
f508	0	CLC	A: 0	X: 0	Y: 0	SP: fd
f509	f50c	BEQ	A: 0	X: 0	Y: 0	SP: fd
f50c	18	ROR	A: 0	X: 0	Y: 0	SP: fd
f50e	19	ROR	A: 0	X: 0	Y: 0	SP: fd
f510	1a	ROR	A: 0	X: 0	Y: 0	SP: fd
f512	1b	ROR	A: 0	X: 0	Y: 0	SP: fd
f514	1c	ROR	A: 0	X: 0	Y: 0	SP: fd
f516	1d	ROR	A: 0	X: 0	Y: 0	SP: fd
f518	1e	ROR	A: 0	X: 0	Y: 0	SP: fd
f51a	1f	ROR	A: 0	X: 0	Y: 0	SP: fd
f51c	0	RTS	A: 0	X: 0	Y: 0	SP: fd
c7e4	c7e1	JMP	A: 0	X: 0	Y: 0	SP: ff
c7e1	f4fc	JSR	A: 0	X: 0	Y: 0	SP: ff
f4fc	18	LDA	A: 0	X: 0	Y: 0	SP: fd
f4fe	f4ff	AND	A: 0	X: 0	Y: 0	SP: fd
f500	0	STA	A: 0	X: 0	Y: 0	SP: fd
f502	19	LDA	A: 0	X: 0	Y: 0	SP: fd
f504	f505	AND	A: 0	X: 0	Y: 0	SP: fd
f506	0	EOR	A: 0	X: 0	Y: 0	SP: fd
f508	0	CLC	A: 0	X: 0	Y: 0	SP: fd
f509	f50c	BEQ	A: 0	X: 0	Y: 0	SP: fd
f50c	18	ROR	A: 0	X: 0	Y: 0	SP: fd
f50e	19	ROR	A: 0	X: 0	Y: 0	SP: fd
f510	1a	ROR	A: 0	X: 0	Y: 0	SP: fd
f512	1b	ROR	A: 0	X: 0	Y: 0	SP: fd
f514	1c	ROR	A: 0	X: 0	Y: 0	SP: fd
f516	1d	ROR	A: 0	X: 0	Y: 0	SP: fd
f518	1e	ROR	A: 0	X: 0	Y: 0	SP: fd
f51a	1f	ROR	A: 0	X: 0	Y: 0	SP: fd
f51c	0	RTS	A: 0	X: 0	Y: 0	SP: fd
c7e4	c7e1	JMP	A: 0	X: 0	Y: 0	SP: ff
c7e1	f4fc	JSR	A: 0	X: 0	Y: 0	SP: ff
f4fc	18	LDA	A: 0	X: 0	Y: 0	SP: fd
f4fe	f4ff	AND	A: 0	X: 0	Y: 0	SP: fd
f500	0	STA	A: 0	X: 0	Y: 0	SP: fd
f502	19	LDA	A: 0	X: 0	Y: 0	SP: fd
f504	f505	AND	A: 0	X: 0	Y: 0	SP: fd
f506	0	EOR	A: 0	X: 0	Y: 0	SP: fd
f508	0	CLC	A: 0	X: 0	Y: 0	SP: fd
f509	f50c	BEQ	A: 0	X: 0	Y: 0	SP: fd
f50c	18	ROR	A: 0	X: 0	Y: 0	SP: fd
f50e	19	ROR	A: 0	X: 0	Y: 0	SP: fd
f510	1a	ROR	A: 0	X: 0	Y: 0	SP: fd
f512	1b	ROR	A: 0	X: 0	Y: 0	SP: fd
f514	1c	ROR	A: 0	X: 0	Y: 0	SP: fd
f516	1d	ROR	A: 0	X: 0	Y: 0	SP: fd
f518	1e	ROR	A: 0	X: 0	Y: 0	SP: fd
f51a	1f	ROR	A: 0	X: 0	Y: 0	SP: fd
f51c	0	RTS	A: 0	X: 0	Y: 0	SP: fd
c7e4	c7e1	JMP	A: 0	X: 0	Y: 0	SP: ff
c7e1	f4fc	JSR	A: 0	X: 0	Y: 0	SP: ff
f4fc	18	LDA	A: 0	X: 0	Y: 0	SP: fd
f4fe	f4ff	AND	A: 0	X: 0	Y: 0	SP: fd
f500	0	STA	A: 0	X: 0	Y: 0	SP: fd
f502	19	LDA	A: 0	X: 0	Y: 0	SP: fd
f504	f505	AND	A: 0	X: 0	Y: 0	SP: fd
f506	0	EOR	A: 0	X: 0	Y: 0	SP: fd
f508	0	CLC	A: 0	X: 0	Y: 0	SP: fd
f509	f50c	BEQ	A: 0	X: 0	Y: 0	SP: fd
f50c	18	ROR	A: 0	X: 0	Y: 0	SP: fd
f50e	19	ROR	A: 0	X: 0	Y: 0	SP: fd
f510	1a	ROR	A: 0	X: 0	Y: 0	SP: fd
f512	1b	ROR	A: 0	X: 0	Y: 0	SP: fd
f514	1c	ROR	A: 0	X: 0	Y: 0	SP: fd
f516	1d	ROR	A: 0	X: 0	Y: 0	SP: fd
f518	1e	ROR	A: 0	X: 0	Y: 0	SP: fd
f51a	1f	ROR	A: 0	X: 0	Y: 0	SP: fd
f51c	0	RTS	A: 0	X: 0	Y: 0	SP: fd
c7e4	c7e1	JMP	A: 0	X: 0	Y: 0	SP: ff
c7e1	f4fc	JSR	A: 0	X: 0	Y: 0	SP: ff
f4fc	18	LDA	A: 0	X: 0	Y: 0	SP: fd
f4fe	f4ff	AND	A: 0	X: 0	Y: 0	SP: fd
f500	0	STA	A: 0	X: 0	Y: 0	SP: fd
f502	19	LDA	A: 0	X: 0	Y: 0	SP: fd
f504	f505	AND	A: 0	X: 0	Y: 0	SP: fd
f506	0	EOR	A: 0	X: 0	Y: 0	SP: fd
f508	0	CLC	A: 0	X: 0	Y: 0	SP: fd
f509	f50c	BEQ	A: 0	X: 0	Y: 0	SP: fd
f50c	18	ROR	A: 0	X: 0	Y: 0	SP: fd
f50e	19	ROR	A: 0	X: 0	Y: 0	SP: fd
f510	1a	ROR	A: 0	X: 0	Y: 0	SP: fd
f512	1b	ROR	A: 0	X: 0	Y: 0	SP: fd
f514	1c	ROR	A: 0	X: 0	Y: 0	SP: fd
f516	1d	ROR	A: 0	X: 0	Y: 0	SP: fd
f518	1e	ROR	A: 0	X: 0	Y: 0	SP: fd
f51a	1f	ROR	A: 0	X: 0	Y: 0	SP: fd
f51c	0	RTS	A: 0	X: 0	Y: 0	SP: fd
c7e4	c7e1	JMP	A: 0	X: 0	Y: 0	SP: ff
c7e1	f4fc	JSR	A: 0	X: 0	Y: 0	SP: ff
f4fc	18	LDA	A: 0	X: 0	Y: 0	SP: fd
f4fe	f4ff	AND	A: 0	X: 0	Y: 0	SP: fd
f500	0	STA	A: 0	X: 0	Y: 0	SP: fd
f502	19	LDA	A: 0	X: 0	Y: 0	SP: fd
f504	f505	AND	A: 0	X: 0	Y: 0	SP: fd
f506	0	EOR	A: 0	X: 0	Y: 0	SP: fd
f508	0	CLC	A: 0	X: 0	Y: 0	SP: fd
f509	f50c	BEQ	A: 0	X: 0	Y: 0	SP: fd
f50c	18	ROR	A: 0	X: 0	Y: 0	SP: fd
f50e	19	ROR	A: 0	X: 0	Y: 0	SP: fd
f510	1a	ROR	A: 0	X: 0	Y: 0	SP: fd
f512	1b	ROR	A: 0	X: 0	Y: 0	SP: fd
f514	1c	ROR	A: 0	X: 0	Y: 0	SP: fd
f516	1d	ROR	A: 0	X: 0	Y: 0	SP: fd
f518	1e	ROR	A: 0	X: 0	Y: 0	SP: fd
f51a	1f	ROR	A: 0	X: 0	Y: 0	SP: fd
f51c	0	RTS	A: 0	X: 0	Y: 0	SP: fd
c7e4	c7e1	JMP	A: 0	X: 0	Y: 0	SP: ff
c7e1	f4fc	JSR	A: 0	X: 0	Y: 0	SP: ff
f4fc	18	LDA	A: 0	X: 0	Y: 0	SP: fd
f4fe	f4ff	AND	A: 0	X: 0	Y: 0	SP: fd
f500	0	STA	A: 0	X: 0	Y: 0	SP: fd
f502	19	LDA	A: 0	X: 0	Y: 0	SP: fd
f504	f505	AND	A: 0	X: 0	Y: 0	SP: fd
f506	0	EOR	A: 0	X: 0	Y: 0	SP: fd
f508	0	CLC	A: 0	X: 0	Y: 0	SP: fd
f509	f50c	BEQ	A: 0	X: 0	Y: 0	SP: fd
f50c	18	ROR	A: 0	X: 0	Y: 0	SP: fd
f50e	19	ROR	A: 0	X: 0	Y: 0	SP: fd
f510	1a	ROR	A: 0	X: 0	Y: 0	SP: fd
f512	1b	ROR	A: 0	X: 0	Y: 0	SP: fd
f514	1c	ROR	A: 0	X: 0	Y: 0	SP: fd
f516	1d	ROR	A: 0	X: 0	Y: 0	SP: fd
f518	1e	ROR	A: 0	X: 0	Y: 0	SP: fd
f51a	1f	ROR	A: 0	X: 0	Y: 0	SP: fd
f51c	0	RTS	A: 0	X: 0	Y: 0	SP: fd
c7e4	c7e1	JMP	A: 0	X: 0	Y: 0	SP: ff
c7e1	f4fc	JSR	A: 0	X: 0	Y: 0	SP: ff
f4fc	18	LDA	A: 0	X: 0	Y: 0	SP: fd
f4fe	f4ff	AND	A: 0	X: 0	Y: 0	SP: fd
f500	0	STA	A: 0	X: 0	Y: 0	SP: fd
f502	19	LDA	A: 0	X: 0	Y: 0	SP: fd
f504	f505	AND	A: 0	X: 0	Y: 0	SP: fd
f506	0	EOR	A: 0	X: 0	Y: 0	SP: fd
f508	0	CLC	A: 0	X: 0	Y: 0	SP: fd
f509	f50c	BEQ	A: 0	X: 0	Y: 0	SP: fd
f50c	18	ROR	A: 0	X: 0	Y: 0	SP: fd
f50e	19	ROR	A: 0	X: 0	Y: 0	SP: fd
f510	1a	ROR	A: 0	X: 0	Y: 0	SP: fd
f512	1b	ROR	A: 0	X: 0	Y: 0	SP: fd
f514	1c	ROR	A: 0	X: 0	Y: 0	SP: fd
f516	1d	ROR	A: 0	X: 0	Y: 0	SP: fd
f518	1e	ROR	A: 0	X: 0	Y: 0	SP: fd
f51a	1f	ROR	A: 0	X: 0	Y: 0	SP: fd
f51c	0	RTS	A: 0	X: 0	Y: 0	SP: fd
c7e4	c7e1	JMP	A: 0	X: 0	Y: 0	SP: ff
c7e1	f4fc	JSR	A: 0	X: 0	Y: 0	SP: ff
f4fc	18	LDA	A: 0	X: 0	Y: 0	SP: fd
f4fe	f4ff	AND	A: 0	X: 0	Y: 0	SP: fd
f500	0	STA	A: 0	X: 0	Y: 0	SP: fd
f502	19	LDA	A: 0	X: 0	Y: 0	SP: fd
f504	f505	AND	A: 0	X: 0	Y: 0	SP: fd
f506	0	EOR	A: 0	X: 0	Y: 0	SP: fd
f508	0	CLC	A: 0	X: 0	Y: 0	SP: fd
f509	f50c	BEQ	A: 0	X: 0	Y: 0	SP: fd
f50c	18	ROR	A: 0	X: 0	Y: 0	SP: fd
f50e	19	ROR	A: 0	X: 0	Y: 0	SP: fd
f510	1a	ROR	A: 0	X: 0	Y: 0	SP: fd
f512	1b	ROR	A: 0	X: 0	Y: 0	SP: fd
f514	1c	ROR	A: 0	X: 0	Y: 0	SP: fd
f516	1d	ROR	A: 0	X: 0	Y: 0	SP: fd
f518	1e	ROR	A: 0	X: 0	Y: 0	SP: fd
f51a	1f	ROR	A: 0	X: 0	Y: 0	SP: fd
f51c	0	RTS	A: 0	X: 0	Y: 0	SP: fd
c7e4	c7e1	JMP	A: 0	X: 0	Y: 0	SP: ff
c7e1	f4fc	JSR	A: 0	X: 0	Y: 0	SP: ff
f4fc	18	LDA	A: 0	X: 0	Y: 0	SP: fd
f4fe	f4ff	AND	A: 0	X: 0	Y: 0	SP: fd
f500	0	STA	A: 0	X: 0	Y: 0	SP: fd
f502	19	LDA	A: 0	X: 0	Y: 0	SP: fd
f504	f505	AND	A: 0	X: 0	Y: 0	SP: fd
f506	0	EOR	A: 0	X: 0	Y: 0	SP: fd
f508	0	CLC	A: 0	X: 0	Y: 0	SP: fd
f509	f50c	BEQ	A: 0	X: 0	Y: 0	SP: fd
f50c	18	ROR	A: 0	X: 0	Y: 0	SP: fd
f50e	19	ROR	A: 0	X: 0	Y: 0	SP: fd
f510	1a	ROR	A: 0	X: 0	Y: 0	SP: fd
f512	1b	ROR	A: 0	X: 0	Y: 0	SP: fd
f514	1c	ROR	A: 0	X: 0	Y: 0	SP: fd
f516	1d	ROR	A: 0	X: 0	Y: 0	SP: fd
f518	1e	ROR	A: 0	X: 0	Y: 0	SP: fd
f51a	1f	ROR	A: 0	X: 0	Y: 0	SP: fd
f51c	0	RTS	A: 0	X: 0	Y: 0	SP: fd
c7e4	c7e1	JMP	A: 0	X: 0	Y: 0	SP: ff
c7e1	f4fc	JSR	A: 0	X: 0	Y: 0	SP: ff
f4fc	18	LDA	A: 0	X: 0	Y: 0	SP: fd
f4fe	f4ff	AND	A: 0	X: 0	Y: 0	SP: fd
f500	0	STA	A: 0	X: 0	Y: 0	SP: fd
f502	19	LDA	A: 0	X: 0	Y: 0	SP: fd
f504	f505	AND	A: 0	X: 0	Y: 0	SP: fd
f506	0	EOR	A: 0	X: 0	Y: 0	SP: fd
f508	0	CLC	A: 0	X: 0	Y: 0	SP: fd
f509	f50c	BEQ	A: 0	X: 0	Y: 0	SP: fd
f50c	18	ROR	A: 0	X: 0	Y: 0	SP: fd
f50e	19	ROR	A: 0	X: 0	Y: 0	SP: fd
f510	1a	ROR	A: 0	X: 0	Y: 0	SP: fd
f512	1b	ROR	A: 0	X: 0	Y: 0	SP: fd
f514	1c	ROR	A: 0	X: 0	Y: 0	SP: fd
f516	1d	ROR	A: 0	X: 0	Y: 0	SP: fd
f518	1e	ROR	A: 0	X: 0	Y: 0	SP: fd
f51a	1f	ROR	A: 0	X: 0	Y: 0	SP: fd
f51c	0	RTS	A: 0	X: 0	Y: 0	SP: fd
c7e4	c7e1	JMP	A: 0	X: 0	Y: 0	SP: ff
c7e1	f4fc	JSR	A: 0	X: 0	Y: 0	SP: ff
f4fc	18	LDA	A: 0	X: 0	Y: 0	SP: fd
f4fe	f4ff	AND	A: 0	X: 0	Y: 0	SP: fd
f500	0	STA	A: 0	X: 0	Y: 0	SP: fd
f502	19	LDA	A: 0	X: 0	Y: 0	SP: fd
f504	f505	AND	A: 0	X: 0	Y: 0	SP: fd
f506	0	EOR	A: 0	X: 0	Y: 0	SP: fd
f508	0	CLC	A: 0	X: 0	Y: 0	SP: fd
f509	f50c	BEQ	A: 0	X: 0	Y: 0	SP: fd
f50c	18	ROR	A: 0	X: 0	Y: 0	SP: fd
f50e	19	ROR	A: 0	X: 0	Y: 0	SP: fd
f510	1a	ROR	A: 0	X: 0	Y: 0	SP: fd
f512	1b	ROR	A: 0	X: 0	Y: 0	SP: fd
f514	1c	ROR	A: 0	X: 0	Y: 0	SP: fd
f516	1d	ROR	A: 0	X: 0	Y: 0	SP: fd
f518	1e	ROR	A: 0	X: 0	Y: 0	SP: fd
f51a	1f	ROR	A: 0	X: 0	Y: 0	SP: fd
f51c	0	RTS	A: 0	X: 0	Y: 0	SP: fd
c7e4	c7e1	JMP	A: 0	X: 0	Y: 0	SP: ff
c7e1	f4fc	JSR	A: 0	X: 0	Y: 0	SP: ff
f4fc	18	LDA	A: 0	X: 0	Y: 0	SP: fd
f4fe	f4ff	AND	A: 0	X: 0	Y: 0	SP: fd
f500	0	STA	A: 0	X: 0	Y: 0	SP: fd
f502	19	LDA	A: 0	X: 0	Y: 0	SP: fd
f504	f505	AND	A: 0	X: 0	Y: 0	SP: fd
f506	0	EOR	A: 0	X: 0	Y: 0	SP: fd
f508	0	CLC	A: 0	X: 0	Y: 0	SP: fd
f509	f50c	BEQ	A: 0	X: 0	Y: 0	SP: fd
f50c	18	ROR	A: 0	X: 0	Y: 0	SP: fd
f50e	19	ROR	A: 0	X: 0	Y: 0	SP: fd
f510	1a	ROR	A: 0	X: 0	Y: 0	SP: fd
f512	1b	ROR	A: 0	X: 0	Y: 0	SP: fd
f514	1c	ROR	A: 0	X: 0	Y: 0	SP: fd
f516	1d	ROR	A: 0	X: 0	Y: 0	SP: fd
f518	1e	ROR	A: 0	X: 0	Y: 0	SP: fd
f51a	1f	ROR	A: 0	X: 0	Y: 0	SP: fd
f51c	0	RTS	A: 0	X: 0	Y: 0	SP: fd
c7e4	c7e1	JMP	A: 0	X: 0	Y: 0	SP: ff
c7e1	f4fc	JSR	A: 0	X: 0	Y: 0	SP: ff
f4fc	18	LDA	A: 0	X: 0	Y: 0	SP: fd
f4fe	f4ff	AND	A: 0	X: 0	Y: 0	SP: fd
f500	0	STA	A: 0	X: 0	Y: 0	SP: fd
f502	19	LDA	A: 0	X: 0	Y: 0	SP: fd
f504	f505	AND	A: 0	X: 0	Y: 0	SP: fd
f506	0	EOR	A: 0	X: 0	Y: 0	SP: fd
f508	0	CLC	A: 0	X: 0	Y: 0	SP: fd
f509	f50c	BEQ	A: 0	X: 0	Y: 0	SP: fd
f50c	18	ROR	A: 0	X: 0	Y: 0	SP: fd
f50e	19	ROR	A: 0	X: 0	Y: 0	SP: fd
f510	1a	ROR	A: 0	X: 0	Y: 0	SP: fd
f512	1b	ROR	A: 0	X: 0	Y: 0	SP: fd
f514	1c	ROR	A: 0	X: 0	Y: 0	SP: fd
f516	1d	ROR	A: 0	X: 0	Y: 0	SP: fd
f518	1e	ROR	A: 0	X: 0	Y: 0	SP: fd
f51a	1f	ROR	A: 0	X: 0	Y: 0	SP: fd
f51c	0	RTS	A: 0	X: 0	Y: 0	SP: fd
c7e4	c7e1	JMP	A: 0	X: 0	Y: 0	SP: ff
c7e1	f4fc	JSR	A: 0	X: 0	Y: 0	SP: ff
f4fc	18	LDA	A: 0	X: 0	Y: 0	SP: fd
f4fe	f4ff	AND	A: 0	X: 0	Y: 0	SP: fd
f500	0	STA	A: 0	X: 0	Y: 0	SP: fd
f502	19	LDA	A: 0	X: 0	Y: 0	SP: fd
f504	f505	AND	A: 0	X: 0	Y: 0	SP: fd
f506	0	EOR	A: 0	X: 0	Y: 0	SP: fd
f508	0	CLC	A: 0	X: 0	Y: 0	SP: fd
f509	f50c	BEQ	A: 0	X: 0	Y: 0	SP: fd
f50c	18	ROR	A: 0	X: 0	Y: 0	SP: fd
f50e	19	ROR	A: 0	X: 0	Y: 0	SP: fd
f510	1a	ROR	A: 0	X: 0	Y: 0	SP: fd
f512	1b	ROR	A: 0	X: 0	Y: 0	SP: fd
f514	1c	ROR	A: 0	X: 0	Y: 0	SP: fd
f516	1d	ROR	A: 0	X: 0	Y: 0	SP: fd
f518	1e	ROR	A: 0	X: 0	Y: 0	SP: fd
f51a	1f	ROR	A: 0	X: 0	Y: 0	SP: fd
f51c	0	RTS	A: 0	X: 0	Y: 0	SP: fd
c7e4	c7e1	JMP	A: 0	X: 0	Y: 0	SP: ff
c7e1	f4fc	JSR	A: 0	X: 0	Y: 0	SP: ff
f4fc	18	LDA	A: 0	X: 0	Y: 0	SP: fd
f4fe	f4ff	AND	A: 0	X: 0	Y: 0	SP: fd
f500	0	STA	A: 0	X: 0	Y: 0	SP: fd
f502	19	LDA	A: 0	X: 0	Y: 0	SP: fd
f504	f505	AND	A: 0	X: 0	Y: 0	SP: fd
f506	0	EOR	A: 0	X: 0	Y: 0	SP: fd
f508	0	CLC	A: 0	X: 0	Y: 0	SP: fd
f509	f50c	BEQ	A: 0	X: 0	Y: 0	SP: fd
f50c	18	ROR	A: 0	X: 0	Y: 0	SP: fd
f50e	19	ROR	A: 0	X: 0	Y: 0	SP: fd
f510	1a	ROR	A: 0	X: 0	Y: 0	SP: fd
f512	1b	ROR	A: 0	X: 0	Y: 0	SP: fd
f514	1c	ROR	A: 0	X: 0	Y: 0	SP: fd
f516	1d	ROR	A: 0	X: 0	Y: 0	SP: fd
f518	1e	ROR	A: 0	X: 0	Y: 0	SP: fd
f51a	1f	ROR	A: 0	X: 0	Y: 0	SP: fd
f51c	0	RTS	A: 0	X: 0	Y: 0	SP: fd
c7e4	c7e1	JMP	A: 0	X: 0	Y: 0	SP: ff
c7e1	f4fc	JSR	A: 0	X: 0	Y: 0	SP: ff
f4fc	18	LDA	A: 0	X: 0	Y: 0	SP: fd
f4fe	f4ff	AND	A: 0	X: 0	Y: 0	SP: fd
f500	0	STA	A: 0	X: 0	Y: 0	SP: fd
f502	19	LDA	A: 0	X: 0	Y: 0	SP: fd
f504	f505	AND	A: 0	X: 0	Y: 0	SP: fd
f506	0	EOR	A: 0	X: 0	Y: 0	SP: fd
f508	0	CLC	A: 0	X: 0	Y: 0	SP: fd
f509	f50c	BEQ	A: 0	X: 0	Y: 0	SP: fd
f50c	18	ROR	A: 0	X: 0	Y: 0	SP: fd
f50e	19	ROR	A: 0	X: 0	Y: 0	SP: fd
f510	1a	ROR	A: 0	X: 0	Y: 0	SP: fd
f512	1b	ROR	A: 0	X: 0	Y: 0	SP: fd
f514	1c	ROR	A: 0	X: 0	Y: 0	SP: fd
f516	1d	ROR	A: 0	X: 0	Y: 0	SP: fd
f518	1e	ROR	A: 0	X: 0	Y: 0	SP: fd
f51a	1f	ROR	A: 0	X: 0	Y: 0	SP: fd
f51c	0	RTS	A: 0	X: 0	Y: 0	SP: fd
c7e4	c7e1	JMP	A: 0	X: 0	Y: 0	SP: ff
c7e1	f4fc	JSR	A: 0	X: 0	Y: 0	SP: ff
f4fc	18	LDA	A: 0	X: 0	Y: 0	SP: fd
f4fe	f4ff	AND	A: 0	X: 0	Y: 0	SP: fd
f500	0	STA	A: 0	X: 0	Y: 0	SP: fd
f502	19	LDA	A: 0	X: 0	Y: 0	SP: fd
f504	f505	AND	A: 0	X: 0	Y: 0	SP: fd
f506	0	EOR	A: 0	X: 0	Y: 0	SP: fd
f508	0	CLC	A: 0	X: 0	Y: 0	SP: fd
f509	f50c	BEQ	A: 0	X: 0	Y: 0	SP: fd
f50c	18	ROR	A: 0	X: 0	Y: 0	SP: fd
f50e	19	ROR	A: 0	X: 0	Y: 0	SP: fd
f510	1a	ROR	A: 0	X: 0	Y: 0	SP: fd
f512	1b	ROR	A: 0	X: 0	Y: 0	SP: fd
f514	1c	ROR	A: 0	X: 0	Y: 0	SP: fd
f516	1d	ROR	A: 0	X: 0	Y: 0	SP: fd
f518	1e	ROR	A: 0	X: 0	Y: 0	SP: fd
f51a	1f	ROR	A: 0	X: 0	Y: 0	SP: fd
f51c	0	RTS	A: 0	X: 0	Y: 0	SP: fd
c7e4	c7e1	JMP	A: 0	X: 0	Y: 0	SP: ff
c7e1	f4fc	JSR	A: 0	X: 0	Y: 0	SP: ff
f4fc	18	LDA	A: 0	X: 0	Y: 0	SP: fd
f4fe	f4ff	AND	A: 0	X: 0	Y: 0	SP: fd
f500	0	STA	A: 0	X: 0	Y: 0	SP: fd
f502	19	LDA	A: 0	X: 0	Y: 0	SP: fd
f504	f505	AND	A: 0	X: 0	Y: 0	SP: fd
f506	0	EOR	A: 0	X: 0	Y: 0	SP: fd
f508	0	CLC	A: 0	X: 0	Y: 0	SP: fd
f509	f50c	BEQ	A: 0	X: 0	Y: 0	SP: fd
f50c	18	ROR	A: 0	X: 0	Y: 0	SP: fd
f50e	19	ROR	A: 0	X: 0	Y: 0	SP: fd
f510	1a	ROR	A: 0	X: 0	Y: 0	SP: fd
f512	1b	ROR	A: 0	X: 0	Y: 0	SP: fd
f514	1c	ROR	A: 0	X: 0	Y: 0	SP: fd
f516	1d	ROR	A: 0	X: 0	Y: 0	SP: fd
f518	1e	ROR	A: 0	X: 0	Y: 0	SP: fd
f51a	1f	ROR	A: 0	X: 0	Y: 0	SP: fd
f51c	0	RTS	A: 0	X: 0	Y: 0	SP: fd
c7e4	c7e1	JMP	A: 0	X: 0	Y: 0	SP: ff
c7e1	f4fc	JSR	A: 0	X: 0	Y: 0	SP: ff
f4fc	18	LDA	A: 0	X: 0	Y: 0	SP: fd
f4fe	f4ff	AND	A: 0	X: 0	Y: 0	SP: fd
f500	0	STA	A: 0	X: 0	Y: 0	SP: fd
f502	19	LDA	A: 0	X: 0	Y: 0	SP: fd
f504	f505	AND	A: 0	X: 0	Y: 0	SP: fd
f506	0	EOR	A: 0	X: 0	Y: 0	SP: fd
f508	0	CLC	A: 0	X: 0	Y: 0	SP: fd
f509	f50c	BEQ	A: 0	X: 0	Y: 0	SP: fd
f50c	18	ROR	A: 0	X: 0	Y: 0	SP: fd
f50e	19	ROR	A: 0	X: 0	Y: 0	SP: fd
f510	1a	ROR	A: 0	X: 0	Y: 0	SP: fd
f512	1b	ROR	A: 0	X: 0	Y: 0	SP: fd
f514	1c	ROR	A: 0	X: 0	Y: 0	SP: fd
f516	1d	ROR	A: 0	X: 0	Y: 0	SP: fd
f518	1e	ROR	A: 0	X: 0	Y: 0	SP: fd
f51a	1f	ROR	A: 0	X: 0	Y: 0	SP: fd
f51c	0	RTS	A: 0	X: 0	Y: 0	SP: fd
c7e4	c7e1	JMP	A: 0	X: 0	Y: 0	SP: ff
c7e1	f4fc	JSR	A: 0	X: 0	Y: 0	SP: ff
f4fc	18	LDA	A: 0	X: 0	Y: 0	SP: fd
f4fe	f4ff	AND	A: 0	X: 0	Y: 0	SP: fd
f500	0	STA	A: 0	X: 0	Y: 0	SP: fd
f502	19	LDA	A: 0	X: 0	Y: 0	SP: fd
f504	f505	AND	A: 0	X: 0	Y: 0	SP: fd
f506	0	EOR	A: 0	X: 0	Y: 0	SP: fd
f508	0	CLC	A: 0	X: 0	Y: 0	SP: fd
f509	f50c	BEQ	A: 0	X: 0	Y: 0	SP: fd
f50c	18	ROR	A: 0	X: 0	Y: 0	SP: fd
f50e	19	ROR	A: 0	X: 0	Y: 0	SP: fd
f510	1a	ROR	A: 0	X: 0	Y: 0	SP: fd
f512	1b	ROR	A: 0	X: 0	Y: 0	SP: fd
f514	1c	ROR	A: 0	X: 0	Y: 0	SP: fd
f516	1d	ROR	A: 0	X: 0	Y: 0	SP: fd
f518	1e	ROR	A: 0	X: 0	Y: 0	SP: fd
f51a	1f	ROR	A: 0	X: 0	Y: 0	SP: fd
f51c	0	RTS	A: 0	X: 0	Y: 0	SP: fd
c7e4	c7e1	JMP	A: 0	X: 0	Y: 0	SP: ff
c7e1	f4fc	JSR	A: 0	X: 0	Y: 0	SP: ff
f4fc	18	LDA	A: 0	X: 0	Y: 0	SP: fd
f4fe	f4ff	AND	A: 0	X: 0	Y: 0	SP: fd
f500	0	STA	A: 0	X: 0	Y: 0	SP: fd
f502	19	LDA	A: 0	X: 0	Y: 0	SP: fd
f504	f505	AND	A: 0	X: 0	Y: 0	SP: fd
f506	0	EOR	A: 0	X: 0	Y: 0	SP: fd
f508	0	CLC	A: 0	X: 0	Y: 0	SP: fd
f509	f50c	BEQ	A: 0	X: 0	Y: 0	SP: fd
f50c	18	ROR	A: 0	X: 0	Y: 0	SP: fd
f50e	19	ROR	A: 0	X: 0	Y: 0	SP: fd
f510	1a	ROR	A: 0	X: 0	Y: 0	SP: fd
f512	1b	ROR	A: 0	X: 0	Y: 0	SP: fd
f514	1c	ROR	A: 0	X: 0	Y: 0	SP: fd
f516	1d	ROR	A: 0	X: 0	Y: 0	SP: fd
f518	1e	ROR	A: 0	X: 0	Y: 0	SP: fd
f51a	1f	ROR	A: 0	X: 0	Y: 0	SP: fd
f51c	0	RTS	A: 0	X: 0	Y: 0	SP: fd
c7e4	c7e1	JMP	A: 0	X: 0	Y: 0	SP: ff
c7e1	f4fc	JSR	A: 0	X: 0	Y: 0	SP: ff
f4fc	18	LDA	A: 0	X: 0	Y: 0	SP: fd
f4fe	f4ff	AND	A: 0	X: 0	Y: 0	SP: fd
f500	0	STA	A: 0	X: 0	Y: 0	SP: fd
f502	19	LDA	A: 0	X: 0	Y: 0	SP: fd
f504	f505	AND	A: 0	X: 0	Y: 0	SP: fd
f506	0	EOR	A: 0	X: 0	Y: 0	SP: fd
f508	0	CLC	A: 0	X: 0	Y: 0	SP: fd
f509	f50c	BEQ	A: 0	X: 0	Y: 0	SP: fd
f50c	18	ROR	A: 0	X: 0	Y: 0	SP: fd
f50e	19	ROR	A: 0	X: 0	Y: 0	SP: fd
f510	1a	ROR	A: 0	X: 0	Y: 0	SP: fd
f512	1b	ROR	A: 0	X: 0	Y: 0	SP: fd
f514	1c	ROR	A: 0	X: 0	Y: 0	SP: fd
f516	1d	ROR	A: 0	X: 0	Y: 0	SP: fd
f518	1e	ROR	A: 0	X: 0	Y: 0	SP: fd
f51a	1f	ROR	A: 0	X: 0	Y: 0	SP: fd
f51c	0	RTS	A: 0	X: 0	Y: 0	SP: fd
c7e4	c7e1	JMP	A: 0	X: 0	Y: 0	SP: ff
c7e1	f4fc	JSR	A: 0	X: 0	Y: 0	SP: ff
f4fc	18	LDA	A: 0	X: 0	Y: 0	SP: fd
f4fe	f4ff	AND	A: 0	X: 0	Y: 0	SP: fd
f500	0	STA	A: 0	X: 0	Y: 0	SP: fd
f502	19	LDA	A: 0	X: 0	Y: 0	SP: fd
f504	f505	AND	A: 0	X: 0	Y: 0	SP: fd
f506	0	EOR	A: 0	X: 0	Y: 0	SP: fd
f508	0	CLC	A: 0	X: 0	Y: 0	SP: fd
f509	f50c	BEQ	A: 0	X: 0	Y: 0	SP: fd
f50c	18	ROR	A: 0	X: 0	Y: 0	SP: fd
f50e	19	ROR	A: 0	X: 0	Y: 0	SP: fd
f510	1a	ROR	A: 0	X: 0	Y: 0	SP: fd
f512	1b	ROR	A: 0	X: 0	Y: 0	SP: fd
f514	1c	ROR	A: 0	X: 0	Y: 0	SP: fd
f516	1d	ROR	A: 0	X: 0	Y: 0	SP: fd
f518	1e	ROR	A: 0	X: 0	Y: 0	SP: fd
f51a	1f	ROR	A: 0	X: 0	Y: 0	SP: fd
f51c	0	RTS	A: 0	X: 0	Y: 0	SP: fd
c7e4	c7e1	JMP	A: 0	X: 0	Y: 0	SP: ff
c7e1	f4fc	JSR	A: 0	X: 0	Y: 0	SP: ff
f4fc	18	LDA	A: 0	X: 0	Y: 0	SP: fd
f4fe	f4ff	AND	A: 0	X: 0	Y: 0	SP: fd
f500	0	STA	A: 0	X: 0	Y: 0	SP: fd
f502	19	LDA	A: 0	X: 0	Y: 0	SP: fd
f504	f505	AND	A: 0	X: 0	Y: 0	SP: fd
f506	0	EOR	A: 0	X: 0	Y: 0	SP: fd
f508	0	CLC	A: 0	X: 0	Y: 0	SP: fd
f509	f50c	BEQ	A: 0	X: 0	Y: 0	SP: fd
f50c	18	ROR	A: 0	X: 0	Y: 0	SP: fd
f50e	19	ROR	A: 0	X: 0	Y: 0	SP: fd
f510	1a	ROR	A: 0	X: 0	Y: 0	SP: fd
f512	1b	ROR	A: 0	X: 0	Y: 0	SP: fd
f514	1c	ROR	A: 0	X: 0	Y: 0	SP: fd
f516	1d	ROR	A: 0	X: 0	Y: 0	SP: fd
f518	1e	ROR	A: 0	X: 0	Y: 0	SP: fd
f51a	1f	ROR	A: 0	X: 0	Y: 0	SP: fd
f51c	0	RTS	A: 0	X: 0	Y: 0	SP: fd
c7e4	c7e1	JMP	A: 0	X: 0	Y: 0	SP: ff
c7e1	f4fc	JSR	A: 0	X: 0	Y: 0	SP: ff
f4fc	18	LDA	A: 0	X: 0	Y: 0	SP: fd
f4fe	f4ff	AND	A: 0	X: 0	Y: 0	SP: fd
f500	0	STA	A: 0	X: 0	Y: 0	SP: fd
f502	19	LDA	A: 0	X: 0	Y: 0	SP: fd
f504	f505	AND	A: 0	X: 0	Y: 0	SP: fd
f506	0	EOR	A: 0	X: 0	Y: 0	SP: fd
f508	0	CLC	A: 0	X: 0	Y: 0	SP: fd
f509	f50c	BEQ	A: 0	X: 0	Y: 0	SP: fd
f50c	18	ROR	A: 0	X: 0	Y: 0	SP: fd
f50e	19	ROR	A: 0	X: 0	Y: 0	SP: fd
f510	1a	ROR	A: 0	X: 0	Y: 0	SP: fd
f512	1b	ROR	A: 0	X: 0	Y: 0	SP: fd
f514	1c	ROR	A: 0	X: 0	Y: 0	SP: fd
f516	1d	ROR	A: 0	X: 0	Y: 0	SP: fd
f518	1e	ROR	A: 0	X: 0	Y: 0	SP: fd
f51a	1f	ROR	A: 0	X: 0	Y: 0	SP: fd
f51c	0	RTS	A: 0	X: 0	Y: 0	SP: fd
c7e4	c7e1	JMP	A: 0	X: 0	Y: 0	SP: ff
c7e1	f4fc	JSR	A: 0	X: 0	Y: 0	SP: ff
f4fc	18	LDA	A: 0	X: 0	Y: 0	SP: fd
f4fe	f4ff	AND	A: 0	X: 0	Y: 0	SP: fd
f500	0	STA	A: 0	X: 0	Y: 0	SP: fd
f502	19	LDA	A: 0	X: 0	Y: 0	SP: fd
f504	f505	AND	A: 0	X: 0	Y: 0	SP: fd
f506	0	EOR	A: 0	X: 0	Y: 0	SP: fd
f508	0	CLC	A: 0	X: 0	Y: 0	SP: fd
f509	f50c	BEQ	A: 0	X: 0	Y: 0	SP: fd
f50c	18	ROR	A: 0	X: 0	Y: 0	SP: fd
f50e	19	ROR	A: 0	X: 0	Y: 0	SP: fd
f510	1a	ROR	A: 0	X: 0	Y: 0	SP: fd
f512	1b	ROR	A: 0	X: 0	Y: 0	SP: fd
f514	1c	ROR	A: 0	X: 0	Y: 0	SP: fd
f516	1d	ROR	A: 0	X: 0	Y: 0	SP: fd
f518	1e	ROR	A: 0	X: 0	Y: 0	SP: fd
f51a	1f	ROR	A: 0	X: 0	Y: 0	SP: fd
f51c	0	RTS	A: 0	X: 0	Y: 0	SP: fd
c7e4	c7e1	JMP	A: 0	X: 0	Y: 0	SP: ff
c7e1	f4fc	JSR	A: 0	X: 0	Y: 0	SP: ff
f4fc	18	LDA	A: 0	X: 0	Y: 0	SP: fd
f4fe	f4ff	AND	A: 0	X: 0	Y: 0	SP: fd
f500	0	STA	A: 0	X: 0	Y: 0	SP: fd
f502	19	LDA	A: 0	X: 0	Y: 0	SP: fd
f504	f505	AND	A: 0	X: 0	Y: 0	SP: fd
f506	0	EOR	A: 0	X: 0	Y: 0	SP: fd
f508	0	CLC	A: 0	X: 0	Y: 0	SP: fd
f509	f50c	BEQ	A: 0	X: 0	Y: 0	SP: fd
f50c	18	ROR	A: 0	X: 0	Y: 0	SP: fd
f50e	19	ROR	A: 0	X: 0	Y: 0	SP: fd
f510	1a	ROR	A: 0	X: 0	Y: 0	SP: fd
f512	1b	ROR	A: 0	X: 0	Y: 0	SP: fd
f514	1c	ROR	A: 0	X: 0	Y: 0	SP: fd
f516	1d	ROR	A: 0	X: 0	Y: 0	SP: fd
f518	1e	ROR	A: 0	X: 0	Y: 0	SP: fd
f51a	1f	ROR	A: 0	X: 0	Y: 0	SP: fd
f51c	0	RTS	A: 0	X: 0	Y: 0	SP: fd
c7e4	c7e1	JMP	A: 0	X: 0	Y: 0	SP: ff
c7e1	f4fc	JSR	A: 0	X: 0	Y: 0	SP: ff
f4fc	18	LDA	A: 0	X: 0	Y: 0	SP: fd
f4fe	f4ff	AND	A: 0	X: 0	Y: 0	SP: fd
f500	0	STA	A: 0	X: 0	Y: 0	SP: fd
f502	19	LDA	A: 0	X: 0	Y: 0	SP: fd
f504	f505	AND	A: 0	X: 0	Y: 0	SP: fd
f506	0	EOR	A: 0	X: 0	Y: 0	SP: fd
f508	0	CLC	A: 0	X: 0	Y: 0	SP: fd
f509	f50c	BEQ	A: 0	X: 0	Y: 0	SP: fd
f50c	18	ROR	A: 0	X: 0	Y: 0	SP: fd
f50e	19	ROR	A: 0	X: 0	Y: 0	SP: fd
f510	1a	ROR	A: 0	X: 0	Y: 0	SP: fd
f512	1b	ROR	A: 0	X: 0	Y: 0	SP: fd
f514	1c	ROR	A: 0	X: 0	Y: 0	SP: fd
f516	1d	ROR	A: 0	X: 0	Y: 0	SP: fd
f518	1e	ROR	A: 0	X: 0	Y: 0	SP: fd
f51a	1f	ROR	A: 0	X: 0	Y: 0	SP: fd
f51c	0	RTS	A: 0	X: 0	Y: 0	SP: fd
c7e4	c7e1	JMP	A: 0	X: 0	Y: 0	SP: ff
c7e1	f4fc	JSR	A: 0	X: 0	Y: 0	SP: ff
f4fc	18	LDA	A: 0	X: 0	Y: 0	SP: fd
f4fe	f4ff	AND	A: 0	X: 0	Y: 0	SP: fd
f500	0	STA	A: 0	X: 0	Y: 0	SP: fd
f502	19	LDA	A: 0	X: 0	Y: 0	SP: fd
f504	f505	AND	A: 0	X: 0	Y: 0	SP: fd
f506	0	EOR	A: 0	X: 0	Y: 0	SP: fd
f508	0	CLC	A: 0	X: 0	Y: 0	SP: fd
f509	f50c	BEQ	A: 0	X: 0	Y: 0	SP: fd
f50c	18	ROR	A: 0	X: 0	Y: 0	SP: fd
f50e	19	ROR	A: 0	X: 0	Y: 0	SP: fd
f510	1a	ROR	A: 0	X: 0	Y: 0	SP: fd
f512	1b	ROR	A: 0	X: 0	Y: 0	SP: fd
f514	1c	ROR	A: 0	X: 0	Y: 0	SP: fd
f516	1d	ROR	A: 0	X: 0	Y: 0	SP: fd
f518	1e	ROR	A: 0	X: 0	Y: 0	SP: fd
f51a	1f	ROR	A: 0	X: 0	Y: 0	SP: fd
f51c	0	RTS	A: 0	X: 0	Y: 0	SP: fd
c7e4	c7e1	JMP	A: 0	X: 0	Y: 0	SP: ff
c7e1	f4fc	JSR	A: 0	X: 0	Y: 0	SP: ff
f4fc	18	LDA	A: 0	X: 0	Y: 0	SP: fd
f4fe	f4ff	AND	A: 0	X: 0	Y: 0	SP: fd
f500	0	STA	A: 0	X: 0	Y: 0	SP: fd
f502	19	LDA	A: 0	X: 0	Y: 0	SP: fd
f504	f505	AND	A: 0	X: 0	Y: 0	SP: fd
f506	0	EOR	A: 0	X: 0	Y: 0	SP: fd
f508	0	CLC	A: 0	X: 0	Y: 0	SP: fd
f509	f50c	BEQ	A: 0	X: 0	Y: 0	SP: fd
f50c	18	ROR	A: 0	X: 0	Y: 0	SP: fd
f50e	19	ROR	A: 0	X: 0	Y: 0	SP: fd
f510	1a	ROR	A: 0	X: 0	Y: 0	SP: fd
f512	1b	ROR	A: 0	X: 0	Y: 0	SP: fd
f514	1c	ROR	A: 0	X: 0	Y: 0	SP: fd
f516	1d	ROR	A: 0	X: 0	Y: 0	SP: fd
f518	1e	ROR	A: 0	X: 0	Y: 0	SP: fd
f51a	1f	ROR	A: 0	X: 0	Y: 0	SP: fd
f51c	0	RTS	A: 0	X: 0	Y: 0	SP: fd
c7e4	c7e1	JMP	A: 0	X: 0	Y: 0	SP: ff
c7e1	f4fc	JSR	A: 0	X: 0	Y: 0	SP: ff
f4fc	18	LDA	A: 0	X: 0	Y: 0	SP: fd
f4fe	f4ff	AND	A: 0	X: 0	Y: 0	SP: fd
f500	0	STA	A: 0	X: 0	Y: 0	SP: fd
f502	19	LDA	A: 0	X: 0	Y: 0	SP: fd
f504	f505	AND	A: 0	X: 0	Y: 0	SP: fd
f506	0	EOR	A: 0	X: 0	Y: 0	SP: fd
f508	0	CLC	A: 0	X: 0	Y: 0	SP: fd
f509	f50c	BEQ	A: 0	X: 0	Y: 0	SP: fd
f50c	18	ROR	A: 0	X: 0	Y: 0	SP: fd
f50e	19	ROR	A: 0	X: 0	Y: 0	SP: fd
f510	1a	ROR	A: 0	X: 0	Y: 0	SP: fd
f512	1b	ROR	A: 0	X: 0	Y: 0	SP: fd
f514	1c	ROR	A: 0	X: 0	Y: 0	SP: fd
f516	1d	ROR	A: 0	X: 0	Y: 0	SP: fd
f518	1e	ROR	A: 0	X: 0	Y: 0	SP: fd
f51a	1f	ROR	A: 0	X: 0	Y: 0	SP: fd
f51c	0	RTS	A: 0	X: 0	Y: 0	SP: fd
c7e4	c7e1	JMP	A: 0	X: 0	Y: 0	SP: ff
c7e1	f4fc	JSR	A: 0	X: 0	Y: 0	SP: ff
f4fc	18	LDA	A: 0	X: 0	Y: 0	SP: fd
f4fe	f4ff	AND	A: 0	X: 0	Y: 0	SP: fd
f500	0	STA	A: 0	X: 0	Y: 0	SP: fd
f502	19	LDA	A: 0	X: 0	Y: 0	SP: fd
f504	f505	AND	A: 0	X: 0	Y: 0	SP: fd
f506	0	EOR	A: 0	X: 0	Y: 0	SP: fd
f508	0	CLC	A: 0	X: 0	Y: 0	SP: fd
f509	f50c	BEQ	A: 0	X: 0	Y: 0	SP: fd
f50c	18	ROR	A: 0	X: 0	Y: 0	SP: fd
f50e	19	ROR	A: 0	X: 0	Y: 0	SP: fd
f510	1a	ROR	A: 0	X: 0	Y: 0	SP: fd
f512	1b	ROR	A: 0	X: 0	Y: 0	SP: fd
f514	1c	ROR	A: 0	X: 0	Y: 0	SP: fd
f516	1d	ROR	A: 0	X: 0	Y: 0	SP: fd
f518	1e	ROR	A: 0	X: 0	Y: 0	SP: fd
f51a	1f	ROR	A: 0	X: 0	Y: 0	SP: fd
f51c	0	RTS	A: 0	X: 0	Y: 0	SP: fd
c7e4	c7e1	JMP	A: 0	X: 0	Y: 0	SP: ff
c7e1	f4fc	JSR	A: 0	X: 0	Y: 0	SP: ff
f4fc	18	LDA	A: 0	X: 0	Y: 0	SP: fd
f4fe	f4ff	AND	A: 0	X: 0	Y: 0	SP: fd
f500	0	STA	A: 0	X: 0	Y: 0	SP: fd
f502	19	LDA	A: 0	X: 0	Y: 0	SP: fd
f504	f505	AND	A: 0	X: 0	Y: 0	SP: fd
f506	0	EOR	A: 0	X: 0	Y: 0	SP: fd
f508	0	CLC	A: 0	X: 0	Y: 0	SP: fd
f509	f50c	BEQ	A: 0	X: 0	Y: 0	SP: fd
f50c	18	ROR	A: 0	X: 0	Y: 0	SP: fd
f50e	19	ROR	A: 0	X: 0	Y: 0	SP: fd
f510	1a	ROR	A: 0	X: 0	Y: 0	SP: fd
f512	1b	ROR	A: 0	X: 0	Y: 0	SP: fd
f514	1c	ROR	A: 0	X: 0	Y: 0	SP: fd
f516	1d	ROR	A: 0	X: 0	Y: 0	SP: fd
f518	1e	ROR	A: 0	X: 0	Y: 0	SP: fd
f51a	1f	ROR	A: 0	X: 0	Y: 0	SP: fd
f51c	0	RTS	A: 0	X: 0	Y: 0	SP: fd
c7e4	c7e1	JMP	A: 0	X: 0	Y: 0	SP: ff
c7e1	f4fc	JSR	A: 0	X: 0	Y: 0	SP: ff
f4fc	18	LDA	A: 0	X: 0	Y: 0	SP: fd
f4fe	f4ff	AND	A: 0	X: 0	Y: 0	SP: fd
f500	0	STA	A: 0	X: 0	Y: 0	SP: fd
f502	19	LDA	A: 0	X: 0	Y: 0	SP: fd
f504	f505	AND	A: 0	X: 0	Y: 0	SP: fd
f506	0	EOR	A: 0	X: 0	Y: 0	SP: fd
f508	0	CLC	A: 0	X: 0	Y: 0	SP: fd
f509	f50c	BEQ	A: 0	X: 0	Y: 0	SP: fd
f50c	18	ROR	A: 0	X: 0	Y: 0	SP: fd
f50e	19	ROR	A: 0	X: 0	Y: 0	SP: fd
f510	1a	ROR	A: 0	X: 0	Y: 0	SP: fd
f512	1b	ROR	A: 0	X: 0	Y: 0	SP: fd
f514	1c	ROR	A: 0	X: 0	Y: 0	SP: fd
f516	1d	ROR	A: 0	X: 0	Y: 0	SP: fd
f518	1e	ROR	A: 0	X: 0	Y: 0	SP: fd
f51a	1f	ROR	A: 0	X: 0	Y: 0	SP: fd
f51c	0	RTS	A: 0	X: 0	Y: 0	SP: fd
c7e4	c7e1	JMP	A: 0	X: 0	Y: 0	SP: ff
c7e1	f4fc	JSR	A: 0	X: 0	Y: 0	SP: ff
f4fc	18	LDA	A: 0	X: 0	Y: 0	SP: fd
f4fe	f4ff	AND	A: 0	X: 0	Y: 0	SP: fd
f500	0	STA	A: 0	X: 0	Y: 0	SP: fd
f502	19	LDA	A: 0	X: 0	Y: 0	SP: fd
f504	f505	AND	A: 0	X: 0	Y: 0	SP: fd
f506	0	EOR	A: 0	X: 0	Y: 0	SP: fd
f508	0	CLC	A: 0	X: 0	Y: 0	SP: fd
f509	f50c	BEQ	A: 0	X: 0	Y: 0	SP: fd
f50c	18	ROR	A: 0	X: 0	Y: 0	SP: fd
f50e	19	ROR	A: 0	X: 0	Y: 0	SP: fd
f510	1a	ROR	A: 0	X: 0	Y: 0	SP: fd
f512	1b	ROR	A: 0	X: 0	Y: 0	SP: fd
f514	1c	ROR	A: 0	X: 0	Y: 0	SP: fd
f516	1d	ROR	A: 0	X: 0	Y: 0	SP: fd
f518	1e	ROR	A: 0	X: 0	Y: 0	SP: fd
f51a	1f	ROR	A: 0	X: 0	Y: 0	SP: fd
f51c	0	RTS	A: 0	X: 0	Y: 0	SP: fd
c7e4	c7e1	JMP	A: 0	X: 0	Y: 0	SP: ff
c7e1	f4fc	JSR	A: 0	X: 0	Y: 0	SP: ff
f4fc	18	LDA	A: 0	X: 0	Y: 0	SP: fd
f4fe	f4ff	AND	A: 0	X: 0	Y: 0	SP: fd
f500	0	STA	A: 0	X: 0	Y: 0	SP: fd
f502	19	LDA	A: 0	X: 0	Y: 0	SP: fd
f504	f505	AND	A: 0	X: 0	Y: 0	SP: fd
f506	0	EOR	A: 0	X: 0	Y: 0	SP: fd
f508	0	CLC	A: 0	X: 0	Y: 0	SP: fd
f509	f50c	BEQ	A: 0	X: 0	Y: 0	SP: fd
f50c	18	ROR	A: 0	X: 0	Y: 0	SP: fd
f50e	19	ROR	A: 0	X: 0	Y: 0	SP: fd
f510	1a	ROR	A: 0	X: 0	Y: 0	SP: fd
f512	1b	ROR	A: 0	X: 0	Y: 0	SP: fd
f514	1c	ROR	A: 0	X: 0	Y: 0	SP: fd
f516	1d	ROR	A: 0	X: 0	Y: 0	SP: fd
f518	1e	ROR	A: 0	X: 0	Y: 0	SP: fd
f51a	1f	ROR	A: 0	X: 0	Y: 0	SP: fd
f51c	0	RTS	A: 0	X: 0	Y: 0	SP: fd
c7e4	c7e1	JMP	A: 0	X: 0	Y: 0	SP: ff
c7e1	f4fc	JSR	A: 0	X: 0	Y: 0	SP: ff
f4fc	18	LDA	A: 0	X: 0	Y: 0	SP: fd
f4fe	f4ff	AND	A: 0	X: 0	Y: 0	SP: fd
f500	0	STA	A: 0	X: 0	Y: 0	SP: fd
f502	19	LDA	A: 0	X: 0	Y: 0	SP: fd
f504	f505	AND	A: 0	X: 0	Y: 0	SP: fd
f506	0	EOR	A: 0	X: 0	Y: 0	SP: fd
f508	0	CLC	A: 0	X: 0	Y: 0	SP: fd
f509	f50c	BEQ	A: 0	X: 0	Y: 0	SP: fd
f50c	18	ROR	A: 0	X: 0	Y: 0	SP: fd
f50e	19	ROR	A: 0	X: 0	Y: 0	SP: fd
f510	1a	ROR	A: 0	X: 0	Y: 0	SP: fd
f512	1b	ROR	A: 0	X: 0	Y: 0	SP: fd
f514	1c	ROR	A: 0	X: 0	Y: 0	SP: fd
f516	1d	ROR	A: 0	X: 0	Y: 0	SP: fd
f518	1e	ROR	A: 0	X: 0	Y: 0	SP: fd
f51a	1f	ROR	A: 0	X: 0	Y: 0	SP: fd
f51c	0	RTS	A: 0	X: 0	Y: 0	SP: fd
c7e4	c7e1	JMP	A: 0	X: 0	Y: 0	SP: ff
c7e1	f4fc	JSR	A: 0	X: 0	Y: 0	SP: ff
f4fc	18	LDA	A: 0	X: 0	Y: 0	SP: fd
f4fe	f4ff	AND	A: 0	X: 0	Y: 0	SP: fd
f500	0	STA	A: 0	X: 0	Y: 0	SP: fd
f502	19	LDA	A: 0	X: 0	Y: 0	SP: fd
f504	f505	AND	A: 0	X: 0	Y: 0	SP: fd
f506	0	EOR	A: 0	X: 0	Y: 0	SP: fd
f508	0	CLC	A: 0	X: 0	Y: 0	SP: fd
f509	f50c	BEQ	A: 0	X: 0	Y: 0	SP: fd
f50c	18	ROR	A: 0	X: 0	Y: 0	SP: fd
f50e	19	ROR	A: 0	X: 0	Y: 0	SP: fd
f510	1a	ROR	A: 0	X: 0	Y: 0	SP: fd
f512	1b	ROR	A: 0	X: 0	Y: 0	SP: fd
f514	1c	ROR	A: 0	X: 0	Y: 0	SP: fd
f516	1d	ROR	A: 0	X: 0	Y: 0	SP: fd
f518	1e	ROR	A: 0	X: 0	Y: 0	SP: fd
f51a	1f	ROR	A: 0	X: 0	Y: 0	SP: fd
f51c	0	RTS	A: 0	X: 0	Y: 0	SP: fd
c7e4	c7e1	JMP	A: 0	X: 0	Y: 0	SP: ff
c7e1	f4fc	JSR	A: 0	X: 0	Y: 0	SP: ff
f4fc	18	LDA	A: 0	X: 0	Y: 0	SP: fd
f4fe	f4ff	AND	A: 0	X: 0	Y: 0	SP: fd
f500	0	STA	A: 0	X: 0	Y: 0	SP: fd
f502	19	LDA	A: 0	X: 0	Y: 0	SP: fd
f504	f505	AND	A: 0	X: 0	Y: 0	SP: fd
f506	0	EOR	A: 0	X: 0	Y: 0	SP: fd
f508	0	CLC	A: 0	X: 0	Y: 0	SP: fd
f509	f50c	BEQ	A: 0	X: 0	Y: 0	SP: fd
f50c	18	ROR	A: 0	X: 0	Y: 0	SP: fd
f50e	19	ROR	A: 0	X: 0	Y: 0	SP: fd
f510	1a	ROR	A: 0	X: 0	Y: 0	SP: fd
f512	1b	ROR	A: 0	X: 0	Y: 0	SP: fd
f514	1c	ROR	A: 0	X: 0	Y: 0	SP: fd
f516	1d	ROR	A: 0	X: 0	Y: 0	SP: fd
f518	1e	ROR	A: 0	X: 0	Y: 0	SP: fd
f51a	1f	ROR	A: 0	X: 0	Y: 0	SP: fd
f51c	0	RTS	A: 0	X: 0	Y: 0	SP: fd
c7e4	c7e1	JMP	A: 0	X: 0	Y: 0	SP: ff
c7e1	f4fc	JSR	A: 0	X: 0	Y: 0	SP: ff
f4fc	18	LDA	A: 0	X: 0	Y: 0	SP: fd
f4fe	f4ff	AND	A: 0	X: 0	Y: 0	SP: fd
f500	0	STA	A: 0	X: 0	Y: 0	SP: fd
f502	19	LDA	A: 0	X: 0	Y: 0	SP: fd
f504	f505	AND	A: 0	X: 0	Y: 0	SP: fd
f506	0	EOR	A: 0	X: 0	Y: 0	SP: fd
f508	0	CLC	A: 0	X: 0	Y: 0	SP: fd
f509	f50c	BEQ	A: 0	X: 0	Y: 0	SP: fd
f50c	18	ROR	A: 0	X: 0	Y: 0	SP: fd
f50e	19	ROR	A: 0	X: 0	Y: 0	SP: fd
f510	1a	ROR	A: 0	X: 0	Y: 0	SP: fd
f512	1b	ROR	A: 0	X: 0	Y: 0	SP: fd
f514	1c	ROR	A: 0	X: 0	Y: 0	SP: fd
f516	1d	ROR	A: 0	X: 0	Y: 0	SP: fd
f518	1e	ROR	A: 0	X: 0	Y: 0	SP: fd
f51a	1f	ROR	A: 0	X: 0	Y: 0	SP: fd
f51c	0	RTS	A: 0	X: 0	Y: 0	SP: fd
c7e4	c7e1	JMP	A: 0	X: 0	Y: 0	SP: ff
c7e1	f4fc	JSR	A: 0	X: 0	Y: 0	SP: ff
f4fc	18	LDA	A: 0	X: 0	Y: 0	SP: fd
f4fe	f4ff	AND	A: 0	X: 0	Y: 0	SP: fd
f500	0	STA	A: 0	X: 0	Y: 0	SP: fd
f502	19	LDA	A: 0	X: 0	Y: 0	SP: fd
f504	f505	AND	A: 0	X: 0	Y: 0	SP: fd
f506	0	EOR	A: 0	X: 0	Y: 0	SP: fd
f508	0	CLC	A: 0	X: 0	Y: 0	SP: fd
f509	f50c	BEQ	A: 0	X: 0	Y: 0	SP: fd
f50c	18	ROR	A: 0	X: 0	Y: 0	SP: fd
f50e	19	ROR	A: 0	X: 0	Y: 0	SP: fd
f510	1a	ROR	A: 0	X: 0	Y: 0	SP: fd
f512	1b	ROR	A: 0	X: 0	Y: 0	SP: fd
f514	1c	ROR	A: 0	X: 0	Y: 0	SP: fd
f516	1d	ROR	A: 0	X: 0	Y: 0	SP: fd
f518	1e	ROR	A: 0	X: 0	Y: 0	SP: fd
f51a	1f	ROR	A: 0	X: 0	Y: 0	SP: fd
f51c	0	RTS	A: 0	X: 0	Y: 0	SP: fd
c7e4	c7e1	JMP	A: 0	X: 0	Y: 0	SP: ff
c7e1	f4fc	JSR	A: 0	X: 0	Y: 0	SP: ff
f4fc	18	LDA	A: 0	X: 0	Y: 0	SP: fd
f4fe	f4ff	AND	A: 0	X: 0	Y: 0	SP: fd
f500	0	STA	A: 0	X: 0	Y: 0	SP: fd
f502	19	LDA	A: 0	X: 0	Y: 0	SP: fd
f504	f505	AND	A: 0	X: 0	Y: 0	SP: fd
f506	0	EOR	A: 0	X: 0	Y: 0	SP: fd
f508	0	CLC	A: 0	X: 0	Y: 0	SP: fd
f509	f50c	BEQ	A: 0	X: 0	Y: 0	SP: fd
f50c	18	ROR	A: 0	X: 0	Y: 0	SP: fd
f50e	19	ROR	A: 0	X: 0	Y: 0	SP: fd
f510	1a	ROR	A: 0	X: 0	Y: 0	SP: fd
f512	1b	ROR	A: 0	X: 0	Y: 0	SP: fd
f514	1c	ROR	A: 0	X: 0	Y: 0	SP: fd
f516	1d	ROR	A: 0	X: 0	Y: 0	SP: fd
f518	1e	ROR	A: 0	X: 0	Y: 0	SP: fd
f51a	1f	ROR	A: 0	X: 0	Y: 0	SP: fd
f51c	0	RTS	A: 0	X: 0	Y: 0	SP: fd
c7e4	c7e1	JMP	A: 0	X: 0	Y: 0	SP: ff
c7e1	f4fc	JSR	A: 0	X: 0	Y: 0	SP: ff
f4fc	18	LDA	A: 0	X: 0	Y: 0	SP: fd
f4fe	f4ff	AND	A: 0	X: 0	Y: 0	SP: fd
f500	0	STA	A: 0	X: 0	Y: 0	SP: fd
f502	19	LDA	A: 0	X: 0	Y: 0	SP: fd
f504	f505	AND	A: 0	X: 0	Y: 0	SP: fd
f506	0	EOR	A: 0	X: 0	Y: 0	SP: fd
f508	0	CLC	A: 0	X: 0	Y: 0	SP: fd
f509	f50c	BEQ	A: 0	X: 0	Y: 0	SP: fd
f50c	18	ROR	A: 0	X: 0	Y: 0	SP: fd
f50e	19	ROR	A: 0	X: 0	Y: 0	SP: fd
f510	1a	ROR	A: 0	X: 0	Y: 0	SP: fd
f512	1b	ROR	A: 0	X: 0	Y: 0	SP: fd
f514	1c	ROR	A: 0	X: 0	Y: 0	SP: fd
f516	1d	ROR	A: 0	X: 0	Y: 0	SP: fd
f518	1e	ROR	A: 0	X: 0	Y: 0	SP: fd
f51a	1f	ROR	A: 0	X: 0	Y: 0	SP: fd
f51c	0	RTS	A: 0	X: 0	Y: 0	SP: fd
c7e4	c7e1	JMP	A: 0	X: 0	Y: 0	SP: ff
c7e1	f4fc	JSR	A: 0	X: 0	Y: 0	SP: ff
f4fc	18	LDA	A: 0	X: 0	Y: 0	SP: fd
f4fe	f4ff	AND	A: 0	X: 0	Y: 0	SP: fd
f500	0	STA	A: 0	X: 0	Y: 0	SP: fd
f502	19	LDA	A: 0	X: 0	Y: 0	SP: fd
f504	f505	AND	A: 0	X: 0	Y: 0	SP: fd
f506	0	EOR	A: 0	X: 0	Y: 0	SP: fd
f508	0	CLC	A: 0	X: 0	Y: 0	SP: fd
f509	f50c	BEQ	A: 0	X: 0	Y: 0	SP: fd
f50c	18	ROR	A: 0	X: 0	Y: 0	SP: fd
f50e	19	ROR	A: 0	X: 0	Y: 0	SP: fd
f510	1a	ROR	A: 0	X: 0	Y: 0	SP: fd
f512	1b	ROR	A: 0	X: 0	Y: 0	SP: fd
f514	1c	ROR	A: 0	X: 0	Y: 0	SP: fd
f516	1d	ROR	A: 0	X: 0	Y: 0	SP: fd
f518	1e	ROR	A: 0	X: 0	Y: 0	SP: fd
f51a	1f	ROR	A: 0	X: 0	Y: 0	SP: fd
f51c	0	RTS	A: 0	X: 0	Y: 0	SP: fd
c7e4	c7e1	JMP	A: 0	X: 0	Y: 0	SP: ff
c7e1	f4fc	JSR	A: 0	X: 0	Y: 0	SP: ff
f4fc	18	LDA	A: 0	X: 0	Y: 0	SP: fd
f4fe	f4ff	AND	A: 0	X: 0	Y: 0	SP: fd
f500	0	STA	A: 0	X: 0	Y: 0	SP: fd
f502	19	LDA	A: 0	X: 0	Y: 0	SP: fd
f504	f505	AND	A: 0	X: 0	Y: 0	SP: fd
f506	0	EOR	A: 0	X: 0	Y: 0	SP: fd
f508	0	CLC	A: 0	X: 0	Y: 0	SP: fd
f509	f50c	BEQ	A: 0	X: 0	Y: 0	SP: fd
f50c	18	ROR	A: 0	X: 0	Y: 0	SP: fd
f50e	19	ROR	A: 0	X: 0	Y: 0	SP: fd
f510	1a	ROR	A: 0	X: 0	Y: 0	SP: fd
f512	1b	ROR	A: 0	X: 0	Y: 0	SP: fd
f514	1c	ROR	A: 0	X: 0	Y: 0	SP: fd
f516	1d	ROR	A: 0	X: 0	Y: 0	SP: fd
f518	1e	ROR	A: 0	X: 0	Y: 0	SP: fd
f51a	1f	ROR	A: 0	X: 0	Y: 0	SP: fd
f51c	0	RTS	A: 0	X: 0	Y: 0	SP: fd
c7e4	c7e1	JMP	A: 0	X: 0	Y: 0	SP: ff
c7e1	f4fc	JSR	A: 0	X: 0	Y: 0	SP: ff
f4fc	18	LDA	A: 0	X: 0	Y: 0	SP: fd
f4fe	f4ff	AND	A: 0	X: 0	Y: 0	SP: fd
f500	0	STA	A: 0	X: 0	Y: 0	SP: fd
f502	19	LDA	A: 0	X: 0	Y: 0	SP: fd
f504	f505	AND	A: 0	X: 0	Y: 0	SP: fd
f506	0	EOR	A: 0	X: 0	Y: 0	SP: fd
f508	0	CLC	A: 0	X: 0	Y: 0	SP: fd
f509	f50c	BEQ	A: 0	X: 0	Y: 0	SP: fd
f50c	18	ROR	A: 0	X: 0	Y: 0	SP: fd
f50e	19	ROR	A: 0	X: 0	Y: 0	SP: fd
f510	1a	ROR	A: 0	X: 0	Y: 0	SP: fd
f512	1b	ROR	A: 0	X: 0	Y: 0	SP: fd
f514	1c	ROR	A: 0	X: 0	Y: 0	SP: fd
f516	1d	ROR	A: 0	X: 0	Y: 0	SP: fd
f518	1e	ROR	A: 0	X: 0	Y: 0	SP: fd
f51a	1f	ROR	A: 0	X: 0	Y: 0	SP: fd
f51c	0	RTS	A: 0	X: 0	Y: 0	SP: fd
c7e4	c7e1	JMP	A: 0	X: 0	Y: 0	SP: ff
c7e1	f4fc	JSR	A: 0	X: 0	Y: 0	SP: ff
f4fc	18	LDA	A: 0	X: 0	Y: 0	SP: fd
f4fe	f4ff	AND	A: 0	X: 0	Y: 0	SP: fd
f500	0	STA	A: 0	X: 0	Y: 0	SP: fd
f502	19	LDA	A: 0	X: 0	Y: 0	SP: fd
f504	f505	AND	A: 0	X: 0	Y: 0	SP: fd
f506	0	EOR	A: 0	X: 0	Y: 0	SP: fd
f508	0	CLC	A: 0	X: 0	Y: 0	SP: fd
f509	f50c	BEQ	A: 0	X: 0	Y: 0	SP: fd
f50c	18	ROR	A: 0	X: 0	Y: 0	SP: fd
f50e	19	ROR	A: 0	X: 0	Y: 0	SP: fd
f510	1a	ROR	A: 0	X: 0	Y: 0	SP: fd
f512	1b	ROR	A: 0	X: 0	Y: 0	SP: fd
f514	1c	ROR	A: 0	X: 0	Y: 0	SP: fd
f516	1d	ROR	A: 0	X: 0	Y: 0	SP: fd
f518	1e	ROR	A: 0	X: 0	Y: 0	SP: fd
f51a	1f	ROR	A: 0	X: 0	Y: 0	SP: fd
f51c	0	RTS	A: 0	X: 0	Y: 0	SP: fd
c7e4	c7e1	JMP	A: 0	X: 0	Y: 0	SP: ff
c7e1	f4fc	JSR	A: 0	X: 0	Y: 0	SP: ff
f4fc	18	LDA	A: 0	X: 0	Y: 0	SP: fd
f4fe	f4ff	AND	A: 0	X: 0	Y: 0	SP: fd
f500	0	STA	A: 0	X: 0	Y: 0	SP: fd
f502	19	LDA	A: 0	X: 0	Y: 0	SP: fd
f504	f505	AND	A: 0	X: 0	Y: 0	SP: fd
f506	0	EOR	A: 0	X: 0	Y: 0	SP: fd
f508	0	CLC	A: 0	X: 0	Y: 0	SP: fd
f509	f50c	BEQ	A: 0	X: 0	Y: 0	SP: fd
f50c	18	ROR	A: 0	X: 0	Y: 0	SP: fd
f50e	19	ROR	A: 0	X: 0	Y: 0	SP: fd
f510	1a	ROR	A: 0	X: 0	Y: 0	SP: fd
f512	1b	ROR	A: 0	X: 0	Y: 0	SP: fd
f514	1c	ROR	A: 0	X: 0	Y: 0	SP: fd
f516	1d	ROR	A: 0	X: 0	Y: 0	SP: fd
f518	1e	ROR	A: 0	X: 0	Y: 0	SP: fd
f51a	1f	ROR	A: 0	X: 0	Y: 0	SP: fd
f51c	0	RTS	A: 0	X: 0	Y: 0	SP: fd
c7e4	c7e1	JMP	A: 0	X: 0	Y: 0	SP: ff
c7e1	f4fc	JSR	A: 0	X: 0	Y: 0	SP: ff
f4fc	18	LDA	A: 0	X: 0	Y: 0	SP: fd
f4fe	f4ff	AND	A: 0	X: 0	Y: 0	SP: fd
f500	0	STA	A: 0	X: 0	Y: 0	SP: fd
f502	19	LDA	A: 0	X: 0	Y: 0	SP: fd
f504	f505	AND	A: 0	X: 0	Y: 0	SP: fd
f506	0	EOR	A: 0	X: 0	Y: 0	SP: fd
f508	0	CLC	A: 0	X: 0	Y: 0	SP: fd
f509	f50c	BEQ	A: 0	X: 0	Y: 0	SP: fd
f50c	18	ROR	A: 0	X: 0	Y: 0	SP: fd
f50e	19	ROR	A: 0	X: 0	Y: 0	SP: fd
f510	1a	ROR	A: 0	X: 0	Y: 0	SP: fd
f512	1b	ROR	A: 0	X: 0	Y: 0	SP: fd
f514	1c	ROR	A: 0	X: 0	Y: 0	SP: fd
f516	1d	ROR	A: 0	X: 0	Y: 0	SP: fd
f518	1e	ROR	A: 0	X: 0	Y: 0	SP: fd
f51a	1f	ROR	A: 0	X: 0	Y: 0	SP: fd
f51c	0	RTS	A: 0	X: 0	Y: 0	SP: fd
c7e4	c7e1	JMP	A: 0	X: 0	Y: 0	SP: ff
c7e1	f4fc	JSR	A: 0	X: 0	Y: 0	SP: ff
f4fc	18	LDA	A: 0	X: 0	Y: 0	SP: fd
f4fe	f4ff	AND	A: 0	X: 0	Y: 0	SP: fd
f500	0	STA	A: 0	X: 0	Y: 0	SP: fd
f502	19	LDA	A: 0	X: 0	Y: 0	SP: fd
f504	f505	AND	A: 0	X: 0	Y: 0	SP: fd
f506	0	EOR	A: 0	X: 0	Y: 0	SP: fd
f508	0	CLC	A: 0	X: 0	Y: 0	SP: fd
f509	f50c	BEQ	A: 0	X: 0	Y: 0	SP: fd
f50c	18	ROR	A: 0	X: 0	Y: 0	SP: fd
f50e	19	ROR	A: 0	X: 0	Y: 0	SP: fd
f510	1a	ROR	A: 0	X: 0	Y: 0	SP: fd
f512	1b	ROR	A: 0	X: 0	Y: 0	SP: fd
f514	1c	ROR	A: 0	X: 0	Y: 0	SP: fd
f516	1d	ROR	A: 0	X: 0	Y: 0	SP: fd
f518	1e	ROR	A: 0	X: 0	Y: 0	SP: fd
f51a	1f	ROR	A: 0	X: 0	Y: 0	SP: fd
f51c	0	RTS	A: 0	X: 0	Y: 0	SP: fd
c7e4	c7e1	JMP	A: 0	X: 0	Y: 0	SP: ff
c7e1	f4fc	JSR	A: 0	X: 0	Y: 0	SP: ff
f4fc	18	LDA	A: 0	X: 0	Y: 0	SP: fd
f4fe	f4ff	AND	A: 0	X: 0	Y: 0	SP: fd
f500	0	STA	A: 0	X: 0	Y: 0	SP: fd
f502	19	LDA	A: 0	X: 0	Y: 0	SP: fd
f504	f505	AND	A: 0	X: 0	Y: 0	SP: fd
f506	0	EOR	A: 0	X: 0	Y: 0	SP: fd
f508	0	CLC	A: 0	X: 0	Y: 0	SP: fd
f509	f50c	BEQ	A: 0	X: 0	Y: 0	SP: fd
f50c	18	ROR	A: 0	X: 0	Y: 0	SP: fd
f50e	19	ROR	A: 0	X: 0	Y: 0	SP: fd
f510	1a	ROR	A: 0	X: 0	Y: 0	SP: fd
f512	1b	ROR	A: 0	X: 0	Y: 0	SP: fd
f514	1c	ROR	A: 0	X: 0	Y: 0	SP: fd
f516	1d	ROR	A: 0	X: 0	Y: 0	SP: fd
f518	1e	ROR	A: 0	X: 0	Y: 0	SP: fd
f51a	1f	ROR	A: 0	X: 0	Y: 0	SP: fd
f51c	0	RTS	A: 0	X: 0	Y: 0	SP: fd
c7e4	c7e1	JMP	A: 0	X: 0	Y: 0	SP: ff
c7e1	f4fc	JSR	A: 0	X: 0	Y: 0	SP: ff
f4fc	18	LDA	A: 0	X: 0	Y: 0	SP: fd
f4fe	f4ff	AND	A: 0	X: 0	Y: 0	SP: fd
f500	0	STA	A: 0	X: 0	Y: 0	SP: fd
f502	19	LDA	A: 0	X: 0	Y: 0	SP: fd
f504	f505	AND	A: 0	X: 0	Y: 0	SP: fd
f506	0	EOR	A: 0	X: 0	Y: 0	SP: fd
f508	0	CLC	A: 0	X: 0	Y: 0	SP: fd
f509	f50c	BEQ	A: 0	X: 0	Y: 0	SP: fd
f50c	18	ROR	A: 0	X: 0	Y: 0	SP: fd
f50e	19	ROR	A: 0	X: 0	Y: 0	SP: fd
f510	1a	ROR	A: 0	X: 0	Y: 0	SP: fd
f512	1b	ROR	A: 0	X: 0	Y: 0	SP: fd
f514	1c	ROR	A: 0	X: 0	Y: 0	SP: fd
f516	1d	ROR	A: 0	X: 0	Y: 0	SP: fd
f518	1e	ROR	A: 0	X: 0	Y: 0	SP: fd
f51a	1f	ROR	A: 0	X: 0	Y: 0	SP: fd
f51c	0	RTS	A: 0	X: 0	Y: 0	SP: fd
c7e4	c7e1	JMP	A: 0	X: 0	Y: 0	SP: ff
c7e1	f4fc	JSR	A: 0	X: 0	Y: 0	SP: ff
f4fc	18	LDA	A: 0	X: 0	Y: 0	SP: fd
f4fe	f4ff	AND	A: 0	X: 0	Y: 0	SP: fd
f500	0	STA	A: 0	X: 0	Y: 0	SP: fd
f502	19	LDA	A: 0	X: 0	Y: 0	SP: fd
f504	f505	AND	A: 0	X: 0	Y: 0	SP: fd
f506	0	EOR	A: 0	X: 0	Y: 0	SP: fd
f508	0	CLC	A: 0	X: 0	Y: 0	SP: fd
f509	f50c	BEQ	A: 0	X: 0	Y: 0	SP: fd
f50c	18	ROR	A: 0	X: 0	Y: 0	SP: fd
f50e	19	ROR	A: 0	X: 0	Y: 0	SP: fd
f510	1a	ROR	A: 0	X: 0	Y: 0	SP: fd
f512	1b	ROR	A: 0	X: 0	Y: 0	SP: fd
f514	1c	ROR	A: 0	X: 0	Y: 0	SP: fd
f516	1d	ROR	A: 0	X: 0	Y: 0	SP: fd
f518	1e	ROR	A: 0	X: 0	Y: 0	SP: fd
f51a	1f	ROR	A: 0	X: 0	Y: 0	SP: fd
f51c	0	RTS	A: 0	X: 0	Y: 0	SP: fd
c7e4	c7e1	JMP	A: 0	X: 0	Y: 0	SP: ff
c7e1	f4fc	JSR	A: 0	X: 0	Y: 0	SP: ff
f4fc	18	LDA	A: 0	X: 0	Y: 0	SP: fd
f4fe	f4ff	AND	A: 0	X: 0	Y: 0	SP: fd
f500	0	STA	A: 0	X: 0	Y: 0	SP: fd
f502	19	LDA	A: 0	X: 0	Y: 0	SP: fd
f504	f505	AND	A: 0	X: 0	Y: 0	SP: fd
f506	0	EOR	A: 0	X: 0	Y: 0	SP: fd
f508	0	CLC	A: 0	X: 0	Y: 0	SP: fd
f509	f50c	BEQ	A: 0	X: 0	Y: 0	SP: fd
f50c	18	ROR	A: 0	X: 0	Y: 0	SP: fd
f50e	19	ROR	A: 0	X: 0	Y: 0	SP: fd
f510	1a	ROR	A: 0	X: 0	Y: 0	SP: fd
f512	1b	ROR	A: 0	X: 0	Y: 0	SP: fd
f514	1c	ROR	A: 0	X: 0	Y: 0	SP: fd
f516	1d	ROR	A: 0	X: 0	Y: 0	SP: fd
f518	1e	ROR	A: 0	X: 0	Y: 0	SP: fd
f51a	1f	ROR	A: 0	X: 0	Y: 0	SP: fd
f51c	0	RTS	A: 0	X: 0	Y: 0	SP: fd
c7e4	c7e1	JMP	A: 0	X: 0	Y: 0	SP: ff
c7e1	f4fc	JSR	A: 0	X: 0	Y: 0	SP: ff
f4fc	18	LDA	A: 0	X: 0	Y: 0	SP: fd
f4fe	f4ff	AND	A: 0	X: 0	Y: 0	SP: fd
f500	0	STA	A: 0	X: 0	Y: 0	SP: fd
f502	19	LDA	A: 0	X: 0	Y: 0	SP: fd
f504	f505	AND	A: 0	X: 0	Y: 0	SP: fd
f506	0	EOR	A: 0	X: 0	Y: 0	SP: fd
f508	0	CLC	A: 0	X: 0	Y: 0	SP: fd
f509	f50c	BEQ	A: 0	X: 0	Y: 0	SP: fd
f50c	18	ROR	A: 0	X: 0	Y: 0	SP: fd
f50e	19	ROR	A: 0	X: 0	Y: 0	SP: fd
f510	1a	ROR	A: 0	X: 0	Y: 0	SP: fd
f512	1b	ROR	A: 0	X: 0	Y: 0	SP: fd
f514	1c	ROR	A: 0	X: 0	Y: 0	SP: fd
f516	1d	ROR	A: 0	X: 0	Y: 0	SP: fd
f518	1e	ROR	A: 0	X: 0	Y: 0	SP: fd
f51a	1f	ROR	A: 0	X: 0	Y: 0	SP: fd
f51c	0	RTS	A: 0	X: 0	Y: 0	SP: fd
c7e4	c7e1	JMP	A: 0	X: 0	Y: 0	SP: ff
c7e1	f4fc	JSR	A: 0	X: 0	Y: 0	SP: ff
f4fc	18	LDA	A: 0	X: 0	Y: 0	SP: fd
f4fe	f4ff	AND	A: 0	X: 0	Y: 0	SP: fd
f500	0	STA	A: 0	X: 0	Y: 0	SP: fd
f502	19	LDA	A: 0	X: 0	Y: 0	SP: fd
f504	f505	AND	A: 0	X: 0	Y: 0	SP: fd
f506	0	EOR	A: 0	X: 0	Y: 0	SP: fd
f508	0	CLC	A: 0	X: 0	Y: 0	SP: fd
f509	f50c	BEQ	A: 0	X: 0	Y: 0	SP: fd
f50c	18	ROR	A: 0	X: 0	Y: 0	SP: fd
f50e	19	ROR	A: 0	X: 0	Y: 0	SP: fd
f510	1a	ROR	A: 0	X: 0	Y: 0	SP: fd
f512	1b	ROR	A: 0	X: 0	Y: 0	SP: fd
f514	1c	ROR	A: 0	X: 0	Y: 0	SP: fd
f516	1d	ROR	A: 0	X: 0	Y: 0	SP: fd
f518	1e	ROR	A: 0	X: 0	Y: 0	SP: fd
f51a	1f	ROR	A: 0	X: 0	Y: 0	SP: fd
f51c	0	RTS	A: 0	X: 0	Y: 0	SP: fd
c7e4	c7e1	JMP	A: 0	X: 0	Y: 0	SP: ff
c7e1	f4fc	JSR	A: 0	X: 0	Y: 0	SP: ff
f4fc	18	LDA	A: 0	X: 0	Y: 0	SP: fd
f4fe	f4ff	AND	A: 0	X: 0	Y: 0	SP: fd
f500	0	STA	A: 0	X: 0	Y: 0	SP: fd
f502	19	LDA	A: 0	X: 0	Y: 0	SP: fd
f504	f505	AND	A: 0	X: 0	Y: 0	SP: fd
f506	0	EOR	A: 0	X: 0	Y: 0	SP: fd
f508	0	CLC	A: 0	X: 0	Y: 0	SP: fd
f509	f50c	BEQ	A: 0	X: 0	Y: 0	SP: fd
f50c	18	ROR	A: 0	X: 0	Y: 0	SP: fd
f50e	19	ROR	A: 0	X: 0	Y: 0	SP: fd
f510	1a	ROR	A: 0	X: 0	Y: 0	SP: fd
f512	1b	ROR	A: 0	X: 0	Y: 0	SP: fd
f514	1c	ROR	A: 0	X: 0	Y: 0	SP: fd
f516	1d	ROR	A: 0	X: 0	Y: 0	SP: fd
f518	1e	ROR	A: 0	X: 0	Y: 0	SP: fd
f51a	1f	ROR	A: 0	X: 0	Y: 0	SP: fd
f51c	0	RTS	A: 0	X: 0	Y: 0	SP: fd
c7e4	c7e1	JMP	A: 0	X: 0	Y: 0	SP: ff
c7e1	f4fc	JSR	A: 0	X: 0	Y: 0	SP: ff
f4fc	18	LDA	A: 0	X: 0	Y: 0	SP: fd
f4fe	f4ff	AND	A: 0	X: 0	Y: 0	SP: fd
f500	0	STA	A: 0	X: 0	Y: 0	SP: fd
f502	19	LDA	A: 0	X: 0	Y: 0	SP: fd
f504	f505	AND	A: 0	X: 0	Y: 0	SP: fd
f506	0	EOR	A: 0	X: 0	Y: 0	SP: fd
f508	0	CLC	A: 0	X: 0	Y: 0	SP: fd
f509	f50c	BEQ	A: 0	X: 0	Y: 0	SP: fd
f50c	18	ROR	A: 0	X: 0	Y: 0	SP: fd
f50e	19	ROR	A: 0	X: 0	Y: 0	SP: fd
f510	1a	ROR	A: 0	X: 0	Y: 0	SP: fd
f512	1b	ROR	A: 0	X: 0	Y: 0	SP: fd
f514	1c	ROR	A: 0	X: 0	Y: 0	SP: fd
f516	1d	ROR	A: 0	X: 0	Y: 0	SP: fd
f518	1e	ROR	A: 0	X: 0	Y: 0	SP: fd
f51a	1f	ROR	A: 0	X: 0	Y: 0	SP: fd
f51c	0	RTS	A: 0	X: 0	Y: 0	SP: fd
c7e4	c7e1	JMP	A: 0	X: 0	Y: 0	SP: ff
c7e1	f4fc	JSR	A: 0	X: 0	Y: 0	SP: ff
f4fc	18	LDA	A: 0	X: 0	Y: 0	SP: fd
f4fe	f4ff	AND	A: 0	X: 0	Y: 0	SP: fd
f500	0	STA	A: 0	X: 0	Y: 0	SP: fd
f502	19	LDA	A: 0	X: 0	Y: 0	SP: fd
f504	f505	AND	A: 0	X: 0	Y: 0	SP: fd
f506	0	EOR	A: 0	X: 0	Y: 0	SP: fd
f508	0	CLC	A: 0	X: 0	Y: 0	SP: fd
f509	f50c	BEQ	A: 0	X: 0	Y: 0	SP: fd
f50c	18	ROR	A: 0	X: 0	Y: 0	SP: fd
f50e	19	ROR	A: 0	X: 0	Y: 0	SP: fd
f510	1a	ROR	A: 0	X: 0	Y: 0	SP: fd
f512	1b	ROR	A: 0	X: 0	Y: 0	SP: fd
f514	1c	ROR	A: 0	X: 0	Y: 0	SP: fd
f516	1d	ROR	A: 0	X: 0	Y: 0	SP: fd
f518	1e	ROR	A: 0	X: 0	Y: 0	SP: fd
f51a	1f	ROR	A: 0	X: 0	Y: 0	SP: fd
f51c	0	RTS	A: 0	X: 0	Y: 0	SP: fd
c7e4	c7e1	JMP	A: 0	X: 0	Y: 0	SP: ff
c7e1	f4fc	JSR	A: 0	X: 0	Y: 0	SP: ff
f4fc	18	LDA	A: 0	X: 0	Y: 0	SP: fd
f4fe	f4ff	AND	A: 0	X: 0	Y: 0	SP: fd
f500	0	STA	A: 0	X: 0	Y: 0	SP: fd
f502	19	LDA	A: 0	X: 0	Y: 0	SP: fd
f504	f505	AND	A: 0	X: 0	Y: 0	SP: fd
f506	0	EOR	A: 0	X: 0	Y: 0	SP: fd
f508	0	CLC	A: 0	X: 0	Y: 0	SP: fd
f509	f50c	BEQ	A: 0	X: 0	Y: 0	SP: fd
f50c	18	ROR	A: 0	X: 0	Y: 0	SP: fd
f50e	19	ROR	A: 0	X: 0	Y: 0	SP: fd
f510	1a	ROR	A: 0	X: 0	Y: 0	SP: fd
f512	1b	ROR	A: 0	X: 0	Y: 0	SP: fd
f514	1c	ROR	A: 0	X: 0	Y: 0	SP: fd
f516	1d	ROR	A: 0	X: 0	Y: 0	SP: fd
f518	1e	ROR	A: 0	X: 0	Y: 0	SP: fd
f51a	1f	ROR	A: 0	X: 0	Y: 0	SP: fd
f51c	0	RTS	A: 0	X: 0	Y: 0	SP: fd
c7e4	c7e1	JMP	A: 0	X: 0	Y: 0	SP: ff
c7e1	f4fc	JSR	A: 0	X: 0	Y: 0	SP: ff
f4fc	18	LDA	A: 0	X: 0	Y: 0	SP: fd
f4fe	f4ff	AND	A: 0	X: 0	Y: 0	SP: fd
f500	0	STA	A: 0	X: 0	Y: 0	SP: fd
f502	19	LDA	A: 0	X: 0	Y: 0	SP: fd
f504	f505	AND	A: 0	X: 0	Y: 0	SP: fd
f506	0	EOR	A: 0	X: 0	Y: 0	SP: fd
f508	0	CLC	A: 0	X: 0	Y: 0	SP: fd
f509	f50c	BEQ	A: 0	X: 0	Y: 0	SP: fd
f50c	18	ROR	A: 0	X: 0	Y: 0	SP: fd
f50e	19	ROR	A: 0	X: 0	Y: 0	SP: fd
f510	1a	ROR	A: 0	X: 0	Y: 0	SP: fd
f512	1b	ROR	A: 0	X: 0	Y: 0	SP: fd
f514	1c	ROR	A: 0	X: 0	Y: 0	SP: fd
f516	1d	ROR	A: 0	X: 0	Y: 0	SP: fd
f518	1e	ROR	A: 0	X: 0	Y: 0	SP: fd
f51a	1f	ROR	A: 0	X: 0	Y: 0	SP: fd
f51c	0	RTS	A: 0	X: 0	Y: 0	SP: fd
c7e4	c7e1	JMP	A: 0	X: 0	Y: 0	SP: ff
c7e1	f4fc	JSR	A: 0	X: 0	Y: 0	SP: ff
f4fc	18	LDA	A: 0	X: 0	Y: 0	SP: fd
f4fe	f4ff	AND	A: 0	X: 0	Y: 0	SP: fd
f500	0	STA	A: 0	X: 0	Y: 0	SP: fd
f502	19	LDA	A: 0	X: 0	Y: 0	SP: fd
f504	f505	AND	A: 0	X: 0	Y: 0	SP: fd
f506	0	EOR	A: 0	X: 0	Y: 0	SP: fd
f508	0	CLC	A: 0	X: 0	Y: 0	SP: fd
f509	f50c	BEQ	A: 0	X: 0	Y: 0	SP: fd
f50c	18	ROR	A: 0	X: 0	Y: 0	SP: fd
f50e	19	ROR	A: 0	X: 0	Y: 0	SP: fd
f510	1a	ROR	A: 0	X: 0	Y: 0	SP: fd
f512	1b	ROR	A: 0	X: 0	Y: 0	SP: fd
f514	1c	ROR	A: 0	X: 0	Y: 0	SP: fd
f516	1d	ROR	A: 0	X: 0	Y: 0	SP: fd
f518	1e	ROR	A: 0	X: 0	Y: 0	SP: fd
f51a	1f	ROR	A: 0	X: 0	Y: 0	SP: fd
f51c	0	RTS	A: 0	X: 0	Y: 0	SP: fd
c7e4	c7e1	JMP	A: 0	X: 0	Y: 0	SP: ff
c7e1	f4fc	JSR	A: 0	X: 0	Y: 0	SP: ff
f4fc	18	LDA	A: 0	X: 0	Y: 0	SP: fd
f4fe	f4ff	AND	A: 0	X: 0	Y: 0	SP: fd
f500	0	STA	A: 0	X: 0	Y: 0	SP: fd
f502	19	LDA	A: 0	X: 0	Y: 0	SP: fd
f504	f505	AND	A: 0	X: 0	Y: 0	SP: fd
f506	0	EOR	A: 0	X: 0	Y: 0	SP: fd
f508	0	CLC	A: 0	X: 0	Y: 0	SP: fd
f509	f50c	BEQ	A: 0	X: 0	Y: 0	SP: fd
f50c	18	ROR	A: 0	X: 0	Y: 0	SP: fd
f50e	19	ROR	A: 0	X: 0	Y: 0	SP: fd
f510	1a	ROR	A: 0	X: 0	Y: 0	SP: fd
f512	1b	ROR	A: 0	X: 0	Y: 0	SP: fd
f514	1c	ROR	A: 0	X: 0	Y: 0	SP: fd
f516	1d	ROR	A: 0	X: 0	Y: 0	SP: fd
f518	1e	ROR	A: 0	X: 0	Y: 0	SP: fd
f51a	1f	ROR	A: 0	X: 0	Y: 0	SP: fd
f51c	0	RTS	A: 0	X: 0	Y: 0	SP: fd
c7e4	c7e1	JMP	A: 0	X: 0	Y: 0	SP: ff
c7e1	f4fc	JSR	A: 0	X: 0	Y: 0	SP: ff
f4fc	18	LDA	A: 0	X: 0	Y: 0	SP: fd
f4fe	f4ff	AND	A: 0	X: 0	Y: 0	SP: fd
f500	0	STA	A: 0	X: 0	Y: 0	SP: fd
f502	19	LDA	A: 0	X: 0	Y: 0	SP: fd
f504	f505	AND	A: 0	X: 0	Y: 0	SP: fd
f506	0	EOR	A: 0	X: 0	Y: 0	SP: fd
f508	0	CLC	A: 0	X: 0	Y: 0	SP: fd
f509	f50c	BEQ	A: 0	X: 0	Y: 0	SP: fd
f50c	18	ROR	A: 0	X: 0	Y: 0	SP: fd
f50e	19	ROR	A: 0	X: 0	Y: 0	SP: fd
f510	1a	ROR	A: 0	X: 0	Y: 0	SP: fd
f512	1b	ROR	A: 0	X: 0	Y: 0	SP: fd
f514	1c	ROR	A: 0	X: 0	Y: 0	SP: fd
f516	1d	ROR	A: 0	X: 0	Y: 0	SP: fd
f518	1e	ROR	A: 0	X: 0	Y: 0	SP: fd
f51a	1f	ROR	A: 0	X: 0	Y: 0	SP: fd
f51c	0	RTS	A: 0	X: 0	Y: 0	SP: fd
c7e4	c7e1	JMP	A: 0	X: 0	Y: 0	SP: ff
c7e1	f4fc	JSR	A: 0	X: 0	Y: 0	SP: ff
f4fc	18	LDA	A: 0	X: 0	Y: 0	SP: fd
f4fe	f4ff	AND	A: 0	X: 0	Y: 0	SP: fd
f500	0	STA	A: 0	X: 0	Y: 0	SP: fd
f502	19	LDA	A: 0	X: 0	Y: 0	SP: fd
f504	f505	AND	A: 0	X: 0	Y: 0	SP: fd
f506	0	EOR	A: 0	X: 0	Y: 0	SP: fd
f508	0	CLC	A: 0	X: 0	Y: 0	SP: fd
f509	f50c	BEQ	A: 0	X: 0	Y: 0	SP: fd
f50c	18	ROR	A: 0	X: 0	Y: 0	SP: fd
f50e	19	ROR	A: 0	X: 0	Y: 0	SP: fd
f510	1a	ROR	A: 0	X: 0	Y: 0	SP: fd
f512	1b	ROR	A: 0	X: 0	Y: 0	SP: fd
f514	1c	ROR	A: 0	X: 0	Y: 0	SP: fd
f516	1d	ROR	A: 0	X: 0	Y: 0	SP: fd
f518	1e	ROR	A: 0	X: 0	Y: 0	SP: fd
f51a	1f	ROR	A: 0	X: 0	Y: 0	SP: fd
f51c	0	RTS	A: 0	X: 0	Y: 0	SP: fd
c7e4	c7e1	JMP	A: 0	X: 0	Y: 0	SP: ff
c7e1	f4fc	JSR	A: 0	X: 0	Y: 0	SP: ff
f4fc	18	LDA	A: 0	X: 0	Y: 0	SP: fd
f4fe	f4ff	AND	A: 0	X: 0	Y: 0	SP: fd
f500	0	STA	A: 0	X: 0	Y: 0	SP: fd
f502	19	LDA	A: 0	X: 0	Y: 0	SP: fd
f504	f505	AND	A: 0	X: 0	Y: 0	SP: fd
f506	0	EOR	A: 0	X: 0	Y: 0	SP: fd
f508	0	CLC	A: 0	X: 0	Y: 0	SP: fd
f509	f50c	BEQ	A: 0	X: 0	Y: 0	SP: fd
f50c	18	ROR	A: 0	X: 0	Y: 0	SP: fd
f50e	19	ROR	A: 0	X: 0	Y: 0	SP: fd
f510	1a	ROR	A: 0	X: 0	Y: 0	SP: fd
f512	1b	ROR	A: 0	X: 0	Y: 0	SP: fd
f514	1c	ROR	A: 0	X: 0	Y: 0	SP: fd
f516	1d	ROR	A: 0	X: 0	Y: 0	SP: fd
f518	1e	ROR	A: 0	X: 0	Y: 0	SP: fd
f51a	1f	ROR	A: 0	X: 0	Y: 0	SP: fd
f51c	0	RTS	A: 0	X: 0	Y: 0	SP: fd
c7e4	c7e1	JMP	A: 0	X: 0	Y: 0	SP: ff
c7e1	f4fc	JSR	A: 0	X: 0	Y: 0	SP: ff
f4fc	18	LDA	A: 0	X: 0	Y: 0	SP: fd
f4fe	f4ff	AND	A: 0	X: 0	Y: 0	SP: fd
f500	0	STA	A: 0	X: 0	Y: 0	SP: fd
f502	19	LDA	A: 0	X: 0	Y: 0	SP: fd
f504	f505	AND	A: 0	X: 0	Y: 0	SP: fd
f506	0	EOR	A: 0	X: 0	Y: 0	SP: fd
f508	0	CLC	A: 0	X: 0	Y: 0	SP: fd
f509	f50c	BEQ	A: 0	X: 0	Y: 0	SP: fd
f50c	18	ROR	A: 0	X: 0	Y: 0	SP: fd
f50e	19	ROR	A: 0	X: 0	Y: 0	SP: fd
f510	1a	ROR	A: 0	X: 0	Y: 0	SP: fd
f512	1b	ROR	A: 0	X: 0	Y: 0	SP: fd
f514	1c	ROR	A: 0	X: 0	Y: 0	SP: fd
f516	1d	ROR	A: 0	X: 0	Y: 0	SP: fd
f518	1e	ROR	A: 0	X: 0	Y: 0	SP: fd
f51a	1f	ROR	A: 0	X: 0	Y: 0	SP: fd
f51c	0	RTS	A: 0	X: 0	Y: 0	SP: fd
c7e4	c7e1	JMP	A: 0	X: 0	Y: 0	SP: ff
c7e1	f4fc	JSR	A: 0	X: 0	Y: 0	SP: ff
f4fc	18	LDA	A: 0	X: 0	Y: 0	SP: fd
f4fe	f4ff	AND	A: 0	X: 0	Y: 0	SP: fd
f500	0	STA	A: 0	X: 0	Y: 0	SP: fd
f502	19	LDA	A: 0	X: 0	Y: 0	SP: fd
f504	f505	AND	A: 0	X: 0	Y: 0	SP: fd
f506	0	EOR	A: 0	X: 0	Y: 0	SP: fd
f508	0	CLC	A: 0	X: 0	Y: 0	SP: fd
f509	f50c	BEQ	A: 0	X: 0	Y: 0	SP: fd
f50c	18	ROR	A: 0	X: 0	Y: 0	SP: fd
f50e	19	ROR	A: 0	X: 0	Y: 0	SP: fd
f510	1a	ROR	A: 0	X: 0	Y: 0	SP: fd
f512	1b	ROR	A: 0	X: 0	Y: 0	SP: fd
f514	1c	ROR	A: 0	X: 0	Y: 0	SP: fd
f516	1d	ROR	A: 0	X: 0	Y: 0	SP: fd
f518	1e	ROR	A: 0	X: 0	Y: 0	SP: fd
f51a	1f	ROR	A: 0	X: 0	Y: 0	SP: fd
f51c	0	RTS	A: 0	X: 0	Y: 0	SP: fd
c7e4	c7e1	JMP	A: 0	X: 0	Y: 0	SP: ff
c7e1	f4fc	JSR	A: 0	X: 0	Y: 0	SP: ff
f4fc	18	LDA	A: 0	X: 0	Y: 0	SP: fd
f4fe	f4ff	AND	A: 0	X: 0	Y: 0	SP: fd
f500	0	STA	A: 0	X: 0	Y: 0	SP: fd
f502	19	LDA	A: 0	X: 0	Y: 0	SP: fd
f504	f505	AND	A: 0	X: 0	Y: 0	SP: fd
f506	0	EOR	A: 0	X: 0	Y: 0	SP: fd
f508	0	CLC	A: 0	X: 0	Y: 0	SP: fd
f509	f50c	BEQ	A: 0	X: 0	Y: 0	SP: fd
f50c	18	ROR	A: 0	X: 0	Y: 0	SP: fd
f50e	19	ROR	A: 0	X: 0	Y: 0	SP: fd
f510	1a	ROR	A: 0	X: 0	Y: 0	SP: fd
f512	1b	ROR	A: 0	X: 0	Y: 0	SP: fd
f514	1c	ROR	A: 0	X: 0	Y: 0	SP: fd
f516	1d	ROR	A: 0	X: 0	Y: 0	SP: fd
f518	1e	ROR	A: 0	X: 0	Y: 0	SP: fd
f51a	1f	ROR	A: 0	X: 0	Y: 0	SP: fd
f51c	0	RTS	A: 0	X: 0	Y: 0	SP: fd
c7e4	c7e1	JMP	A: 0	X: 0	Y: 0	SP: ff
c7e1	f4fc	JSR	A: 0	X: 0	Y: 0	SP: ff
f4fc	18	LDA	A: 0	X: 0	Y: 0	SP: fd
f4fe	f4ff	AND	A: 0	X: 0	Y: 0	SP: fd
f500	0	STA	A: 0	X: 0	Y: 0	SP: fd
f502	19	LDA	A: 0	X: 0	Y: 0	SP: fd
f504	f505	AND	A: 0	X: 0	Y: 0	SP: fd
f506	0	EOR	A: 0	X: 0	Y: 0	SP: fd
f508	0	CLC	A: 0	X: 0	Y: 0	SP: fd
f509	f50c	BEQ	A: 0	X: 0	Y: 0	SP: fd
f50c	18	ROR	A: 0	X: 0	Y: 0	SP: fd
f50e	19	ROR	A: 0	X: 0	Y: 0	SP: fd
f510	1a	ROR	A: 0	X: 0	Y: 0	SP: fd
f512	1b	ROR	A: 0	X: 0	Y: 0	SP: fd
f514	1c	ROR	A: 0	X: 0	Y: 0	SP: fd
f516	1d	ROR	A: 0	X: 0	Y: 0	SP: fd
f518	1e	ROR	A: 0	X: 0	Y: 0	SP: fd
f51a	1f	ROR	A: 0	X: 0	Y: 0	SP: fd
f51c	0	RTS	A: 0	X: 0	Y: 0	SP: fd
c7e4	c7e1	JMP	A: 0	X: 0	Y: 0	SP: ff
c7e1	f4fc	JSR	A: 0	X: 0	Y: 0	SP: ff
f4fc	18	LDA	A: 0	X: 0	Y: 0	SP: fd
f4fe	f4ff	AND	A: 0	X: 0	Y: 0	SP: fd
f500	0	STA	A: 0	X: 0	Y: 0	SP: fd
f502	19	LDA	A: 0	X: 0	Y: 0	SP: fd
f504	f505	AND	A: 0	X: 0	Y: 0	SP: fd
f506	0	EOR	A: 0	X: 0	Y: 0	SP: fd
f508	0	CLC	A: 0	X: 0	Y: 0	SP: fd
f509	f50c	BEQ	A: 0	X: 0	Y: 0	SP: fd
f50c	18	ROR	A: 0	X: 0	Y: 0	SP: fd
f50e	19	ROR	A: 0	X: 0	Y: 0	SP: fd
f510	1a	ROR	A: 0	X: 0	Y: 0	SP: fd
f512	1b	ROR	A: 0	X: 0	Y: 0	SP: fd
f514	1c	ROR	A: 0	X: 0	Y: 0	SP: fd
f516	1d	ROR	A: 0	X: 0	Y: 0	SP: fd
f518	1e	ROR	A: 0	X: 0	Y: 0	SP: fd
f51a	1f	ROR	A: 0	X: 0	Y: 0	SP: fd
f51c	0	RTS	A: 0	X: 0	Y: 0	SP: fd
c7e4	c7e1	JMP	A: 0	X: 0	Y: 0	SP: ff
c7e1	f4fc	JSR	A: 0	X: 0	Y: 0	SP: ff
f4fc	18	LDA	A: 0	X: 0	Y: 0	SP: fd
f4fe	f4ff	AND	A: 0	X: 0	Y: 0	SP: fd
f500	0	STA	A: 0	X: 0	Y: 0	SP: fd
f502	19	LDA	A: 0	X: 0	Y: 0	SP: fd
f504	f505	AND	A: 0	X: 0	Y: 0	SP: fd
f506	0	EOR	A: 0	X: 0	Y: 0	SP: fd
f508	0	CLC	A: 0	X: 0	Y: 0	SP: fd
f509	f50c	BEQ	A: 0	X: 0	Y: 0	SP: fd
f50c	18	ROR	A: 0	X: 0	Y: 0	SP: fd
f50e	19	ROR	A: 0	X: 0	Y: 0	SP: fd
f510	1a	ROR	A: 0	X: 0	Y: 0	SP: fd
f512	1b	ROR	A: 0	X: 0	Y: 0	SP: fd
f514	1c	ROR	A: 0	X: 0	Y: 0	SP: fd
f516	1d	ROR	A: 0	X: 0	Y: 0	SP: fd
f518	1e	ROR	A: 0	X: 0	Y: 0	SP: fd
f51a	1f	ROR	A: 0	X: 0	Y: 0	SP: fd
f51c	0	RTS	A: 0	X: 0	Y: 0	SP: fd
c7e4	c7e1	JMP	A: 0	X: 0	Y: 0	SP: ff
c7e1	f4fc	JSR	A: 0	X: 0	Y: 0	SP: ff
f4fc	18	LDA	A: 0	X: 0	Y: 0	SP: fd
f4fe	f4ff	AND	A: 0	X: 0	Y: 0	SP: fd
f500	0	STA	A: 0	X: 0	Y: 0	SP: fd
f502	19	LDA	A: 0	X: 0	Y: 0	SP: fd
f504	f505	AND	A: 0	X: 0	Y: 0	SP: fd
f506	0	EOR	A: 0	X: 0	Y: 0	SP: fd
f508	0	CLC	A: 0	X: 0	Y: 0	SP: fd
f509	f50c	BEQ	A: 0	X: 0	Y: 0	SP: fd
f50c	18	ROR	A: 0	X: 0	Y: 0	SP: fd
f50e	19	ROR	A: 0	X: 0	Y: 0	SP: fd
f510	1a	ROR	A: 0	X: 0	Y: 0	SP: fd
f512	1b	ROR	A: 0	X: 0	Y: 0	SP: fd
f514	1c	ROR	A: 0	X: 0	Y: 0	SP: fd
f516	1d	ROR	A: 0	X: 0	Y: 0	SP: fd
f518	1e	ROR	A: 0	X: 0	Y: 0	SP: fd
f51a	1f	ROR	A: 0	X: 0	Y: 0	SP: fd
f51c	0	RTS	A: 0	X: 0	Y: 0	SP: fd
c7e4	c7e1	JMP	A: 0	X: 0	Y: 0	SP: ff
c7e1	f4fc	JSR	A: 0	X: 0	Y: 0	SP: ff
f4fc	18	LDA	A: 0	X: 0	Y: 0	SP: fd
f4fe	f4ff	AND	A: 0	X: 0	Y: 0	SP: fd
f500	0	STA	A: 0	X: 0	Y: 0	SP: fd
f502	19	LDA	A: 0	X: 0	Y: 0	SP: fd
f504	f505	AND	A: 0	X: 0	Y: 0	SP: fd
f506	0	EOR	A: 0	X: 0	Y: 0	SP: fd
f508	0	CLC	A: 0	X: 0	Y: 0	SP: fd
f509	f50c	BEQ	A: 0	X: 0	Y: 0	SP: fd
f50c	18	ROR	A: 0	X: 0	Y: 0	SP: fd
f50e	19	ROR	A: 0	X: 0	Y: 0	SP: fd
f510	1a	ROR	A: 0	X: 0	Y: 0	SP: fd
f512	1b	ROR	A: 0	X: 0	Y: 0	SP: fd
f514	1c	ROR	A: 0	X: 0	Y: 0	SP: fd
f516	1d	ROR	A: 0	X: 0	Y: 0	SP: fd
f518	1e	ROR	A: 0	X: 0	Y: 0	SP: fd
f51a	1f	ROR	A: 0	X: 0	Y: 0	SP: fd
f51c	0	RTS	A: 0	X: 0	Y: 0	SP: fd
c7e4	c7e1	JMP	A: 0	X: 0	Y: 0	SP: ff
c7e1	f4fc	JSR	A: 0	X: 0	Y: 0	SP: ff
f4fc	18	LDA	A: 0	X: 0	Y: 0	SP: fd
f4fe	f4ff	AND	A: 0	X: 0	Y: 0	SP: fd
f500	0	STA	A: 0	X: 0	Y: 0	SP: fd
f502	19	LDA	A: 0	X: 0	Y: 0	SP: fd
f504	f505	AND	A: 0	X: 0	Y: 0	SP: fd
f506	0	EOR	A: 0	X: 0	Y: 0	SP: fd
f508	0	CLC	A: 0	X: 0	Y: 0	SP: fd
f509	f50c	BEQ	A: 0	X: 0	Y: 0	SP: fd
f50c	18	ROR	A: 0	X: 0	Y: 0	SP: fd
f50e	19	ROR	A: 0	X: 0	Y: 0	SP: fd
f510	1a	ROR	A: 0	X: 0	Y: 0	SP: fd
f512	1b	ROR	A: 0	X: 0	Y: 0	SP: fd
f514	1c	ROR	A: 0	X: 0	Y: 0	SP: fd
f516	1d	ROR	A: 0	X: 0	Y: 0	SP: fd
f518	1e	ROR	A: 0	X: 0	Y: 0	SP: fd
f51a	1f	ROR	A: 0	X: 0	Y: 0	SP: fd
f51c	0	RTS	A: 0	X: 0	Y: 0	SP: fd
c7e4	c7e1	JMP	A: 0	X: 0	Y: 0	SP: ff
c7e1	f4fc	JSR	A: 0	X: 0	Y: 0	SP: ff
f4fc	18	LDA	A: 0	X: 0	Y: 0	SP: fd
f4fe	f4ff	AND	A: 0	X: 0	Y: 0	SP: fd
f500	0	STA	A: 0	X: 0	Y: 0	SP: fd
f502	19	LDA	A: 0	X: 0	Y: 0	SP: fd
f504	f505	AND	A: 0	X: 0	Y: 0	SP: fd
f506	0	EOR	A: 0	X: 0	Y: 0	SP: fd
f508	0	CLC	A: 0	X: 0	Y: 0	SP: fd
f509	f50c	BEQ	A: 0	X: 0	Y: 0	SP: fd
f50c	18	ROR	A: 0	X: 0	Y: 0	SP: fd
f50e	19	ROR	A: 0	X: 0	Y: 0	SP: fd
f510	1a	ROR	A: 0	X: 0	Y: 0	SP: fd
f512	1b	ROR	A: 0	X: 0	Y: 0	SP: fd
f514	1c	ROR	A: 0	X: 0	Y: 0	SP: fd
f516	1d	ROR	A: 0	X: 0	Y: 0	SP: fd
f518	1e	ROR	A: 0	X: 0	Y: 0	SP: fd
f51a	1f	ROR	A: 0	X: 0	Y: 0	SP: fd
f51c	0	RTS	A: 0	X: 0	Y: 0	SP: fd
c7e4	c7e1	JMP	A: 0	X: 0	Y: 0	SP: ff
c7e1	f4fc	JSR	A: 0	X: 0	Y: 0	SP: ff
f4fc	18	LDA	A: 0	X: 0	Y: 0	SP: fd
f4fe	f4ff	AND	A: 0	X: 0	Y: 0	SP: fd
f500	0	STA	A: 0	X: 0	Y: 0	SP: fd
f502	19	LDA	A: 0	X: 0	Y: 0	SP: fd
f504	f505	AND	A: 0	X: 0	Y: 0	SP: fd
f506	0	EOR	A: 0	X: 0	Y: 0	SP: fd
f508	0	CLC	A: 0	X: 0	Y: 0	SP: fd
f509	f50c	BEQ	A: 0	X: 0	Y: 0	SP: fd
f50c	18	ROR	A: 0	X: 0	Y: 0	SP: fd
f50e	19	ROR	A: 0	X: 0	Y: 0	SP: fd
f510	1a	ROR	A: 0	X: 0	Y: 0	SP: fd
f512	1b	ROR	A: 0	X: 0	Y: 0	SP: fd
f514	1c	ROR	A: 0	X: 0	Y: 0	SP: fd
f516	1d	ROR	A: 0	X: 0	Y: 0	SP: fd
f518	1e	ROR	A: 0	X: 0	Y: 0	SP: fd
f51a	1f	ROR	A: 0	X: 0	Y: 0	SP: fd
f51c	0	RTS	A: 0	X: 0	Y: 0	SP: fd
c7e4	c7e1	JMP	A: 0	X: 0	Y: 0	SP: ff
c7e1	f4fc	JSR	A: 0	X: 0	Y: 0	SP: ff
f4fc	18	LDA	A: 0	X: 0	Y: 0	SP: fd
f4fe	f4ff	AND	A: 0	X: 0	Y: 0	SP: fd
f500	0	STA	A: 0	X: 0	Y: 0	SP: fd
f502	19	LDA	A: 0	X: 0	Y: 0	SP: fd
f504	f505	AND	A: 0	X: 0	Y: 0	SP: fd
f506	0	EOR	A: 0	X: 0	Y: 0	SP: fd
f508	0	CLC	A: 0	X: 0	Y: 0	SP: fd
f509	f50c	BEQ	A: 0	X: 0	Y: 0	SP: fd
f50c	18	ROR	A: 0	X: 0	Y: 0	SP: fd
f50e	19	ROR	A: 0	X: 0	Y: 0	SP: fd
f510	1a	ROR	A: 0	X: 0	Y: 0	SP: fd
f512	1b	ROR	A: 0	X: 0	Y: 0	SP: fd
f514	1c	ROR	A: 0	X: 0	Y: 0	SP: fd
f516	1d	ROR	A: 0	X: 0	Y: 0	SP: fd
f518	1e	ROR	A: 0	X: 0	Y: 0	SP: fd
f51a	1f	ROR	A: 0	X: 0	Y: 0	SP: fd
f51c	0	RTS	A: 0	X: 0	Y: 0	SP: fd
c7e4	c7e1	JMP	A: 0	X: 0	Y: 0	SP: ff
c7e1	f4fc	JSR	A: 0	X: 0	Y: 0	SP: ff
f4fc	18	LDA	A: 0	X: 0	Y: 0	SP: fd
f4fe	f4ff	AND	A: 0	X: 0	Y: 0	SP: fd
f500	0	STA	A: 0	X: 0	Y: 0	SP: fd
f502	19	LDA	A: 0	X: 0	Y: 0	SP: fd
f504	f505	AND	A: 0	X: 0	Y: 0	SP: fd
f506	0	EOR	A: 0	X: 0	Y: 0	SP: fd
f508	0	CLC	A: 0	X: 0	Y: 0	SP: fd
f509	f50c	BEQ	A: 0	X: 0	Y: 0	SP: fd
f50c	18	ROR	A: 0	X: 0	Y: 0	SP: fd
f50e	19	ROR	A: 0	X: 0	Y: 0	SP: fd
f510	1a	ROR	A: 0	X: 0	Y: 0	SP: fd
f512	1b	ROR	A: 0	X: 0	Y: 0	SP: fd
f514	1c	ROR	A: 0	X: 0	Y: 0	SP: fd
f516	1d	ROR	A: 0	X: 0	Y: 0	SP: fd
f518	1e	ROR	A: 0	X: 0	Y: 0	SP: fd
f51a	1f	ROR	A: 0	X: 0	Y: 0	SP: fd
f51c	0	RTS	A: 0	X: 0	Y: 0	SP: fd
c7e4	c7e1	JMP	A: 0	X: 0	Y: 0	SP: ff
c7e1	f4fc	JSR	A: 0	X: 0	Y: 0	SP: ff
f4fc	18	LDA	A: 0	X: 0	Y: 0	SP: fd
f4fe	f4ff	AND	A: 0	X: 0	Y: 0	SP: fd
f500	0	STA	A: 0	X: 0	Y: 0	SP: fd
f502	19	LDA	A: 0	X: 0	Y: 0	SP: fd
f504	f505	AND	A: 0	X: 0	Y: 0	SP: fd
f506	0	EOR	A: 0	X: 0	Y: 0	SP: fd
f508	0	CLC	A: 0	X: 0	Y: 0	SP: fd
f509	f50c	BEQ	A: 0	X: 0	Y: 0	SP: fd
f50c	18	ROR	A: 0	X: 0	Y: 0	SP: fd
f50e	19	ROR	A: 0	X: 0	Y: 0	SP: fd
f510	1a	ROR	A: 0	X: 0	Y: 0	SP: fd
f512	1b	ROR	A: 0	X: 0	Y: 0	SP: fd
f514	1c	ROR	A: 0	X: 0	Y: 0	SP: fd
f516	1d	ROR	A: 0	X: 0	Y: 0	SP: fd
f518	1e	ROR	A: 0	X: 0	Y: 0	SP: fd
f51a	1f	ROR	A: 0	X: 0	Y: 0	SP: fd
f51c	0	RTS	A: 0	X: 0	Y: 0	SP: fd
c7e4	c7e1	JMP	A: 0	X: 0	Y: 0	SP: ff
c7e1	f4fc	JSR	A: 0	X: 0	Y: 0	SP: ff
f4fc	18	LDA	A: 0	X: 0	Y: 0	SP: fd
f4fe	f4ff	AND	A: 0	X: 0	Y: 0	SP: fd
f500	0	STA	A: 0	X: 0	Y: 0	SP: fd
f502	19	LDA	A: 0	X: 0	Y: 0	SP: fd
f504	f505	AND	A: 0	X: 0	Y: 0	SP: fd
f506	0	EOR	A: 0	X: 0	Y: 0	SP: fd
f508	0	CLC	A: 0	X: 0	Y: 0	SP: fd
f509	f50c	BEQ	A: 0	X: 0	Y: 0	SP: fd
f50c	18	ROR	A: 0	X: 0	Y: 0	SP: fd
f50e	19	ROR	A: 0	X: 0	Y: 0	SP: fd
f510	1a	ROR	A: 0	X: 0	Y: 0	SP: fd
f512	1b	ROR	A: 0	X: 0	Y: 0	SP: fd
f514	1c	ROR	A: 0	X: 0	Y: 0	SP: fd
f516	1d	ROR	A: 0	X: 0	Y: 0	SP: fd
f518	1e	ROR	A: 0	X: 0	Y: 0	SP: fd
f51a	1f	ROR	A: 0	X: 0	Y: 0	SP: fd
f51c	0	RTS	A: 0	X: 0	Y: 0	SP: fd
c7e4	c7e1	JMP	A: 0	X: 0	Y: 0	SP: ff
c7e1	f4fc	JSR	A: 0	X: 0	Y: 0	SP: ff
f4fc	18	LDA	A: 0	X: 0	Y: 0	SP: fd
f4fe	f4ff	AND	A: 0	X: 0	Y: 0	SP: fd
f500	0	STA	A: 0	X: 0	Y: 0	SP: fd
f502	19	LDA	A: 0	X: 0	Y: 0	SP: fd
f504	f505	AND	A: 0	X: 0	Y: 0	SP: fd
f506	0	EOR	A: 0	X: 0	Y: 0	SP: fd
f508	0	CLC	A: 0	X: 0	Y: 0	SP: fd
f509	f50c	BEQ	A: 0	X: 0	Y: 0	SP: fd
f50c	18	ROR	A: 0	X: 0	Y: 0	SP: fd
f50e	19	ROR	A: 0	X: 0	Y: 0	SP: fd
f510	1a	ROR	A: 0	X: 0	Y: 0	SP: fd
f512	1b	ROR	A: 0	X: 0	Y: 0	SP: fd
f514	1c	ROR	A: 0	X: 0	Y: 0	SP: fd
f516	1d	ROR	A: 0	X: 0	Y: 0	SP: fd
f518	1e	ROR	A: 0	X: 0	Y: 0	SP: fd
f51a	1f	ROR	A: 0	X: 0	Y: 0	SP: fd
f51c	0	RTS	A: 0	X: 0	Y: 0	SP: fd
c7e4	c7e1	JMP	A: 0	X: 0	Y: 0	SP: ff
c7e1	f4fc	JSR	A: 0	X: 0	Y: 0	SP: ff
f4fc	18	LDA	A: 0	X: 0	Y: 0	SP: fd
f4fe	f4ff	AND	A: 0	X: 0	Y: 0	SP: fd
f500	0	STA	A: 0	X: 0	Y: 0	SP: fd
f502	19	LDA	A: 0	X: 0	Y: 0	SP: fd
f504	f505	AND	A: 0	X: 0	Y: 0	SP: fd
f506	0	EOR	A: 0	X: 0	Y: 0	SP: fd
f508	0	CLC	A: 0	X: 0	Y: 0	SP: fd
f509	f50c	BEQ	A: 0	X: 0	Y: 0	SP: fd
f50c	18	ROR	A: 0	X: 0	Y: 0	SP: fd
f50e	19	ROR	A: 0	X: 0	Y: 0	SP: fd
f510	1a	ROR	A: 0	X: 0	Y: 0	SP: fd
f512	1b	ROR	A: 0	X: 0	Y: 0	SP: fd
f514	1c	ROR	A: 0	X: 0	Y: 0	SP: fd
f516	1d	ROR	A: 0	X: 0	Y: 0	SP: fd
f518	1e	ROR	A: 0	X: 0	Y: 0	SP: fd
f51a	1f	ROR	A: 0	X: 0	Y: 0	SP: fd
f51c	0	RTS	A: 0	X: 0	Y: 0	SP: fd
c7e4	c7e1	JMP	A: 0	X: 0	Y: 0	SP: ff
c7e1	f4fc	JSR	A: 0	X: 0	Y: 0	SP: ff
f4fc	18	LDA	A: 0	X: 0	Y: 0	SP: fd
f4fe	f4ff	AND	A: 0	X: 0	Y: 0	SP: fd
f500	0	STA	A: 0	X: 0	Y: 0	SP: fd
f502	19	LDA	A: 0	X: 0	Y: 0	SP: fd
f504	f505	AND	A: 0	X: 0	Y: 0	SP: fd
f506	0	EOR	A: 0	X: 0	Y: 0	SP: fd
f508	0	CLC	A: 0	X: 0	Y: 0	SP: fd
f509	f50c	BEQ	A: 0	X: 0	Y: 0	SP: fd
f50c	18	ROR	A: 0	X: 0	Y: 0	SP: fd
f50e	19	ROR	A: 0	X: 0	Y: 0	SP: fd
f510	1a	ROR	A: 0	X: 0	Y: 0	SP: fd
f512	1b	ROR	A: 0	X: 0	Y: 0	SP: fd
f514	1c	ROR	A: 0	X: 0	Y: 0	SP: fd
f516	1d	ROR	A: 0	X: 0	Y: 0	SP: fd
f518	1e	ROR	A: 0	X: 0	Y: 0	SP: fd
f51a	1f	ROR	A: 0	X: 0	Y: 0	SP: fd
f51c	0	RTS	A: 0	X: 0	Y: 0	SP: fd
c7e4	c7e1	JMP	A: 0	X: 0	Y: 0	SP: ff
c7e1	f4fc	JSR	A: 0	X: 0	Y: 0	SP: ff
f4fc	18	LDA	A: 0	X: 0	Y: 0	SP: fd
f4fe	f4ff	AND	A: 0	X: 0	Y: 0	SP: fd
f500	0	STA	A: 0	X: 0	Y: 0	SP: fd
f502	19	LDA	A: 0	X: 0	Y: 0	SP: fd
f504	f505	AND	A: 0	X: 0	Y: 0	SP: fd
f506	0	EOR	A: 0	X: 0	Y: 0	SP: fd
f508	0	CLC	A: 0	X: 0	Y: 0	SP: fd
f509	f50c	BEQ	A: 0	X: 0	Y: 0	SP: fd
f50c	18	ROR	A: 0	X: 0	Y: 0	SP: fd
f50e	19	ROR	A: 0	X: 0	Y: 0	SP: fd
f510	1a	ROR	A: 0	X: 0	Y: 0	SP: fd
f512	1b	ROR	A: 0	X: 0	Y: 0	SP: fd
f514	1c	ROR	A: 0	X: 0	Y: 0	SP: fd
f516	1d	ROR	A: 0	X: 0	Y: 0	SP: fd
f518	1e	ROR	A: 0	X: 0	Y: 0	SP: fd
f51a	1f	ROR	A: 0	X: 0	Y: 0	SP: fd
f51c	0	RTS	A: 0	X: 0	Y: 0	SP: fd
c7e4	c7e1	JMP	A: 0	X: 0	Y: 0	SP: ff
c7e1	f4fc	JSR	A: 0	X: 0	Y: 0	SP: ff
f4fc	18	LDA	A: 0	X: 0	Y: 0	SP: fd
f4fe	f4ff	AND	A: 0	X: 0	Y: 0	SP: fd
f500	0	STA	A: 0	X: 0	Y: 0	SP: fd
f502	19	LDA	A: 0	X: 0	Y: 0	SP: fd
f504	f505	AND	A: 0	X: 0	Y: 0	SP: fd
f506	0	EOR	A: 0	X: 0	Y: 0	SP: fd
f508	0	CLC	A: 0	X: 0	Y: 0	SP: fd
f509	f50c	BEQ	A: 0	X: 0	Y: 0	SP: fd
f50c	18	ROR	A: 0	X: 0	Y: 0	SP: fd
f50e	19	ROR	A: 0	X: 0	Y: 0	SP: fd
f510	1a	ROR	A: 0	X: 0	Y: 0	SP: fd
f512	1b	ROR	A: 0	X: 0	Y: 0	SP: fd
f514	1c	ROR	A: 0	X: 0	Y: 0	SP: fd
f516	1d	ROR	A: 0	X: 0	Y: 0	SP: fd
f518	1e	ROR	A: 0	X: 0	Y: 0	SP: fd
f51a	1f	ROR	A: 0	X: 0	Y: 0	SP: fd
f51c	0	RTS	A: 0	X: 0	Y: 0	SP: fd
c7e4	c7e1	JMP	A: 0	X: 0	Y: 0	SP: ff
c7e1	f4fc	JSR	A: 0	X: 0	Y: 0	SP: ff
f4fc	18	LDA	A: 0	X: 0	Y: 0	SP: fd
f4fe	f4ff	AND	A: 0	X: 0	Y: 0	SP: fd
f500	0	STA	A: 0	X: 0	Y: 0	SP: fd
f502	19	LDA	A: 0	X: 0	Y: 0	SP: fd
f504	f505	AND	A: 0	X: 0	Y: 0	SP: fd
f506	0	EOR	A: 0	X: 0	Y: 0	SP: fd
f508	0	CLC	A: 0	X: 0	Y: 0	SP: fd
f509	f50c	BEQ	A: 0	X: 0	Y: 0	SP: fd
f50c	18	ROR	A: 0	X: 0	Y: 0	SP: fd
f50e	19	ROR	A: 0	X: 0	Y: 0	SP: fd
f510	1a	ROR	A: 0	X: 0	Y: 0	SP: fd
f512	1b	ROR	A: 0	X: 0	Y: 0	SP: fd
f514	1c	ROR	A: 0	X: 0	Y: 0	SP: fd
f516	1d	ROR	A: 0	X: 0	Y: 0	SP: fd
f518	1e	ROR	A: 0	X: 0	Y: 0	SP: fd
f51a	1f	ROR	A: 0	X: 0	Y: 0	SP: fd
f51c	0	RTS	A: 0	X: 0	Y: 0	SP: fd
c7e4	c7e1	JMP	A: 0	X: 0	Y: 0	SP: ff
c7e1	f4fc	JSR	A: 0	X: 0	Y: 0	SP: ff
f4fc	18	LDA	A: 0	X: 0	Y: 0	SP: fd
f4fe	f4ff	AND	A: 0	X: 0	Y: 0	SP: fd
f500	0	STA	A: 0	X: 0	Y: 0	SP: fd
f502	19	LDA	A: 0	X: 0	Y: 0	SP: fd
f504	f505	AND	A: 0	X: 0	Y: 0	SP: fd
f506	0	EOR	A: 0	X: 0	Y: 0	SP: fd
f508	0	CLC	A: 0	X: 0	Y: 0	SP: fd
f509	f50c	BEQ	A: 0	X: 0	Y: 0	SP: fd
f50c	18	ROR	A: 0	X: 0	Y: 0	SP: fd
f50e	19	ROR	A: 0	X: 0	Y: 0	SP: fd
f510	1a	ROR	A: 0	X: 0	Y: 0	SP: fd
f512	1b	ROR	A: 0	X: 0	Y: 0	SP: fd
f514	1c	ROR	A: 0	X: 0	Y: 0	SP: fd
f516	1d	ROR	A: 0	X: 0	Y: 0	SP: fd
f518	1e	ROR	A: 0	X: 0	Y: 0	SP: fd
f51a	1f	ROR	A: 0	X: 0	Y: 0	SP: fd
f51c	0	RTS	A: 0	X: 0	Y: 0	SP: fd
c7e4	c7e1	JMP	A: 0	X: 0	Y: 0	SP: ff
c7e1	f4fc	JSR	A: 0	X: 0	Y: 0	SP: ff
f4fc	18	LDA	A: 0	X: 0	Y: 0	SP: fd
f4fe	f4ff	AND	A: 0	X: 0	Y: 0	SP: fd
f500	0	STA	A: 0	X: 0	Y: 0	SP: fd
f502	19	LDA	A: 0	X: 0	Y: 0	SP: fd
f504	f505	AND	A: 0	X: 0	Y: 0	SP: fd
f506	0	EOR	A: 0	X: 0	Y: 0	SP: fd
f508	0	CLC	A: 0	X: 0	Y: 0	SP: fd
f509	f50c	BEQ	A: 0	X: 0	Y: 0	SP: fd
f50c	18	ROR	A: 0	X: 0	Y: 0	SP: fd
f50e	19	ROR	A: 0	X: 0	Y: 0	SP: fd
f510	1a	ROR	A: 0	X: 0	Y: 0	SP: fd
f512	1b	ROR	A: 0	X: 0	Y: 0	SP: fd
f514	1c	ROR	A: 0	X: 0	Y: 0	SP: fd
f516	1d	ROR	A: 0	X: 0	Y: 0	SP: fd
f518	1e	ROR	A: 0	X: 0	Y: 0	SP: fd
f51a	1f	ROR	A: 0	X: 0	Y: 0	SP: fd
f51c	0	RTS	A: 0	X: 0	Y: 0	SP: fd
c7e4	c7e1	JMP	A: 0	X: 0	Y: 0	SP: ff
c7e1	f4fc	JSR	A: 0	X: 0	Y: 0	SP: ff
f4fc	18	LDA	A: 0	X: 0	Y: 0	SP: fd
f4fe	f4ff	AND	A: 0	X: 0	Y: 0	SP: fd
f500	0	STA	A: 0	X: 0	Y: 0	SP: fd
f502	19	LDA	A: 0	X: 0	Y: 0	SP: fd
f504	f505	AND	A: 0	X: 0	Y: 0	SP: fd
f506	0	EOR	A: 0	X: 0	Y: 0	SP: fd
f508	0	CLC	A: 0	X: 0	Y: 0	SP: fd
f509	f50c	BEQ	A: 0	X: 0	Y: 0	SP: fd
f50c	18	ROR	A: 0	X: 0	Y: 0	SP: fd
f50e	19	ROR	A: 0	X: 0	Y: 0	SP: fd
f510	1a	ROR	A: 0	X: 0	Y: 0	SP: fd
f512	1b	ROR	A: 0	X: 0	Y: 0	SP: fd
f514	1c	ROR	A: 0	X: 0	Y: 0	SP: fd
f516	1d	ROR	A: 0	X: 0	Y: 0	SP: fd
f518	1e	ROR	A: 0	X: 0	Y: 0	SP: fd
f51a	1f	ROR	A: 0	X: 0	Y: 0	SP: fd
f51c	0	RTS	A: 0	X: 0	Y: 0	SP: fd
c7e4	c7e1	JMP	A: 0	X: 0	Y: 0	SP: ff
c7e1	f4fc	JSR	A: 0	X: 0	Y: 0	SP: ff
f4fc	18	LDA	A: 0	X: 0	Y: 0	SP: fd
f4fe	f4ff	AND	A: 0	X: 0	Y: 0	SP: fd
f500	0	STA	A: 0	X: 0	Y: 0	SP: fd
f502	19	LDA	A: 0	X: 0	Y: 0	SP: fd
f504	f505	AND	A: 0	X: 0	Y: 0	SP: fd
f506	0	EOR	A: 0	X: 0	Y: 0	SP: fd
f508	0	CLC	A: 0	X: 0	Y: 0	SP: fd
f509	f50c	BEQ	A: 0	X: 0	Y: 0	SP: fd
f50c	18	ROR	A: 0	X: 0	Y: 0	SP: fd
f50e	19	ROR	A: 0	X: 0	Y: 0	SP: fd
f510	1a	ROR	A: 0	X: 0	Y: 0	SP: fd
f512	1b	ROR	A: 0	X: 0	Y: 0	SP: fd
f514	1c	ROR	A: 0	X: 0	Y: 0	SP: fd
f516	1d	ROR	A: 0	X: 0	Y: 0	SP: fd
f518	1e	ROR	A: 0	X: 0	Y: 0	SP: fd
f51a	1f	ROR	A: 0	X: 0	Y: 0	SP: fd
f51c	0	RTS	A: 0	X: 0	Y: 0	SP: fd
c7e4	c7e1	JMP	A: 0	X: 0	Y: 0	SP: ff
c7e1	f4fc	JSR	A: 0	X: 0	Y: 0	SP: ff
f4fc	18	LDA	A: 0	X: 0	Y: 0	SP: fd
f4fe	f4ff	AND	A: 0	X: 0	Y: 0	SP: fd
f500	0	STA	A: 0	X: 0	Y: 0	SP: fd
f502	19	LDA	A: 0	X: 0	Y: 0	SP: fd
f504	f505	AND	A: 0	X: 0	Y: 0	SP: fd
f506	0	EOR	A: 0	X: 0	Y: 0	SP: fd
f508	0	CLC	A: 0	X: 0	Y: 0	SP: fd
f509	f50c	BEQ	A: 0	X: 0	Y: 0	SP: fd
f50c	18	ROR	A: 0	X: 0	Y: 0	SP: fd
f50e	19	ROR	A: 0	X: 0	Y: 0	SP: fd
f510	1a	ROR	A: 0	X: 0	Y: 0	SP: fd
f512	1b	ROR	A: 0	X: 0	Y: 0	SP: fd
f514	1c	ROR	A: 0	X: 0	Y: 0	SP: fd
f516	1d	ROR	A: 0	X: 0	Y: 0	SP: fd
f518	1e	ROR	A: 0	X: 0	Y: 0	SP: fd
f51a	1f	ROR	A: 0	X: 0	Y: 0	SP: fd
f51c	0	RTS	A: 0	X: 0	Y: 0	SP: fd
c7e4	c7e1	JMP	A: 0	X: 0	Y: 0	SP: ff
c7e1	f4fc	JSR	A: 0	X: 0	Y: 0	SP: ff
f4fc	18	LDA	A: 0	X: 0	Y: 0	SP: fd
f4fe	f4ff	AND	A: 0	X: 0	Y: 0	SP: fd
f500	0	STA	A: 0	X: 0	Y: 0	SP: fd
f502	19	LDA	A: 0	X: 0	Y: 0	SP: fd
f504	f505	AND	A: 0	X: 0	Y: 0	SP: fd
f506	0	EOR	A: 0	X: 0	Y: 0	SP: fd
f508	0	CLC	A: 0	X: 0	Y: 0	SP: fd
f509	f50c	BEQ	A: 0	X: 0	Y: 0	SP: fd
f50c	18	ROR	A: 0	X: 0	Y: 0	SP: fd
f50e	19	ROR	A: 0	X: 0	Y: 0	SP: fd
f510	1a	ROR	A: 0	X: 0	Y: 0	SP: fd
f512	1b	ROR	A: 0	X: 0	Y: 0	SP: fd
f514	1c	ROR	A: 0	X: 0	Y: 0	SP: fd
f516	1d	ROR	A: 0	X: 0	Y: 0	SP: fd
f518	1e	ROR	A: 0	X: 0	Y: 0	SP: fd
f51a	1f	ROR	A: 0	X: 0	Y: 0	SP: fd
f51c	0	RTS	A: 0	X: 0	Y: 0	SP: fd
c7e4	c7e1	JMP	A: 0	X: 0	Y: 0	SP: ff
c7e1	f4fc	JSR	A: 0	X: 0	Y: 0	SP: ff
f4fc	18	LDA	A: 0	X: 0	Y: 0	SP: fd
f4fe	f4ff	AND	A: 0	X: 0	Y: 0	SP: fd
f500	0	STA	A: 0	X: 0	Y: 0	SP: fd
f502	19	LDA	A: 0	X: 0	Y: 0	SP: fd
f504	f505	AND	A: 0	X: 0	Y: 0	SP: fd
f506	0	EOR	A: 0	X: 0	Y: 0	SP: fd
f508	0	CLC	A: 0	X: 0	Y: 0	SP: fd
f509	f50c	BEQ	A: 0	X: 0	Y: 0	SP: fd
f50c	18	ROR	A: 0	X: 0	Y: 0	SP: fd
f50e	19	ROR	A: 0	X: 0	Y: 0	SP: fd
f510	1a	ROR	A: 0	X: 0	Y: 0	SP: fd
f512	1b	ROR	A: 0	X: 0	Y: 0	SP: fd
f514	1c	ROR	A: 0	X: 0	Y: 0	SP: fd
f516	1d	ROR	A: 0	X: 0	Y: 0	SP: fd
f518	1e	ROR	A: 0	X: 0	Y: 0	SP: fd
f51a	1f	ROR	A: 0	X: 0	Y: 0	SP: fd
f51c	0	RTS	A: 0	X: 0	Y: 0	SP: fd
c7e4	c7e1	JMP	A: 0	X: 0	Y: 0	SP: ff
c7e1	f4fc	JSR	A: 0	X: 0	Y: 0	SP: ff
f4fc	18	LDA	A: 0	X: 0	Y: 0	SP: fd
f4fe	f4ff	AND	A: 0	X: 0	Y: 0	SP: fd
f500	0	STA	A: 0	X: 0	Y: 0	SP: fd
f502	19	LDA	A: 0	X: 0	Y: 0	SP: fd
f504	f505	AND	A: 0	X: 0	Y: 0	SP: fd
f506	0	EOR	A: 0	X: 0	Y: 0	SP: fd
f508	0	CLC	A: 0	X: 0	Y: 0	SP: fd
f509	f50c	BEQ	A: 0	X: 0	Y: 0	SP: fd
f50c	18	ROR	A: 0	X: 0	Y: 0	SP: fd
f50e	19	ROR	A: 0	X: 0	Y: 0	SP: fd
f510	1a	ROR	A: 0	X: 0	Y: 0	SP: fd
f512	1b	ROR	A: 0	X: 0	Y: 0	SP: fd
f514	1c	ROR	A: 0	X: 0	Y: 0	SP: fd
f516	1d	ROR	A: 0	X: 0	Y: 0	SP: fd
f518	1e	ROR	A: 0	X: 0	Y: 0	SP: fd
f51a	1f	ROR	A: 0	X: 0	Y: 0	SP: fd
f51c	0	RTS	A: 0	X: 0	Y: 0	SP: fd
c7e4	c7e1	JMP	A: 0	X: 0	Y: 0	SP: ff
c7e1	f4fc	JSR	A: 0	X: 0	Y: 0	SP: ff
f4fc	18	LDA	A: 0	X: 0	Y: 0	SP: fd
f4fe	f4ff	AND	A: 0	X: 0	Y: 0	SP: fd
f500	0	STA	A: 0	X: 0	Y: 0	SP: fd
f502	19	LDA	A: 0	X: 0	Y: 0	SP: fd
f504	f505	AND	A: 0	X: 0	Y: 0	SP: fd
f506	0	EOR	A: 0	X: 0	Y: 0	SP: fd
f508	0	CLC	A: 0	X: 0	Y: 0	SP: fd
f509	f50c	BEQ	A: 0	X: 0	Y: 0	SP: fd
f50c	18	ROR	A: 0	X: 0	Y: 0	SP: fd
f50e	19	ROR	A: 0	X: 0	Y: 0	SP: fd
f510	1a	ROR	A: 0	X: 0	Y: 0	SP: fd
f512	1b	ROR	A: 0	X: 0	Y: 0	SP: fd
f514	1c	ROR	A: 0	X: 0	Y: 0	SP: fd
f516	1d	ROR	A: 0	X: 0	Y: 0	SP: fd
f518	1e	ROR	A: 0	X: 0	Y: 0	SP: fd
f51a	1f	ROR	A: 0	X: 0	Y: 0	SP: fd
f51c	0	RTS	A: 0	X: 0	Y: 0	SP: fd
c7e4	c7e1	JMP	A: 0	X: 0	Y: 0	SP: ff
c7e1	f4fc	JSR	A: 0	X: 0	Y: 0	SP: ff
f4fc	18	LDA	A: 0	X: 0	Y: 0	SP: fd
f4fe	f4ff	AND	A: 0	X: 0	Y: 0	SP: fd
f500	0	STA	A: 0	X: 0	Y: 0	SP: fd
f502	19	LDA	A: 0	X: 0	Y: 0	SP: fd
f504	f505	AND	A: 0	X: 0	Y: 0	SP: fd
f506	0	EOR	A: 0	X: 0	Y: 0	SP: fd
f508	0	CLC	A: 0	X: 0	Y: 0	SP: fd
f509	f50c	BEQ	A: 0	X: 0	Y: 0	SP: fd
f50c	18	ROR	A: 0	X: 0	Y: 0	SP: fd
f50e	19	ROR	A: 0	X: 0	Y: 0	SP: fd
f510	1a	ROR	A: 0	X: 0	Y: 0	SP: fd
f512	1b	ROR	A: 0	X: 0	Y: 0	SP: fd
f514	1c	ROR	A: 0	X: 0	Y: 0	SP: fd
f516	1d	ROR	A: 0	X: 0	Y: 0	SP: fd
f518	1e	ROR	A: 0	X: 0	Y: 0	SP: fd
f51a	1f	ROR	A: 0	X: 0	Y: 0	SP: fd
f51c	0	RTS	A: 0	X: 0	Y: 0	SP: fd
c7e4	c7e1	JMP	A: 0	X: 0	Y: 0	SP: ff
c7e1	f4fc	JSR	A: 0	X: 0	Y: 0	SP: ff
f4fc	18	LDA	A: 0	X: 0	Y: 0	SP: fd
f4fe	f4ff	AND	A: 0	X: 0	Y: 0	SP: fd
f500	0	STA	A: 0	X: 0	Y: 0	SP: fd
f502	19	LDA	A: 0	X: 0	Y: 0	SP: fd
f504	f505	AND	A: 0	X: 0	Y: 0	SP: fd
f506	0	EOR	A: 0	X: 0	Y: 0	SP: fd
f508	0	CLC	A: 0	X: 0	Y: 0	SP: fd
f509	f50c	BEQ	A: 0	X: 0	Y: 0	SP: fd
f50c	18	ROR	A: 0	X: 0	Y: 0	SP: fd
f50e	19	ROR	A: 0	X: 0	Y: 0	SP: fd
f510	1a	ROR	A: 0	X: 0	Y: 0	SP: fd
f512	1b	ROR	A: 0	X: 0	Y: 0	SP: fd
f514	1c	ROR	A: 0	X: 0	Y: 0	SP: fd
f516	1d	ROR	A: 0	X: 0	Y: 0	SP: fd
f518	1e	ROR	A: 0	X: 0	Y: 0	SP: fd
f51a	1f	ROR	A: 0	X: 0	Y: 0	SP: fd
f51c	0	RTS	A: 0	X: 0	Y: 0	SP: fd
c7e4	c7e1	JMP	A: 0	X: 0	Y: 0	SP: ff
c7e1	f4fc	JSR	A: 0	X: 0	Y: 0	SP: ff
f4fc	18	LDA	A: 0	X: 0	Y: 0	SP: fd
f4fe	f4ff	AND	A: 0	X: 0	Y: 0	SP: fd
f500	0	STA	A: 0	X: 0	Y: 0	SP: fd
f502	19	LDA	A: 0	X: 0	Y: 0	SP: fd
f504	f505	AND	A: 0	X: 0	Y: 0	SP: fd
f506	0	EOR	A: 0	X: 0	Y: 0	SP: fd
f508	0	CLC	A: 0	X: 0	Y: 0	SP: fd
f509	f50c	BEQ	A: 0	X: 0	Y: 0	SP: fd
f50c	18	ROR	A: 0	X: 0	Y: 0	SP: fd
f50e	19	ROR	A: 0	X: 0	Y: 0	SP: fd
f510	1a	ROR	A: 0	X: 0	Y: 0	SP: fd
f512	1b	ROR	A: 0	X: 0	Y: 0	SP: fd
f514	1c	ROR	A: 0	X: 0	Y: 0	SP: fd
f516	1d	ROR	A: 0	X: 0	Y: 0	SP: fd
f518	1e	ROR	A: 0	X: 0	Y: 0	SP: fd
f51a	1f	ROR	A: 0	X: 0	Y: 0	SP: fd
f51c	0	RTS	A: 0	X: 0	Y: 0	SP: fd
c7e4	c7e1	JMP	A: 0	X: 0	Y: 0	SP: ff
c7e1	f4fc	JSR	A: 0	X: 0	Y: 0	SP: ff
f4fc	18	LDA	A: 0	X: 0	Y: 0	SP: fd
f4fe	f4ff	AND	A: 0	X: 0	Y: 0	SP: fd
f500	0	STA	A: 0	X: 0	Y: 0	SP: fd
f502	19	LDA	A: 0	X: 0	Y: 0	SP: fd
f504	f505	AND	A: 0	X: 0	Y: 0	SP: fd
f506	0	EOR	A: 0	X: 0	Y: 0	SP: fd
f508	0	CLC	A: 0	X: 0	Y: 0	SP: fd
f509	f50c	BEQ	A: 0	X: 0	Y: 0	SP: fd
f50c	18	ROR	A: 0	X: 0	Y: 0	SP: fd
f50e	19	ROR	A: 0	X: 0	Y: 0	SP: fd
f510	1a	ROR	A: 0	X: 0	Y: 0	SP: fd
f512	1b	ROR	A: 0	X: 0	Y: 0	SP: fd
f514	1c	ROR	A: 0	X: 0	Y: 0	SP: fd
f516	1d	ROR	A: 0	X: 0	Y: 0	SP: fd
f518	1e	ROR	A: 0	X: 0	Y: 0	SP: fd
f51a	1f	ROR	A: 0	X: 0	Y: 0	SP: fd
f51c	0	RTS	A: 0	X: 0	Y: 0	SP: fd
c7e4	c7e1	JMP	A: 0	X: 0	Y: 0	SP: ff
c7e1	f4fc	JSR	A: 0	X: 0	Y: 0	SP: ff
f4fc	18	LDA	A: 0	X: 0	Y: 0	SP: fd
f4fe	f4ff	AND	A: 0	X: 0	Y: 0	SP: fd
f500	0	STA	A: 0	X: 0	Y: 0	SP: fd
f502	19	LDA	A: 0	X: 0	Y: 0	SP: fd
f504	f505	AND	A: 0	X: 0	Y: 0	SP: fd
f506	0	EOR	A: 0	X: 0	Y: 0	SP: fd
f508	0	CLC	A: 0	X: 0	Y: 0	SP: fd
f509	f50c	BEQ	A: 0	X: 0	Y: 0	SP: fd
f50c	18	ROR	A: 0	X: 0	Y: 0	SP: fd
f50e	19	ROR	A: 0	X: 0	Y: 0	SP: fd
f510	1a	ROR	A: 0	X: 0	Y: 0	SP: fd
f512	1b	ROR	A: 0	X: 0	Y: 0	SP: fd
f514	1c	ROR	A: 0	X: 0	Y: 0	SP: fd
f516	1d	ROR	A: 0	X: 0	Y: 0	SP: fd
f518	1e	ROR	A: 0	X: 0	Y: 0	SP: fd
f51a	1f	ROR	A: 0	X: 0	Y: 0	SP: fd
f51c	0	RTS	A: 0	X: 0	Y: 0	SP: fd
c7e4	c7e1	JMP	A: 0	X: 0	Y: 0	SP: ff
c7e1	f4fc	JSR	A: 0	X: 0	Y: 0	SP: ff
f4fc	18	LDA	A: 0	X: 0	Y: 0	SP: fd
f4fe	f4ff	AND	A: 0	X: 0	Y: 0	SP: fd
f500	0	STA	A: 0	X: 0	Y: 0	SP: fd
f502	19	LDA	A: 0	X: 0	Y: 0	SP: fd
f504	f505	AND	A: 0	X: 0	Y: 0	SP: fd
f506	0	EOR	A: 0	X: 0	Y: 0	SP: fd
f508	0	CLC	A: 0	X: 0	Y: 0	SP: fd
f509	f50c	BEQ	A: 0	X: 0	Y: 0	SP: fd
f50c	18	ROR	A: 0	X: 0	Y: 0	SP: fd
f50e	19	ROR	A: 0	X: 0	Y: 0	SP: fd
f510	1a	ROR	A: 0	X: 0	Y: 0	SP: fd
f512	1b	ROR	A: 0	X: 0	Y: 0	SP: fd
f514	1c	ROR	A: 0	X: 0	Y: 0	SP: fd
f516	1d	ROR	A: 0	X: 0	Y: 0	SP: fd
f518	1e	ROR	A: 0	X: 0	Y: 0	SP: fd
f51a	1f	ROR	A: 0	X: 0	Y: 0	SP: fd
f51c	0	RTS	A: 0	X: 0	Y: 0	SP: fd
c7e4	c7e1	JMP	A: 0	X: 0	Y: 0	SP: ff
c7e1	f4fc	JSR	A: 0	X: 0	Y: 0	SP: ff
f4fc	18	LDA	A: 0	X: 0	Y: 0	SP: fd
f4fe	f4ff	AND	A: 0	X: 0	Y: 0	SP: fd
f500	0	STA	A: 0	X: 0	Y: 0	SP: fd
f502	19	LDA	A: 0	X: 0	Y: 0	SP: fd
f504	f505	AND	A: 0	X: 0	Y: 0	SP: fd
f506	0	EOR	A: 0	X: 0	Y: 0	SP: fd
f508	0	CLC	A: 0	X: 0	Y: 0	SP: fd
f509	f50c	BEQ	A: 0	X: 0	Y: 0	SP: fd
f50c	18	ROR	A: 0	X: 0	Y: 0	SP: fd
f50e	19	ROR	A: 0	X: 0	Y: 0	SP: fd
f510	1a	ROR	A: 0	X: 0	Y: 0	SP: fd
f512	1b	ROR	A: 0	X: 0	Y: 0	SP: fd
f514	1c	ROR	A: 0	X: 0	Y: 0	SP: fd
f516	1d	ROR	A: 0	X: 0	Y: 0	SP: fd
f518	1e	ROR	A: 0	X: 0	Y: 0	SP: fd
f51a	1f	ROR	A: 0	X: 0	Y: 0	SP: fd
f51c	0	RTS	A: 0	X: 0	Y: 0	SP: fd
c7e4	c7e1	JMP	A: 0	X: 0	Y: 0	SP: ff
c7e1	f4fc	JSR	A: 0	X: 0	Y: 0	SP: ff
f4fc	18	LDA	A: 0	X: 0	Y: 0	SP: fd
f4fe	f4ff	AND	A: 0	X: 0	Y: 0	SP: fd
f500	0	STA	A: 0	X: 0	Y: 0	SP: fd
f502	19	LDA	A: 0	X: 0	Y: 0	SP: fd
f504	f505	AND	A: 0	X: 0	Y: 0	SP: fd
f506	0	EOR	A: 0	X: 0	Y: 0	SP: fd
f508	0	CLC	A: 0	X: 0	Y: 0	SP: fd
f509	f50c	BEQ	A: 0	X: 0	Y: 0	SP: fd
f50c	18	ROR	A: 0	X: 0	Y: 0	SP: fd
f50e	19	ROR	A: 0	X: 0	Y: 0	SP: fd
f510	1a	ROR	A: 0	X: 0	Y: 0	SP: fd
f512	1b	ROR	A: 0	X: 0	Y: 0	SP: fd
f514	1c	ROR	A: 0	X: 0	Y: 0	SP: fd
f516	1d	ROR	A: 0	X: 0	Y: 0	SP: fd
f518	1e	ROR	A: 0	X: 0	Y: 0	SP: fd
f51a	1f	ROR	A: 0	X: 0	Y: 0	SP: fd
f51c	0	RTS	A: 0	X: 0	Y: 0	SP: fd
c7e4	c7e1	JMP	A: 0	X: 0	Y: 0	SP: ff
c7e1	f4fc	JSR	A: 0	X: 0	Y: 0	SP: ff
f4fc	18	LDA	A: 0	X: 0	Y: 0	SP: fd
f4fe	f4ff	AND	A: 0	X: 0	Y: 0	SP: fd
f500	0	STA	A: 0	X: 0	Y: 0	SP: fd
f502	19	LDA	A: 0	X: 0	Y: 0	SP: fd
f504	f505	AND	A: 0	X: 0	Y: 0	SP: fd
f506	0	EOR	A: 0	X: 0	Y: 0	SP: fd
f508	0	CLC	A: 0	X: 0	Y: 0	SP: fd
f509	f50c	BEQ	A: 0	X: 0	Y: 0	SP: fd
f50c	18	ROR	A: 0	X: 0	Y: 0	SP: fd
f50e	19	ROR	A: 0	X: 0	Y: 0	SP: fd
f510	1a	ROR	A: 0	X: 0	Y: 0	SP: fd
f512	1b	ROR	A: 0	X: 0	Y: 0	SP: fd
f514	1c	ROR	A: 0	X: 0	Y: 0	SP: fd
f516	1d	ROR	A: 0	X: 0	Y: 0	SP: fd
f518	1e	ROR	A: 0	X: 0	Y: 0	SP: fd
f51a	1f	ROR	A: 0	X: 0	Y: 0	SP: fd
f51c	0	RTS	A: 0	X: 0	Y: 0	SP: fd
c7e4	c7e1	JMP	A: 0	X: 0	Y: 0	SP: ff
c7e1	f4fc	JSR	A: 0	X: 0	Y: 0	SP: ff
f4fc	18	LDA	A: 0	X: 0	Y: 0	SP: fd
f4fe	f4ff	AND	A: 0	X: 0	Y: 0	SP: fd
f500	0	STA	A: 0	X: 0	Y: 0	SP: fd
f502	19	LDA	A: 0	X: 0	Y: 0	SP: fd
f504	f505	AND	A: 0	X: 0	Y: 0	SP: fd
f506	0	EOR	A: 0	X: 0	Y: 0	SP: fd
f508	0	CLC	A: 0	X: 0	Y: 0	SP: fd
f509	f50c	BEQ	A: 0	X: 0	Y: 0	SP: fd
f50c	18	ROR	A: 0	X: 0	Y: 0	SP: fd
f50e	19	ROR	A: 0	X: 0	Y: 0	SP: fd
f510	1a	ROR	A: 0	X: 0	Y: 0	SP: fd
f512	1b	ROR	A: 0	X: 0	Y: 0	SP: fd
f514	1c	ROR	A: 0	X: 0	Y: 0	SP: fd
f516	1d	ROR	A: 0	X: 0	Y: 0	SP: fd
f518	1e	ROR	A: 0	X: 0	Y: 0	SP: fd
f51a	1f	ROR	A: 0	X: 0	Y: 0	SP: fd
f51c	0	RTS	A: 0	X: 0	Y: 0	SP: fd
c7e4	c7e1	JMP	A: 0	X: 0	Y: 0	SP: ff
c7e1	f4fc	JSR	A: 0	X: 0	Y: 0	SP: ff
f4fc	18	LDA	A: 0	X: 0	Y: 0	SP: fd
f4fe	f4ff	AND	A: 0	X: 0	Y: 0	SP: fd
f500	0	STA	A: 0	X: 0	Y: 0	SP: fd
f502	19	LDA	A: 0	X: 0	Y: 0	SP: fd
f504	f505	AND	A: 0	X: 0	Y: 0	SP: fd
f506	0	EOR	A: 0	X: 0	Y: 0	SP: fd
f508	0	CLC	A: 0	X: 0	Y: 0	SP: fd
f509	f50c	BEQ	A: 0	X: 0	Y: 0	SP: fd
f50c	18	ROR	A: 0	X: 0	Y: 0	SP: fd
f50e	19	ROR	A: 0	X: 0	Y: 0	SP: fd
f510	1a	ROR	A: 0	X: 0	Y: 0	SP: fd
f512	1b	ROR	A: 0	X: 0	Y: 0	SP: fd
f514	1c	ROR	A: 0	X: 0	Y: 0	SP: fd
f516	1d	ROR	A: 0	X: 0	Y: 0	SP: fd
f518	1e	ROR	A: 0	X: 0	Y: 0	SP: fd
f51a	1f	ROR	A: 0	X: 0	Y: 0	SP: fd
f51c	0	RTS	A: 0	X: 0	Y: 0	SP: fd
c7e4	c7e1	JMP	A: 0	X: 0	Y: 0	SP: ff
c7e1	f4fc	JSR	A: 0	X: 0	Y: 0	SP: ff
f4fc	18	LDA	A: 0	X: 0	Y: 0	SP: fd
f4fe	f4ff	AND	A: 0	X: 0	Y: 0	SP: fd
f500	0	STA	A: 0	X: 0	Y: 0	SP: fd
f502	19	LDA	A: 0	X: 0	Y: 0	SP: fd
f504	f505	AND	A: 0	X: 0	Y: 0	SP: fd
f506	0	EOR	A: 0	X: 0	Y: 0	SP: fd
f508	0	CLC	A: 0	X: 0	Y: 0	SP: fd
f509	f50c	BEQ	A: 0	X: 0	Y: 0	SP: fd
f50c	18	ROR	A: 0	X: 0	Y: 0	SP: fd
f50e	19	ROR	A: 0	X: 0	Y: 0	SP: fd
f510	1a	ROR	A: 0	X: 0	Y: 0	SP: fd
f512	1b	ROR	A: 0	X: 0	Y: 0	SP: fd
f514	1c	ROR	A: 0	X: 0	Y: 0	SP: fd
f516	1d	ROR	A: 0	X: 0	Y: 0	SP: fd
f518	1e	ROR	A: 0	X: 0	Y: 0	SP: fd
f51a	1f	ROR	A: 0	X: 0	Y: 0	SP: fd
f51c	0	RTS	A: 0	X: 0	Y: 0	SP: fd
c7e4	c7e1	JMP	A: 0	X: 0	Y: 0	SP: ff
c7e1	f4fc	JSR	A: 0	X: 0	Y: 0	SP: ff
f4fc	18	LDA	A: 0	X: 0	Y: 0	SP: fd
f4fe	f4ff	AND	A: 0	X: 0	Y: 0	SP: fd
f500	0	STA	A: 0	X: 0	Y: 0	SP: fd
f502	19	LDA	A: 0	X: 0	Y: 0	SP: fd
f504	f505	AND	A: 0	X: 0	Y: 0	SP: fd
f506	0	EOR	A: 0	X: 0	Y: 0	SP: fd
f508	0	CLC	A: 0	X: 0	Y: 0	SP: fd
f509	f50c	BEQ	A: 0	X: 0	Y: 0	SP: fd
f50c	18	ROR	A: 0	X: 0	Y: 0	SP: fd
f50e	19	ROR	A: 0	X: 0	Y: 0	SP: fd
f510	1a	ROR	A: 0	X: 0	Y: 0	SP: fd
f512	1b	ROR	A: 0	X: 0	Y: 0	SP: fd
f514	1c	ROR	A: 0	X: 0	Y: 0	SP: fd
f516	1d	ROR	A: 0	X: 0	Y: 0	SP: fd
f518	1e	ROR	A: 0	X: 0	Y: 0	SP: fd
f51a	1f	ROR	A: 0	X: 0	Y: 0	SP: fd
f51c	0	RTS	A: 0	X: 0	Y: 0	SP: fd
c7e4	c7e1	JMP	A: 0	X: 0	Y: 0	SP: ff
c7e1	f4fc	JSR	A: 0	X: 0	Y: 0	SP: ff
f4fc	18	LDA	A: 0	X: 0	Y: 0	SP: fd
f4fe	f4ff	AND	A: 0	X: 0	Y: 0	SP: fd
f500	0	STA	A: 0	X: 0	Y: 0	SP: fd
f502	19	LDA	A: 0	X: 0	Y: 0	SP: fd
f504	f505	AND	A: 0	X: 0	Y: 0	SP: fd
f506	0	EOR	A: 0	X: 0	Y: 0	SP: fd
f508	0	CLC	A: 0	X: 0	Y: 0	SP: fd
f509	f50c	BEQ	A: 0	X: 0	Y: 0	SP: fd
f50c	18	ROR	A: 0	X: 0	Y: 0	SP: fd
f50e	19	ROR	A: 0	X: 0	Y: 0	SP: fd
f510	1a	ROR	A: 0	X: 0	Y: 0	SP: fd
f512	1b	ROR	A: 0	X: 0	Y: 0	SP: fd
f514	1c	ROR	A: 0	X: 0	Y: 0	SP: fd
f516	1d	ROR	A: 0	X: 0	Y: 0	SP: fd
f518	1e	ROR	A: 0	X: 0	Y: 0	SP: fd
f51a	1f	ROR	A: 0	X: 0	Y: 0	SP: fd
f51c	0	RTS	A: 0	X: 0	Y: 0	SP: fd
c7e4	c7e1	JMP	A: 0	X: 0	Y: 0	SP: ff
c7e1	f4fc	JSR	A: 0	X: 0	Y: 0	SP: ff
f4fc	18	LDA	A: 0	X: 0	Y: 0	SP: fd
f4fe	f4ff	AND	A: 0	X: 0	Y: 0	SP: fd
f500	0	STA	A: 0	X: 0	Y: 0	SP: fd
f502	19	LDA	A: 0	X: 0	Y: 0	SP: fd
f504	f505	AND	A: 0	X: 0	Y: 0	SP: fd
f506	0	EOR	A: 0	X: 0	Y: 0	SP: fd
f508	0	CLC	A: 0	X: 0	Y: 0	SP: fd
f509	f50c	BEQ	A: 0	X: 0	Y: 0	SP: fd
f50c	18	ROR	A: 0	X: 0	Y: 0	SP: fd
f50e	19	ROR	A: 0	X: 0	Y: 0	SP: fd
f510	1a	ROR	A: 0	X: 0	Y: 0	SP: fd
f512	1b	ROR	A: 0	X: 0	Y: 0	SP: fd
f514	1c	ROR	A: 0	X: 0	Y: 0	SP: fd
f516	1d	ROR	A: 0	X: 0	Y: 0	SP: fd
f518	1e	ROR	A: 0	X: 0	Y: 0	SP: fd
f51a	1f	ROR	A: 0	X: 0	Y: 0	SP: fd
f51c	0	RTS	A: 0	X: 0	Y: 0	SP: fd
c7e4	c7e1	JMP	A: 0	X: 0	Y: 0	SP: ff
c7e1	f4fc	JSR	A: 0	X: 0	Y: 0	SP: ff
f4fc	18	LDA	A: 0	X: 0	Y: 0	SP: fd
f4fe	f4ff	AND	A: 0	X: 0	Y: 0	SP: fd
f500	0	STA	A: 0	X: 0	Y: 0	SP: fd
f502	19	LDA	A: 0	X: 0	Y: 0	SP: fd
f504	f505	AND	A: 0	X: 0	Y: 0	SP: fd
f506	0	EOR	A: 0	X: 0	Y: 0	SP: fd
f508	0	CLC	A: 0	X: 0	Y: 0	SP: fd
f509	f50c	BEQ	A: 0	X: 0	Y: 0	SP: fd
f50c	18	ROR	A: 0	X: 0	Y: 0	SP: fd
f50e	19	ROR	A: 0	X: 0	Y: 0	SP: fd
f510	1a	ROR	A: 0	X: 0	Y: 0	SP: fd
f512	1b	ROR	A: 0	X: 0	Y: 0	SP: fd
f514	1c	ROR	A: 0	X: 0	Y: 0	SP: fd
f516	1d	ROR	A: 0	X: 0	Y: 0	SP: fd
f518	1e	ROR	A: 0	X: 0	Y: 0	SP: fd
f51a	1f	ROR	A: 0	X: 0	Y: 0	SP: fd
f51c	0	RTS	A: 0	X: 0	Y: 0	SP: fd
c7e4	c7e1	JMP	A: 0	X: 0	Y: 0	SP: ff
c7e1	f4fc	JSR	A: 0	X: 0	Y: 0	SP: ff
f4fc	18	LDA	A: 0	X: 0	Y: 0	SP: fd
f4fe	f4ff	AND	A: 0	X: 0	Y: 0	SP: fd
f500	0	STA	A: 0	X: 0	Y: 0	SP: fd
f502	19	LDA	A: 0	X: 0	Y: 0	SP: fd
f504	f505	AND	A: 0	X: 0	Y: 0	SP: fd
f506	0	EOR	A: 0	X: 0	Y: 0	SP: fd
f508	0	CLC	A: 0	X: 0	Y: 0	SP: fd
f509	f50c	BEQ	A: 0	X: 0	Y: 0	SP: fd
f50c	18	ROR	A: 0	X: 0	Y: 0	SP: fd
f50e	19	ROR	A: 0	X: 0	Y: 0	SP: fd
f510	1a	ROR	A: 0	X: 0	Y: 0	SP: fd
f512	1b	ROR	A: 0	X: 0	Y: 0	SP: fd
f514	1c	ROR	A: 0	X: 0	Y: 0	SP: fd
f516	1d	ROR	A: 0	X: 0	Y: 0	SP: fd
f518	1e	ROR	A: 0	X: 0	Y: 0	SP: fd
f51a	1f	ROR	A: 0	X: 0	Y: 0	SP: fd
f51c	0	RTS	A: 0	X: 0	Y: 0	SP: fd
c7e4	c7e1	JMP	A: 0	X: 0	Y: 0	SP: ff
c7e1	f4fc	JSR	A: 0	X: 0	Y: 0	SP: ff
f4fc	18	LDA	A: 0	X: 0	Y: 0	SP: fd
f4fe	f4ff	AND	A: 0	X: 0	Y: 0	SP: fd
f500	0	STA	A: 0	X: 0	Y: 0	SP: fd
f502	19	LDA	A: 0	X: 0	Y: 0	SP: fd
f504	f505	AND	A: 0	X: 0	Y: 0	SP: fd
f506	0	EOR	A: 0	X: 0	Y: 0	SP: fd
f508	0	CLC	A: 0	X: 0	Y: 0	SP: fd
f509	f50c	BEQ	A: 0	X: 0	Y: 0	SP: fd
f50c	18	ROR	A: 0	X: 0	Y: 0	SP: fd
f50e	19	ROR	A: 0	X: 0	Y: 0	SP: fd
f510	1a	ROR	A: 0	X: 0	Y: 0	SP: fd
f512	1b	ROR	A: 0	X: 0	Y: 0	SP: fd
f514	1c	ROR	A: 0	X: 0	Y: 0	SP: fd
f516	1d	ROR	A: 0	X: 0	Y: 0	SP: fd
f518	1e	ROR	A: 0	X: 0	Y: 0	SP: fd
f51a	1f	ROR	A: 0	X: 0	Y: 0	SP: fd
f51c	0	RTS	A: 0	X: 0	Y: 0	SP: fd
c7e4	c7e1	JMP	A: 0	X: 0	Y: 0	SP: ff
c7e1	f4fc	JSR	A: 0	X: 0	Y: 0	SP: ff
f4fc	18	LDA	A: 0	X: 0	Y: 0	SP: fd
f4fe	f4ff	AND	A: 0	X: 0	Y: 0	SP: fd
f500	0	STA	A: 0	X: 0	Y: 0	SP: fd
f502	19	LDA	A: 0	X: 0	Y: 0	SP: fd
f504	f505	AND	A: 0	X: 0	Y: 0	SP: fd
f506	0	EOR	A: 0	X: 0	Y: 0	SP: fd
f508	0	CLC	A: 0	X: 0	Y: 0	SP: fd
f509	f50c	BEQ	A: 0	X: 0	Y: 0	SP: fd
f50c	18	ROR	A: 0	X: 0	Y: 0	SP: fd
f50e	19	ROR	A: 0	X: 0	Y: 0	SP: fd
f510	1a	ROR	A: 0	X: 0	Y: 0	SP: fd
f512	1b	ROR	A: 0	X: 0	Y: 0	SP: fd
f514	1c	ROR	A: 0	X: 0	Y: 0	SP: fd
f516	1d	ROR	A: 0	X: 0	Y: 0	SP: fd
f518	1e	ROR	A: 0	X: 0	Y: 0	SP: fd
f51a	1f	ROR	A: 0	X: 0	Y: 0	SP: fd
f51c	0	RTS	A: 0	X: 0	Y: 0	SP: fd
c7e4	c7e1	JMP	A: 0	X: 0	Y: 0	SP: ff
c7e1	f4fc	JSR	A: 0	X: 0	Y: 0	SP: ff
f4fc	18	LDA	A: 0	X: 0	Y: 0	SP: fd
f4fe	f4ff	AND	A: 0	X: 0	Y: 0	SP: fd
f500	0	STA	A: 0	X: 0	Y: 0	SP: fd
f502	19	LDA	A: 0	X: 0	Y: 0	SP: fd
f504	f505	AND	A: 0	X: 0	Y: 0	SP: fd
f506	0	EOR	A: 0	X: 0	Y: 0	SP: fd
f508	0	CLC	A: 0	X: 0	Y: 0	SP: fd
f509	f50c	BEQ	A: 0	X: 0	Y: 0	SP: fd
f50c	18	ROR	A: 0	X: 0	Y: 0	SP: fd
f50e	19	ROR	A: 0	X: 0	Y: 0	SP: fd
f510	1a	ROR	A: 0	X: 0	Y: 0	SP: fd
f512	1b	ROR	A: 0	X: 0	Y: 0	SP: fd
f514	1c	ROR	A: 0	X: 0	Y: 0	SP: fd
f516	1d	ROR	A: 0	X: 0	Y: 0	SP: fd
f518	1e	ROR	A: 0	X: 0	Y: 0	SP: fd
f51a	1f	ROR	A: 0	X: 0	Y: 0	SP: fd
f51c	0	RTS	A: 0	X: 0	Y: 0	SP: fd
c7e4	c7e1	JMP	A: 0	X: 0	Y: 0	SP: ff
c7e1	f4fc	JSR	A: 0	X: 0	Y: 0	SP: ff
f4fc	18	LDA	A: 0	X: 0	Y: 0	SP: fd
f4fe	f4ff	AND	A: 0	X: 0	Y: 0	SP: fd
f500	0	STA	A: 0	X: 0	Y: 0	SP: fd
f502	19	LDA	A: 0	X: 0	Y: 0	SP: fd
f504	f505	AND	A: 0	X: 0	Y: 0	SP: fd
f506	0	EOR	A: 0	X: 0	Y: 0	SP: fd
f508	0	CLC	A: 0	X: 0	Y: 0	SP: fd
f509	f50c	BEQ	A: 0	X: 0	Y: 0	SP: fd
f50c	18	ROR	A: 0	X: 0	Y: 0	SP: fd
f50e	19	ROR	A: 0	X: 0	Y: 0	SP: fd
f510	1a	ROR	A: 0	X: 0	Y: 0	SP: fd
f512	1b	ROR	A: 0	X: 0	Y: 0	SP: fd
f514	1c	ROR	A: 0	X: 0	Y: 0	SP: fd
f516	1d	ROR	A: 0	X: 0	Y: 0	SP: fd
f518	1e	ROR	A: 0	X: 0	Y: 0	SP: fd
f51a	1f	ROR	A: 0	X: 0	Y: 0	SP: fd
f51c	0	RTS	A: 0	X: 0	Y: 0	SP: fd
c7e4	c7e1	JMP	A: 0	X: 0	Y: 0	SP: ff
c7e1	f4fc	JSR	A: 0	X: 0	Y: 0	SP: ff
f4fc	18	LDA	A: 0	X: 0	Y: 0	SP: fd
f4fe	f4ff	AND	A: 0	X: 0	Y: 0	SP: fd
f500	0	STA	A: 0	X: 0	Y: 0	SP: fd
f502	19	LDA	A: 0	X: 0	Y: 0	SP: fd
f504	f505	AND	A: 0	X: 0	Y: 0	SP: fd
f506	0	EOR	A: 0	X: 0	Y: 0	SP: fd
f508	0	CLC	A: 0	X: 0	Y: 0	SP: fd
f509	f50c	BEQ	A: 0	X: 0	Y: 0	SP: fd
f50c	18	ROR	A: 0	X: 0	Y: 0	SP: fd
f50e	19	ROR	A: 0	X: 0	Y: 0	SP: fd
f510	1a	ROR	A: 0	X: 0	Y: 0	SP: fd
f512	1b	ROR	A: 0	X: 0	Y: 0	SP: fd
f514	1c	ROR	A: 0	X: 0	Y: 0	SP: fd
f516	1d	ROR	A: 0	X: 0	Y: 0	SP: fd
f518	1e	ROR	A: 0	X: 0	Y: 0	SP: fd
f51a	1f	ROR	A: 0	X: 0	Y: 0	SP: fd
f51c	0	RTS	A: 0	X: 0	Y: 0	SP: fd
c7e4	c7e1	JMP	A: 0	X: 0	Y: 0	SP: ff
c7e1	f4fc	JSR	A: 0	X: 0	Y: 0	SP: ff
f4fc	18	LDA	A: 0	X: 0	Y: 0	SP: fd
f4fe	f4ff	AND	A: 0	X: 0	Y: 0	SP: fd
f500	0	STA	A: 0	X: 0	Y: 0	SP: fd
f502	19	LDA	A: 0	X: 0	Y: 0	SP: fd
f504	f505	AND	A: 0	X: 0	Y: 0	SP: fd
f506	0	EOR	A: 0	X: 0	Y: 0	SP: fd
f508	0	CLC	A: 0	X: 0	Y: 0	SP: fd
f509	f50c	BEQ	A: 0	X: 0	Y: 0	SP: fd
f50c	18	ROR	A: 0	X: 0	Y: 0	SP: fd
f50e	19	ROR	A: 0	X: 0	Y: 0	SP: fd
f510	1a	ROR	A: 0	X: 0	Y: 0	SP: fd
f512	1b	ROR	A: 0	X: 0	Y: 0	SP: fd
f514	1c	ROR	A: 0	X: 0	Y: 0	SP: fd
f516	1d	ROR	A: 0	X: 0	Y: 0	SP: fd
f518	1e	ROR	A: 0	X: 0	Y: 0	SP: fd
f51a	1f	ROR	A: 0	X: 0	Y: 0	SP: fd
f51c	0	RTS	A: 0	X: 0	Y: 0	SP: fd
c7e4	c7e1	JMP	A: 0	X: 0	Y: 0	SP: ff
c7e1	f4fc	JSR	A: 0	X: 0	Y: 0	SP: ff
f4fc	18	LDA	A: 0	X: 0	Y: 0	SP: fd
f4fe	f4ff	AND	A: 0	X: 0	Y: 0	SP: fd
f500	0	STA	A: 0	X: 0	Y: 0	SP: fd
f502	19	LDA	A: 0	X: 0	Y: 0	SP: fd
f504	f505	AND	A: 0	X: 0	Y: 0	SP: fd
f506	0	EOR	A: 0	X: 0	Y: 0	SP: fd
f508	0	CLC	A: 0	X: 0	Y: 0	SP: fd
f509	f50c	BEQ	A: 0	X: 0	Y: 0	SP: fd
f50c	18	ROR	A: 0	X: 0	Y: 0	SP: fd
f50e	19	ROR	A: 0	X: 0	Y: 0	SP: fd
f510	1a	ROR	A: 0	X: 0	Y: 0	SP: fd
f512	1b	ROR	A: 0	X: 0	Y: 0	SP: fd
f514	1c	ROR	A: 0	X: 0	Y: 0	SP: fd
f516	1d	ROR	A: 0	X: 0	Y: 0	SP: fd
f518	1e	ROR	A: 0	X: 0	Y: 0	SP: fd
f51a	1f	ROR	A: 0	X: 0	Y: 0	SP: fd
f51c	0	RTS	A: 0	X: 0	Y: 0	SP: fd
c7e4	c7e1	JMP	A: 0	X: 0	Y: 0	SP: ff
c7e1	f4fc	JSR	A: 0	X: 0	Y: 0	SP: ff
f4fc	18	LDA	A: 0	X: 0	Y: 0	SP: fd
f4fe	f4ff	AND	A: 0	X: 0	Y: 0	SP: fd
f500	0	STA	A: 0	X: 0	Y: 0	SP: fd
f502	19	LDA	A: 0	X: 0	Y: 0	SP: fd
f504	f505	AND	A: 0	X: 0	Y: 0	SP: fd
f506	0	EOR	A: 0	X: 0	Y: 0	SP: fd
f508	0	CLC	A: 0	X: 0	Y: 0	SP: fd
f509	f50c	BEQ	A: 0	X: 0	Y: 0	SP: fd
f50c	18	ROR	A: 0	X: 0	Y: 0	SP: fd
f50e	19	ROR	A: 0	X: 0	Y: 0	SP: fd
f510	1a	ROR	A: 0	X: 0	Y: 0	SP: fd
f512	1b	ROR	A: 0	X: 0	Y: 0	SP: fd
f514	1c	ROR	A: 0	X: 0	Y: 0	SP: fd
f516	1d	ROR	A: 0	X: 0	Y: 0	SP: fd
f518	1e	ROR	A: 0	X: 0	Y: 0	SP: fd
f51a	1f	ROR	A: 0	X: 0	Y: 0	SP: fd
f51c	0	RTS	A: 0	X: 0	Y: 0	SP: fd
c7e4	c7e1	JMP	A: 0	X: 0	Y: 0	SP: ff
c7e1	f4fc	JSR	A: 0	X: 0	Y: 0	SP: ff
f4fc	18	LDA	A: 0	X: 0	Y: 0	SP: fd
f4fe	f4ff	AND	A: 0	X: 0	Y: 0	SP: fd
f500	0	STA	A: 0	X: 0	Y: 0	SP: fd
f502	19	LDA	A: 0	X: 0	Y: 0	SP: fd
f504	f505	AND	A: 0	X: 0	Y: 0	SP: fd
f506	0	EOR	A: 0	X: 0	Y: 0	SP: fd
f508	0	CLC	A: 0	X: 0	Y: 0	SP: fd
f509	f50c	BEQ	A: 0	X: 0	Y: 0	SP: fd
f50c	18	ROR	A: 0	X: 0	Y: 0	SP: fd
f50e	19	ROR	A: 0	X: 0	Y: 0	SP: fd
f510	1a	ROR	A: 0	X: 0	Y: 0	SP: fd
f512	1b	ROR	A: 0	X: 0	Y: 0	SP: fd
f514	1c	ROR	A: 0	X: 0	Y: 0	SP: fd
f516	1d	ROR	A: 0	X: 0	Y: 0	SP: fd
f518	1e	ROR	A: 0	X: 0	Y: 0	SP: fd
f51a	1f	ROR	A: 0	X: 0	Y: 0	SP: fd
f51c	0	RTS	A: 0	X: 0	Y: 0	SP: fd
c7e4	c7e1	JMP	A: 0	X: 0	Y: 0	SP: ff
c7e1	f4fc	JSR	A: 0	X: 0	Y: 0	SP: ff
f4fc	18	LDA	A: 0	X: 0	Y: 0	SP: fd
f4fe	f4ff	AND	A: 0	X: 0	Y: 0	SP: fd
f500	0	STA	A: 0	X: 0	Y: 0	SP: fd
f502	19	LDA	A: 0	X: 0	Y: 0	SP: fd
f504	f505	AND	A: 0	X: 0	Y: 0	SP: fd
f506	0	EOR	A: 0	X: 0	Y: 0	SP: fd
f508	0	CLC	A: 0	X: 0	Y: 0	SP: fd
f509	f50c	BEQ	A: 0	X: 0	Y: 0	SP: fd
f50c	18	ROR	A: 0	X: 0	Y: 0	SP: fd
f50e	19	ROR	A: 0	X: 0	Y: 0	SP: fd
f510	1a	ROR	A: 0	X: 0	Y: 0	SP: fd
f512	1b	ROR	A: 0	X: 0	Y: 0	SP: fd
f514	1c	ROR	A: 0	X: 0	Y: 0	SP: fd
f516	1d	ROR	A: 0	X: 0	Y: 0	SP: fd
f518	1e	ROR	A: 0	X: 0	Y: 0	SP: fd
f51a	1f	ROR	A: 0	X: 0	Y: 0	SP: fd
f51c	0	RTS	A: 0	X: 0	Y: 0	SP: fd
c7e4	c7e1	JMP	A: 0	X: 0	Y: 0	SP: ff
c7e1	f4fc	JSR	A: 0	X: 0	Y: 0	SP: ff
f4fc	18	LDA	A: 0	X: 0	Y: 0	SP: fd
f4fe	f4ff	AND	A: 0	X: 0	Y: 0	SP: fd
f500	0	STA	A: 0	X: 0	Y: 0	SP: fd
f502	19	LDA	A: 0	X: 0	Y: 0	SP: fd
f504	f505	AND	A: 0	X: 0	Y: 0	SP: fd
f506	0	EOR	A: 0	X: 0	Y: 0	SP: fd
f508	0	CLC	A: 0	X: 0	Y: 0	SP: fd
f509	f50c	BEQ	A: 0	X: 0	Y: 0	SP: fd
f50c	18	ROR	A: 0	X: 0	Y: 0	SP: fd
f50e	19	ROR	A: 0	X: 0	Y: 0	SP: fd
f510	1a	ROR	A: 0	X: 0	Y: 0	SP: fd
f512	1b	ROR	A: 0	X: 0	Y: 0	SP: fd
f514	1c	ROR	A: 0	X: 0	Y: 0	SP: fd
f516	1d	ROR	A: 0	X: 0	Y: 0	SP: fd
f518	1e	ROR	A: 0	X: 0	Y: 0	SP: fd
f51a	1f	ROR	A: 0	X: 0	Y: 0	SP: fd
f51c	0	RTS	A: 0	X: 0	Y: 0	SP: fd
c7e4	c7e1	JMP	A: 0	X: 0	Y: 0	SP: ff
c7e1	f4fc	JSR	A: 0	X: 0	Y: 0	SP: ff
f4fc	18	LDA	A: 0	X: 0	Y: 0	SP: fd
f4fe	f4ff	AND	A: 0	X: 0	Y: 0	SP: fd
f500	0	STA	A: 0	X: 0	Y: 0	SP: fd
f502	19	LDA	A: 0	X: 0	Y: 0	SP: fd
f504	f505	AND	A: 0	X: 0	Y: 0	SP: fd
f506	0	EOR	A: 0	X: 0	Y: 0	SP: fd
f508	0	CLC	A: 0	X: 0	Y: 0	SP: fd
f509	f50c	BEQ	A: 0	X: 0	Y: 0	SP: fd
f50c	18	ROR	A: 0	X: 0	Y: 0	SP: fd
f50e	19	ROR	A: 0	X: 0	Y: 0	SP: fd
f510	1a	ROR	A: 0	X: 0	Y: 0	SP: fd
f512	1b	ROR	A: 0	X: 0	Y: 0	SP: fd
f514	1c	ROR	A: 0	X: 0	Y: 0	SP: fd
f516	1d	ROR	A: 0	X: 0	Y: 0	SP: fd
f518	1e	ROR	A: 0	X: 0	Y: 0	SP: fd
f51a	1f	ROR	A: 0	X: 0	Y: 0	SP: fd
f51c	0	RTS	A: 0	X: 0	Y: 0	SP: fd
c7e4	c7e1	JMP	A: 0	X: 0	Y: 0	SP: ff
c7e1	f4fc	JSR	A: 0	X: 0	Y: 0	SP: ff
f4fc	18	LDA	A: 0	X: 0	Y: 0	SP: fd
f4fe	f4ff	AND	A: 0	X: 0	Y: 0	SP: fd
f500	0	STA	A: 0	X: 0	Y: 0	SP: fd
f502	19	LDA	A: 0	X: 0	Y: 0	SP: fd
f504	f505	AND	A: 0	X: 0	Y: 0	SP: fd
f506	0	EOR	A: 0	X: 0	Y: 0	SP: fd
f508	0	CLC	A: 0	X: 0	Y: 0	SP: fd
f509	f50c	BEQ	A: 0	X: 0	Y: 0	SP: fd
f50c	18	ROR	A: 0	X: 0	Y: 0	SP: fd
f50e	19	ROR	A: 0	X: 0	Y: 0	SP: fd
f510	1a	ROR	A: 0	X: 0	Y: 0	SP: fd
f512	1b	ROR	A: 0	X: 0	Y: 0	SP: fd
f514	1c	ROR	A: 0	X: 0	Y: 0	SP: fd
f516	1d	ROR	A: 0	X: 0	Y: 0	SP: fd
f518	1e	ROR	A: 0	X: 0	Y: 0	SP: fd
f51a	1f	ROR	A: 0	X: 0	Y: 0	SP: fd
f51c	0	RTS	A: 0	X: 0	Y: 0	SP: fd
c7e4	c7e1	JMP	A: 0	X: 0	Y: 0	SP: ff
c7e1	f4fc	JSR	A: 0	X: 0	Y: 0	SP: ff
f4fc	18	LDA	A: 0	X: 0	Y: 0	SP: fd
f4fe	f4ff	AND	A: 0	X: 0	Y: 0	SP: fd
f500	0	STA	A: 0	X: 0	Y: 0	SP: fd
f502	19	LDA	A: 0	X: 0	Y: 0	SP: fd
f504	f505	AND	A: 0	X: 0	Y: 0	SP: fd
f506	0	EOR	A: 0	X: 0	Y: 0	SP: fd
f508	0	CLC	A: 0	X: 0	Y: 0	SP: fd
f509	f50c	BEQ	A: 0	X: 0	Y: 0	SP: fd
f50c	18	ROR	A: 0	X: 0	Y: 0	SP: fd
f50e	19	ROR	A: 0	X: 0	Y: 0	SP: fd
f510	1a	ROR	A: 0	X: 0	Y: 0	SP: fd
f512	1b	ROR	A: 0	X: 0	Y: 0	SP: fd
f514	1c	ROR	A: 0	X: 0	Y: 0	SP: fd
f516	1d	ROR	A: 0	X: 0	Y: 0	SP: fd
f518	1e	ROR	A: 0	X: 0	Y: 0	SP: fd
f51a	1f	ROR	A: 0	X: 0	Y: 0	SP: fd
f51c	0	RTS	A: 0	X: 0	Y: 0	SP: fd
c7e4	c7e1	JMP	A: 0	X: 0	Y: 0	SP: ff
c7e1	f4fc	JSR	A: 0	X: 0	Y: 0	SP: ff
f4fc	18	LDA	A: 0	X: 0	Y: 0	SP: fd
f4fe	f4ff	AND	A: 0	X: 0	Y: 0	SP: fd
f500	0	STA	A: 0	X: 0	Y: 0	SP: fd
f502	19	LDA	A: 0	X: 0	Y: 0	SP: fd
f504	f505	AND	A: 0	X: 0	Y: 0	SP: fd
f506	0	EOR	A: 0	X: 0	Y: 0	SP: fd
f508	0	CLC	A: 0	X: 0	Y: 0	SP: fd
f509	f50c	BEQ	A: 0	X: 0	Y: 0	SP: fd
f50c	18	ROR	A: 0	X: 0	Y: 0	SP: fd
f50e	19	ROR	A: 0	X: 0	Y: 0	SP: fd
f510	1a	ROR	A: 0	X: 0	Y: 0	SP: fd
f512	1b	ROR	A: 0	X: 0	Y: 0	SP: fd
f514	1c	ROR	A: 0	X: 0	Y: 0	SP: fd
f516	1d	ROR	A: 0	X: 0	Y: 0	SP: fd
f518	1e	ROR	A: 0	X: 0	Y: 0	SP: fd
f51a	1f	ROR	A: 0	X: 0	Y: 0	SP: fd
f51c	0	RTS	A: 0	X: 0	Y: 0	SP: fd
c7e4	c7e1	JMP	A: 0	X: 0	Y: 0	SP: ff
c7e1	f4fc	JSR	A: 0	X: 0	Y: 0	SP: ff
f4fc	18	LDA	A: 0	X: 0	Y: 0	SP: fd
f4fe	f4ff	AND	A: 0	X: 0	Y: 0	SP: fd
f500	0	STA	A: 0	X: 0	Y: 0	SP: fd
f502	19	LDA	A: 0	X: 0	Y: 0	SP: fd
f504	f505	AND	A: 0	X: 0	Y: 0	SP: fd
f506	0	EOR	A: 0	X: 0	Y: 0	SP: fd
f508	0	CLC	A: 0	X: 0	Y: 0	SP: fd
f509	f50c	BEQ	A: 0	X: 0	Y: 0	SP: fd
f50c	18	ROR	A: 0	X: 0	Y: 0	SP: fd
f50e	19	ROR	A: 0	X: 0	Y: 0	SP: fd
f510	1a	ROR	A: 0	X: 0	Y: 0	SP: fd
f512	1b	ROR	A: 0	X: 0	Y: 0	SP: fd
f514	1c	ROR	A: 0	X: 0	Y: 0	SP: fd
f516	1d	ROR	A: 0	X: 0	Y: 0	SP: fd
f518	1e	ROR	A: 0	X: 0	Y: 0	SP: fd
f51a	1f	ROR	A: 0	X: 0	Y: 0	SP: fd
f51c	0	RTS	A: 0	X: 0	Y: 0	SP: fd
c7e4	c7e1	JMP	A: 0	X: 0	Y: 0	SP: ff
c7e1	f4fc	JSR	A: 0	X: 0	Y: 0	SP: ff
f4fc	18	LDA	A: 0	X: 0	Y: 0	SP: fd
f4fe	f4ff	AND	A: 0	X: 0	Y: 0	SP: fd
f500	0	STA	A: 0	X: 0	Y: 0	SP: fd
f502	19	LDA	A: 0	X: 0	Y: 0	SP: fd
f504	f505	AND	A: 0	X: 0	Y: 0	SP: fd
f506	0	EOR	A: 0	X: 0	Y: 0	SP: fd
f508	0	CLC	A: 0	X: 0	Y: 0	SP: fd
f509	f50c	BEQ	A: 0	X: 0	Y: 0	SP: fd
f50c	18	ROR	A: 0	X: 0	Y: 0	SP: fd
f50e	19	ROR	A: 0	X: 0	Y: 0	SP: fd
f510	1a	ROR	A: 0	X: 0	Y: 0	SP: fd
f512	1b	ROR	A: 0	X: 0	Y: 0	SP: fd
f514	1c	ROR	A: 0	X: 0	Y: 0	SP: fd
f516	1d	ROR	A: 0	X: 0	Y: 0	SP: fd
f518	1e	ROR	A: 0	X: 0	Y: 0	SP: fd
f51a	1f	ROR	A: 0	X: 0	Y: 0	SP: fd
f51c	0	RTS	A: 0	X: 0	Y: 0	SP: fd
c7e4	c7e1	JMP	A: 0	X: 0	Y: 0	SP: ff
c7e1	f4fc	JSR	A: 0	X: 0	Y: 0	SP: ff
f4fc	18	LDA	A: 0	X: 0	Y: 0	SP: fd
f4fe	f4ff	AND	A: 0	X: 0	Y: 0	SP: fd
f500	0	STA	A: 0	X: 0	Y: 0	SP: fd
f502	19	LDA	A: 0	X: 0	Y: 0	SP: fd
f504	f505	AND	A: 0	X: 0	Y: 0	SP: fd
f506	0	EOR	A: 0	X: 0	Y: 0	SP: fd
f508	0	CLC	A: 0	X: 0	Y: 0	SP: fd
f509	f50c	BEQ	A: 0	X: 0	Y: 0	SP: fd
f50c	18	ROR	A: 0	X: 0	Y: 0	SP: fd
f50e	19	ROR	A: 0	X: 0	Y: 0	SP: fd
f510	1a	ROR	A: 0	X: 0	Y: 0	SP: fd
f512	1b	ROR	A: 0	X: 0	Y: 0	SP: fd
f514	1c	ROR	A: 0	X: 0	Y: 0	SP: fd
f516	1d	ROR	A: 0	X: 0	Y: 0	SP: fd
f518	1e	ROR	A: 0	X: 0	Y: 0	SP: fd
f51a	1f	ROR	A: 0	X: 0	Y: 0	SP: fd
f51c	0	RTS	A: 0	X: 0	Y: 0	SP: fd
c7e4	c7e1	JMP	A: 0	X: 0	Y: 0	SP: ff
c7e1	f4fc	JSR	A: 0	X: 0	Y: 0	SP: ff
f4fc	18	LDA	A: 0	X: 0	Y: 0	SP: fd
f4fe	f4ff	AND	A: 0	X: 0	Y: 0	SP: fd
f500	0	STA	A: 0	X: 0	Y: 0	SP: fd
f502	19	LDA	A: 0	X: 0	Y: 0	SP: fd
f504	f505	AND	A: 0	X: 0	Y: 0	SP: fd
f506	0	EOR	A: 0	X: 0	Y: 0	SP: fd
f508	0	CLC	A: 0	X: 0	Y: 0	SP: fd
f509	f50c	BEQ	A: 0	X: 0	Y: 0	SP: fd
f50c	18	ROR	A: 0	X: 0	Y: 0	SP: fd
f50e	19	ROR	A: 0	X: 0	Y: 0	SP: fd
f510	1a	ROR	A: 0	X: 0	Y: 0	SP: fd
f512	1b	ROR	A: 0	X: 0	Y: 0	SP: fd
f514	1c	ROR	A: 0	X: 0	Y: 0	SP: fd
f516	1d	ROR	A: 0	X: 0	Y: 0	SP: fd
f518	1e	ROR	A: 0	X: 0	Y: 0	SP: fd
f51a	1f	ROR	A: 0	X: 0	Y: 0	SP: fd
f51c	0	RTS	A: 0	X: 0	Y: 0	SP: fd
c7e4	c7e1	JMP	A: 0	X: 0	Y: 0	SP: ff
c7e1	f4fc	JSR	A: 0	X: 0	Y: 0	SP: ff
f4fc	18	LDA	A: 0	X: 0	Y: 0	SP: fd
f4fe	f4ff	AND	A: 0	X: 0	Y: 0	SP: fd
f500	0	STA	A: 0	X: 0	Y: 0	SP: fd
f502	19	LDA	A: 0	X: 0	Y: 0	SP: fd
f504	f505	AND	A: 0	X: 0	Y: 0	SP: fd
f506	0	EOR	A: 0	X: 0	Y: 0	SP: fd
f508	0	CLC	A: 0	X: 0	Y: 0	SP: fd
f509	f50c	BEQ	A: 0	X: 0	Y: 0	SP: fd
f50c	18	ROR	A: 0	X: 0	Y: 0	SP: fd
f50e	19	ROR	A: 0	X: 0	Y: 0	SP: fd
f510	1a	ROR	A: 0	X: 0	Y: 0	SP: fd
f512	1b	ROR	A: 0	X: 0	Y: 0	SP: fd
f514	1c	ROR	A: 0	X: 0	Y: 0	SP: fd
f516	1d	ROR	A: 0	X: 0	Y: 0	SP: fd
f518	1e	ROR	A: 0	X: 0	Y: 0	SP: fd
f51a	1f	ROR	A: 0	X: 0	Y: 0	SP: fd
f51c	0	RTS	A: 0	X: 0	Y: 0	SP: fd
c7e4	c7e1	JMP	A: 0	X: 0	Y: 0	SP: ff
c7e1	f4fc	JSR	A: 0	X: 0	Y: 0	SP: ff
f4fc	18	LDA	A: 0	X: 0	Y: 0	SP: fd
f4fe	f4ff	AND	A: 0	X: 0	Y: 0	SP: fd
f500	0	STA	A: 0	X: 0	Y: 0	SP: fd
f502	19	LDA	A: 0	X: 0	Y: 0	SP: fd
f504	f505	AND	A: 0	X: 0	Y: 0	SP: fd
f506	0	EOR	A: 0	X: 0	Y: 0	SP: fd
f508	0	CLC	A: 0	X: 0	Y: 0	SP: fd
f509	f50c	BEQ	A: 0	X: 0	Y: 0	SP: fd
f50c	18	ROR	A: 0	X: 0	Y: 0	SP: fd
f50e	19	ROR	A: 0	X: 0	Y: 0	SP: fd
f510	1a	ROR	A: 0	X: 0	Y: 0	SP: fd
f512	1b	ROR	A: 0	X: 0	Y: 0	SP: fd
f514	1c	ROR	A: 0	X: 0	Y: 0	SP: fd
f516	1d	ROR	A: 0	X: 0	Y: 0	SP: fd
f518	1e	ROR	A: 0	X: 0	Y: 0	SP: fd
f51a	1f	ROR	A: 0	X: 0	Y: 0	SP: fd
f51c	0	RTS	A: 0	X: 0	Y: 0	SP: fd
c7e4	c7e1	JMP	A: 0	X: 0	Y: 0	SP: ff
c7e1	f4fc	JSR	A: 0	X: 0	Y: 0	SP: ff
f4fc	18	LDA	A: 0	X: 0	Y: 0	SP: fd
f4fe	f4ff	AND	A: 0	X: 0	Y: 0	SP: fd
f500	0	STA	A: 0	X: 0	Y: 0	SP: fd
f502	19	LDA	A: 0	X: 0	Y: 0	SP: fd
f504	f505	AND	A: 0	X: 0	Y: 0	SP: fd
f506	0	EOR	A: 0	X: 0	Y: 0	SP: fd
f508	0	CLC	A: 0	X: 0	Y: 0	SP: fd
f509	f50c	BEQ	A: 0	X: 0	Y: 0	SP: fd
f50c	18	ROR	A: 0	X: 0	Y: 0	SP: fd
f50e	19	ROR	A: 0	X: 0	Y: 0	SP: fd
f510	1a	ROR	A: 0	X: 0	Y: 0	SP: fd
f512	1b	ROR	A: 0	X: 0	Y: 0	SP: fd
f514	1c	ROR	A: 0	X: 0	Y: 0	SP: fd
f516	1d	ROR	A: 0	X: 0	Y: 0	SP: fd
f518	1e	ROR	A: 0	X: 0	Y: 0	SP: fd
f51a	1f	ROR	A: 0	X: 0	Y: 0	SP: fd
f51c	0	RTS	A: 0	X: 0	Y: 0	SP: fd
c7e4	c7e1	JMP	A: 0	X: 0	Y: 0	SP: ff
c7e1	f4fc	JSR	A: 0	X: 0	Y: 0	SP: ff
f4fc	18	LDA	A: 0	X: 0	Y: 0	SP: fd
f4fe	f4ff	AND	A: 0	X: 0	Y: 0	SP: fd
f500	0	STA	A: 0	X: 0	Y: 0	SP: fd
f502	19	LDA	A: 0	X: 0	Y: 0	SP: fd
f504	f505	AND	A: 0	X: 0	Y: 0	SP: fd
f506	0	EOR	A: 0	X: 0	Y: 0	SP: fd
f508	0	CLC	A: 0	X: 0	Y: 0	SP: fd
f509	f50c	BEQ	A: 0	X: 0	Y: 0	SP: fd
f50c	18	ROR	A: 0	X: 0	Y: 0	SP: fd
f50e	19	ROR	A: 0	X: 0	Y: 0	SP: fd
f510	1a	ROR	A: 0	X: 0	Y: 0	SP: fd
f512	1b	ROR	A: 0	X: 0	Y: 0	SP: fd
f514	1c	ROR	A: 0	X: 0	Y: 0	SP: fd
f516	1d	ROR	A: 0	X: 0	Y: 0	SP: fd
f518	1e	ROR	A: 0	X: 0	Y: 0	SP: fd
f51a	1f	ROR	A: 0	X: 0	Y: 0	SP: fd
f51c	0	RTS	A: 0	X: 0	Y: 0	SP: fd
c7e4	c7e1	JMP	A: 0	X: 0	Y: 0	SP: ff
c7e1	f4fc	JSR	A: 0	X: 0	Y: 0	SP: ff
f4fc	18	LDA	A: 0	X: 0	Y: 0	SP: fd
f4fe	f4ff	AND	A: 0	X: 0	Y: 0	SP: fd
f500	0	STA	A: 0	X: 0	Y: 0	SP: fd
f502	19	LDA	A: 0	X: 0	Y: 0	SP: fd
f504	f505	AND	A: 0	X: 0	Y: 0	SP: fd
f506	0	EOR	A: 0	X: 0	Y: 0	SP: fd
f508	0	CLC	A: 0	X: 0	Y: 0	SP: fd
f509	f50c	BEQ	A: 0	X: 0	Y: 0	SP: fd
f50c	18	ROR	A: 0	X: 0	Y: 0	SP: fd
f50e	19	ROR	A: 0	X: 0	Y: 0	SP: fd
f510	1a	ROR	A: 0	X: 0	Y: 0	SP: fd
f512	1b	ROR	A: 0	X: 0	Y: 0	SP: fd
f514	1c	ROR	A: 0	X: 0	Y: 0	SP: fd
f516	1d	ROR	A: 0	X: 0	Y: 0	SP: fd
f518	1e	ROR	A: 0	X: 0	Y: 0	SP: fd
f51a	1f	ROR	A: 0	X: 0	Y: 0	SP: fd
f51c	0	RTS	A: 0	X: 0	Y: 0	SP: fd
c7e4	c7e1	JMP	A: 0	X: 0	Y: 0	SP: ff
c7e1	f4fc	JSR	A: 0	X: 0	Y: 0	SP: ff
f4fc	18	LDA	A: 0	X: 0	Y: 0	SP: fd
f4fe	f4ff	AND	A: 0	X: 0	Y: 0	SP: fd
f500	0	STA	A: 0	X: 0	Y: 0	SP: fd
f502	19	LDA	A: 0	X: 0	Y: 0	SP: fd
f504	f505	AND	A: 0	X: 0	Y: 0	SP: fd
f506	0	EOR	A: 0	X: 0	Y: 0	SP: fd
f508	0	CLC	A: 0	X: 0	Y: 0	SP: fd
f509	f50c	BEQ	A: 0	X: 0	Y: 0	SP: fd
f50c	18	ROR	A: 0	X: 0	Y: 0	SP: fd
f50e	19	ROR	A: 0	X: 0	Y: 0	SP: fd
f510	1a	ROR	A: 0	X: 0	Y: 0	SP: fd
f512	1b	ROR	A: 0	X: 0	Y: 0	SP: fd
f514	1c	ROR	A: 0	X: 0	Y: 0	SP: fd
f516	1d	ROR	A: 0	X: 0	Y: 0	SP: fd
f518	1e	ROR	A: 0	X: 0	Y: 0	SP: fd
f51a	1f	ROR	A: 0	X: 0	Y: 0	SP: fd
f51c	0	RTS	A: 0	X: 0	Y: 0	SP: fd
c7e4	c7e1	JMP	A: 0	X: 0	Y: 0	SP: ff
c7e1	f4fc	JSR	A: 0	X: 0	Y: 0	SP: ff
f4fc	18	LDA	A: 0	X: 0	Y: 0	SP: fd
f4fe	f4ff	AND	A: 0	X: 0	Y: 0	SP: fd
f500	0	STA	A: 0	X: 0	Y: 0	SP: fd
f502	19	LDA	A: 0	X: 0	Y: 0	SP: fd
f504	f505	AND	A: 0	X: 0	Y: 0	SP: fd
f506	0	EOR	A: 0	X: 0	Y: 0	SP: fd
f508	0	CLC	A: 0	X: 0	Y: 0	SP: fd
f509	f50c	BEQ	A: 0	X: 0	Y: 0	SP: fd
f50c	18	ROR	A: 0	X: 0	Y: 0	SP: fd
f50e	19	ROR	A: 0	X: 0	Y: 0	SP: fd
f510	1a	ROR	A: 0	X: 0	Y: 0	SP: fd
f512	1b	ROR	A: 0	X: 0	Y: 0	SP: fd
f514	1c	ROR	A: 0	X: 0	Y: 0	SP: fd
f516	1d	ROR	A: 0	X: 0	Y: 0	SP: fd
f518	1e	ROR	A: 0	X: 0	Y: 0	SP: fd
f51a	1f	ROR	A: 0	X: 0	Y: 0	SP: fd
f51c	0	RTS	A: 0	X: 0	Y: 0	SP: fd
c7e4	c7e1	JMP	A: 0	X: 0	Y: 0	SP: ff
c7e1	f4fc	JSR	A: 0	X: 0	Y: 0	SP: ff
f4fc	18	LDA	A: 0	X: 0	Y: 0	SP: fd
f4fe	f4ff	AND	A: 0	X: 0	Y: 0	SP: fd
f500	0	STA	A: 0	X: 0	Y: 0	SP: fd
f502	19	LDA	A: 0	X: 0	Y: 0	SP: fd
f504	f505	AND	A: 0	X: 0	Y: 0	SP: fd
f506	0	EOR	A: 0	X: 0	Y: 0	SP: fd
f508	0	CLC	A: 0	X: 0	Y: 0	SP: fd
f509	f50c	BEQ	A: 0	X: 0	Y: 0	SP: fd
f50c	18	ROR	A: 0	X: 0	Y: 0	SP: fd
f50e	19	ROR	A: 0	X: 0	Y: 0	SP: fd
f510	1a	ROR	A: 0	X: 0	Y: 0	SP: fd
f512	1b	ROR	A: 0	X: 0	Y: 0	SP: fd
f514	1c	ROR	A: 0	X: 0	Y: 0	SP: fd
f516	1d	ROR	A: 0	X: 0	Y: 0	SP: fd
f518	1e	ROR	A: 0	X: 0	Y: 0	SP: fd
f51a	1f	ROR	A: 0	X: 0	Y: 0	SP: fd
f51c	0	RTS	A: 0	X: 0	Y: 0	SP: fd
c7e4	c7e1	JMP	A: 0	X: 0	Y: 0	SP: ff
c7e1	f4fc	JSR	A: 0	X: 0	Y: 0	SP: ff
f4fc	18	LDA	A: 0	X: 0	Y: 0	SP: fd
f4fe	f4ff	AND	A: 0	X: 0	Y: 0	SP: fd
f500	0	STA	A: 0	X: 0	Y: 0	SP: fd
f502	19	LDA	A: 0	X: 0	Y: 0	SP: fd
f504	f505	AND	A: 0	X: 0	Y: 0	SP: fd
f506	0	EOR	A: 0	X: 0	Y: 0	SP: fd
f508	0	CLC	A: 0	X: 0	Y: 0	SP: fd
f509	f50c	BEQ	A: 0	X: 0	Y: 0	SP: fd
f50c	18	ROR	A: 0	X: 0	Y: 0	SP: fd
f50e	19	ROR	A: 0	X: 0	Y: 0	SP: fd
f510	1a	ROR	A: 0	X: 0	Y: 0	SP: fd
f512	1b	ROR	A: 0	X: 0	Y: 0	SP: fd
f514	1c	ROR	A: 0	X: 0	Y: 0	SP: fd
f516	1d	ROR	A: 0	X: 0	Y: 0	SP: fd
f518	1e	ROR	A: 0	X: 0	Y: 0	SP: fd
f51a	1f	ROR	A: 0	X: 0	Y: 0	SP: fd
f51c	0	RTS	A: 0	X: 0	Y: 0	SP: fd
c7e4	c7e1	JMP	A: 0	X: 0	Y: 0	SP: ff
c7e1	f4fc	JSR	A: 0	X: 0	Y: 0	SP: ff
f4fc	18	LDA	A: 0	X: 0	Y: 0	SP: fd
f4fe	f4ff	AND	A: 0	X: 0	Y: 0	SP: fd
f500	0	STA	A: 0	X: 0	Y: 0	SP: fd
f502	19	LDA	A: 0	X: 0	Y: 0	SP: fd
f504	f505	AND	A: 0	X: 0	Y: 0	SP: fd
f506	0	EOR	A: 0	X: 0	Y: 0	SP: fd
f508	0	CLC	A: 0	X: 0	Y: 0	SP: fd
f509	f50c	BEQ	A: 0	X: 0	Y: 0	SP: fd
f50c	18	ROR	A: 0	X: 0	Y: 0	SP: fd
f50e	19	ROR	A: 0	X: 0	Y: 0	SP: fd
f510	1a	ROR	A: 0	X: 0	Y: 0	SP: fd
f512	1b	ROR	A: 0	X: 0	Y: 0	SP: fd
f514	1c	ROR	A: 0	X: 0	Y: 0	SP: fd
f516	1d	ROR	A: 0	X: 0	Y: 0	SP: fd
f518	1e	ROR	A: 0	X: 0	Y: 0	SP: fd
f51a	1f	ROR	A: 0	X: 0	Y: 0	SP: fd
f51c	0	RTS	A: 0	X: 0	Y: 0	SP: fd
c7e4	c7e1	JMP	A: 0	X: 0	Y: 0	SP: ff
c7e1	f4fc	JSR	A: 0	X: 0	Y: 0	SP: ff
f4fc	18	LDA	A: 0	X: 0	Y: 0	SP: fd
f4fe	f4ff	AND	A: 0	X: 0	Y: 0	SP: fd
f500	0	STA	A: 0	X: 0	Y: 0	SP: fd
f502	19	LDA	A: 0	X: 0	Y: 0	SP: fd
f504	f505	AND	A: 0	X: 0	Y: 0	SP: fd
f506	0	EOR	A: 0	X: 0	Y: 0	SP: fd
f508	0	CLC	A: 0	X: 0	Y: 0	SP: fd
f509	f50c	BEQ	A: 0	X: 0	Y: 0	SP: fd
f50c	18	ROR	A: 0	X: 0	Y: 0	SP: fd
f50e	19	ROR	A: 0	X: 0	Y: 0	SP: fd
f510	1a	ROR	A: 0	X: 0	Y: 0	SP: fd
f512	1b	ROR	A: 0	X: 0	Y: 0	SP: fd
f514	1c	ROR	A: 0	X: 0	Y: 0	SP: fd
f516	1d	ROR	A: 0	X: 0	Y: 0	SP: fd
f518	1e	ROR	A: 0	X: 0	Y: 0	SP: fd
f51a	1f	ROR	A: 0	X: 0	Y: 0	SP: fd
f51c	0	RTS	A: 0	X: 0	Y: 0	SP: fd
c7e4	c7e1	JMP	A: 0	X: 0	Y: 0	SP: ff
c7e1	f4fc	JSR	A: 0	X: 0	Y: 0	SP: ff
f4fc	18	LDA	A: 0	X: 0	Y: 0	SP: fd
f4fe	f4ff	AND	A: 0	X: 0	Y: 0	SP: fd
f500	0	STA	A: 0	X: 0	Y: 0	SP: fd
f502	19	LDA	A: 0	X: 0	Y: 0	SP: fd
f504	f505	AND	A: 0	X: 0	Y: 0	SP: fd
f506	0	EOR	A: 0	X: 0	Y: 0	SP: fd
f508	0	CLC	A: 0	X: 0	Y: 0	SP: fd
f509	f50c	BEQ	A: 0	X: 0	Y: 0	SP: fd
f50c	18	ROR	A: 0	X: 0	Y: 0	SP: fd
f50e	19	ROR	A: 0	X: 0	Y: 0	SP: fd
f510	1a	ROR	A: 0	X: 0	Y: 0	SP: fd
f512	1b	ROR	A: 0	X: 0	Y: 0	SP: fd
f514	1c	ROR	A: 0	X: 0	Y: 0	SP: fd
f516	1d	ROR	A: 0	X: 0	Y: 0	SP: fd
f518	1e	ROR	A: 0	X: 0	Y: 0	SP: fd
f51a	1f	ROR	A: 0	X: 0	Y: 0	SP: fd
f51c	0	RTS	A: 0	X: 0	Y: 0	SP: fd
c7e4	c7e1	JMP	A: 0	X: 0	Y: 0	SP: ff
c7e1	f4fc	JSR	A: 0	X: 0	Y: 0	SP: ff
f4fc	18	LDA	A: 0	X: 0	Y: 0	SP: fd
f4fe	f4ff	AND	A: 0	X: 0	Y: 0	SP: fd
f500	0	STA	A: 0	X: 0	Y: 0	SP: fd
f502	19	LDA	A: 0	X: 0	Y: 0	SP: fd
f504	f505	AND	A: 0	X: 0	Y: 0	SP: fd
f506	0	EOR	A: 0	X: 0	Y: 0	SP: fd
f508	0	CLC	A: 0	X: 0	Y: 0	SP: fd
f509	f50c	BEQ	A: 0	X: 0	Y: 0	SP: fd
f50c	18	ROR	A: 0	X: 0	Y: 0	SP: fd
f50e	19	ROR	A: 0	X: 0	Y: 0	SP: fd
f510	1a	ROR	A: 0	X: 0	Y: 0	SP: fd
f512	1b	ROR	A: 0	X: 0	Y: 0	SP: fd
f514	1c	ROR	A: 0	X: 0	Y: 0	SP: fd
f516	1d	ROR	A: 0	X: 0	Y: 0	SP: fd
f518	1e	ROR	A: 0	X: 0	Y: 0	SP: fd
f51a	1f	ROR	A: 0	X: 0	Y: 0	SP: fd
f51c	0	RTS	A: 0	X: 0	Y: 0	SP: fd
c7e4	c7e1	JMP	A: 0	X: 0	Y: 0	SP: ff
c7e1	f4fc	JSR	A: 0	X: 0	Y: 0	SP: ff
f4fc	18	LDA	A: 0	X: 0	Y: 0	SP: fd
f4fe	f4ff	AND	A: 0	X: 0	Y: 0	SP: fd
f500	0	STA	A: 0	X: 0	Y: 0	SP: fd
f502	19	LDA	A: 0	X: 0	Y: 0	SP: fd
f504	f505	AND	A: 0	X: 0	Y: 0	SP: fd
f506	0	EOR	A: 0	X: 0	Y: 0	SP: fd
f508	0	CLC	A: 0	X: 0	Y: 0	SP: fd
f509	f50c	BEQ	A: 0	X: 0	Y: 0	SP: fd
f50c	18	ROR	A: 0	X: 0	Y: 0	SP: fd
f50e	19	ROR	A: 0	X: 0	Y: 0	SP: fd
f510	1a	ROR	A: 0	X: 0	Y: 0	SP: fd
f512	1b	ROR	A: 0	X: 0	Y: 0	SP: fd
f514	1c	ROR	A: 0	X: 0	Y: 0	SP: fd
f516	1d	ROR	A: 0	X: 0	Y: 0	SP: fd
f518	1e	ROR	A: 0	X: 0	Y: 0	SP: fd
f51a	1f	ROR	A: 0	X: 0	Y: 0	SP: fd
f51c	0	RTS	A: 0	X: 0	Y: 0	SP: fd
c7e4	c7e1	JMP	A: 0	X: 0	Y: 0	SP: ff
c7e1	f4fc	JSR	A: 0	X: 0	Y: 0	SP: ff
f4fc	18	LDA	A: 0	X: 0	Y: 0	SP: fd
f4fe	f4ff	AND	A: 0	X: 0	Y: 0	SP: fd
f500	0	STA	A: 0	X: 0	Y: 0	SP: fd
f502	19	LDA	A: 0	X: 0	Y: 0	SP: fd
f504	f505	AND	A: 0	X: 0	Y: 0	SP: fd
f506	0	EOR	A: 0	X: 0	Y: 0	SP: fd
f508	0	CLC	A: 0	X: 0	Y: 0	SP: fd
f509	f50c	BEQ	A: 0	X: 0	Y: 0	SP: fd
f50c	18	ROR	A: 0	X: 0	Y: 0	SP: fd
f50e	19	ROR	A: 0	X: 0	Y: 0	SP: fd
f510	1a	ROR	A: 0	X: 0	Y: 0	SP: fd
f512	1b	ROR	A: 0	X: 0	Y: 0	SP: fd
f514	1c	ROR	A: 0	X: 0	Y: 0	SP: fd
f516	1d	ROR	A: 0	X: 0	Y: 0	SP: fd
f518	1e	ROR	A: 0	X: 0	Y: 0	SP: fd
f51a	1f	ROR	A: 0	X: 0	Y: 0	SP: fd
f51c	0	RTS	A: 0	X: 0	Y: 0	SP: fd
c7e4	c7e1	JMP	A: 0	X: 0	Y: 0	SP: ff
c7e1	f4fc	JSR	A: 0	X: 0	Y: 0	SP: ff
f4fc	18	LDA	A: 0	X: 0	Y: 0	SP: fd
f4fe	f4ff	AND	A: 0	X: 0	Y: 0	SP: fd
f500	0	STA	A: 0	X: 0	Y: 0	SP: fd
f502	19	LDA	A: 0	X: 0	Y: 0	SP: fd
f504	f505	AND	A: 0	X: 0	Y: 0	SP: fd
f506	0	EOR	A: 0	X: 0	Y: 0	SP: fd
f508	0	CLC	A: 0	X: 0	Y: 0	SP: fd
f509	f50c	BEQ	A: 0	X: 0	Y: 0	SP: fd
f50c	18	ROR	A: 0	X: 0	Y: 0	SP: fd
f50e	19	ROR	A: 0	X: 0	Y: 0	SP: fd
f510	1a	ROR	A: 0	X: 0	Y: 0	SP: fd
f512	1b	ROR	A: 0	X: 0	Y: 0	SP: fd
f514	1c	ROR	A: 0	X: 0	Y: 0	SP: fd
f516	1d	ROR	A: 0	X: 0	Y: 0	SP: fd
f518	1e	ROR	A: 0	X: 0	Y: 0	SP: fd
f51a	1f	ROR	A: 0	X: 0	Y: 0	SP: fd
f51c	0	RTS	A: 0	X: 0	Y: 0	SP: fd
c7e4	c7e1	JMP	A: 0	X: 0	Y: 0	SP: ff
c7e1	f4fc	JSR	A: 0	X: 0	Y: 0	SP: ff
f4fc	18	LDA	A: 0	X: 0	Y: 0	SP: fd
f4fe	f4ff	AND	A: 0	X: 0	Y: 0	SP: fd
f500	0	STA	A: 0	X: 0	Y: 0	SP: fd
f502	19	LDA	A: 0	X: 0	Y: 0	SP: fd
f504	f505	AND	A: 0	X: 0	Y: 0	SP: fd
f506	0	EOR	A: 0	X: 0	Y: 0	SP: fd
f508	0	CLC	A: 0	X: 0	Y: 0	SP: fd
f509	f50c	BEQ	A: 0	X: 0	Y: 0	SP: fd
f50c	18	ROR	A: 0	X: 0	Y: 0	SP: fd
f50e	19	ROR	A: 0	X: 0	Y: 0	SP: fd
f510	1a	ROR	A: 0	X: 0	Y: 0	SP: fd
f512	1b	ROR	A: 0	X: 0	Y: 0	SP: fd
f514	1c	ROR	A: 0	X: 0	Y: 0	SP: fd
f516	1d	ROR	A: 0	X: 0	Y: 0	SP: fd
f518	1e	ROR	A: 0	X: 0	Y: 0	SP: fd
f51a	1f	ROR	A: 0	X: 0	Y: 0	SP: fd
f51c	0	RTS	A: 0	X: 0	Y: 0	SP: fd
c7e4	c7e1	JMP	A: 0	X: 0	Y: 0	SP: ff
c7e1	f4fc	JSR	A: 0	X: 0	Y: 0	SP: ff
f4fc	18	LDA	A: 0	X: 0	Y: 0	SP: fd
f4fe	f4ff	AND	A: 0	X: 0	Y: 0	SP: fd
f500	0	STA	A: 0	X: 0	Y: 0	SP: fd
f502	19	LDA	A: 0	X: 0	Y: 0	SP: fd
f504	f505	AND	A: 0	X: 0	Y: 0	SP: fd
f506	0	EOR	A: 0	X: 0	Y: 0	SP: fd
f508	0	CLC	A: 0	X: 0	Y: 0	SP: fd
f509	f50c	BEQ	A: 0	X: 0	Y: 0	SP: fd
f50c	18	ROR	A: 0	X: 0	Y: 0	SP: fd
f50e	19	ROR	A: 0	X: 0	Y: 0	SP: fd
f510	1a	ROR	A: 0	X: 0	Y: 0	SP: fd
f512	1b	ROR	A: 0	X: 0	Y: 0	SP: fd
f514	1c	ROR	A: 0	X: 0	Y: 0	SP: fd
f516	1d	ROR	A: 0	X: 0	Y: 0	SP: fd
f518	1e	ROR	A: 0	X: 0	Y: 0	SP: fd
f51a	1f	ROR	A: 0	X: 0	Y: 0	SP: fd
f51c	0	RTS	A: 0	X: 0	Y: 0	SP: fd
c7e4	c7e1	JMP	A: 0	X: 0	Y: 0	SP: ff
c7e1	f4fc	JSR	A: 0	X: 0	Y: 0	SP: ff
f4fc	18	LDA	A: 0	X: 0	Y: 0	SP: fd
f4fe	f4ff	AND	A: 0	X: 0	Y: 0	SP: fd
f500	0	STA	A: 0	X: 0	Y: 0	SP: fd
f502	19	LDA	A: 0	X: 0	Y: 0	SP: fd
f504	f505	AND	A: 0	X: 0	Y: 0	SP: fd
f506	0	EOR	A: 0	X: 0	Y: 0	SP: fd
f508	0	CLC	A: 0	X: 0	Y: 0	SP: fd
f509	f50c	BEQ	A: 0	X: 0	Y: 0	SP: fd
f50c	18	ROR	A: 0	X: 0	Y: 0	SP: fd
f50e	19	ROR	A: 0	X: 0	Y: 0	SP: fd
f510	1a	ROR	A: 0	X: 0	Y: 0	SP: fd
f512	1b	ROR	A: 0	X: 0	Y: 0	SP: fd
f514	1c	ROR	A: 0	X: 0	Y: 0	SP: fd
f516	1d	ROR	A: 0	X: 0	Y: 0	SP: fd
f518	1e	ROR	A: 0	X: 0	Y: 0	SP: fd
f51a	1f	ROR	A: 0	X: 0	Y: 0	SP: fd
f51c	0	RTS	A: 0	X: 0	Y: 0	SP: fd
c7e4	c7e1	JMP	A: 0	X: 0	Y: 0	SP: ff
c7e1	f4fc	JSR	A: 0	X: 0	Y: 0	SP: ff
f4fc	18	LDA	A: 0	X: 0	Y: 0	SP: fd
f4fe	f4ff	AND	A: 0	X: 0	Y: 0	SP: fd
f500	0	STA	A: 0	X: 0	Y: 0	SP: fd
f502	19	LDA	A: 0	X: 0	Y: 0	SP: fd
f504	f505	AND	A: 0	X: 0	Y: 0	SP: fd
f506	0	EOR	A: 0	X: 0	Y: 0	SP: fd
f508	0	CLC	A: 0	X: 0	Y: 0	SP: fd
f509	f50c	BEQ	A: 0	X: 0	Y: 0	SP: fd
f50c	18	ROR	A: 0	X: 0	Y: 0	SP: fd
f50e	19	ROR	A: 0	X: 0	Y: 0	SP: fd
f510	1a	ROR	A: 0	X: 0	Y: 0	SP: fd
f512	1b	ROR	A: 0	X: 0	Y: 0	SP: fd
f514	1c	ROR	A: 0	X: 0	Y: 0	SP: fd
f516	1d	ROR	A: 0	X: 0	Y: 0	SP: fd
f518	1e	ROR	A: 0	X: 0	Y: 0	SP: fd
f51a	1f	ROR	A: 0	X: 0	Y: 0	SP: fd
f51c	0	RTS	A: 0	X: 0	Y: 0	SP: fd
c7e4	c7e1	JMP	A: 0	X: 0	Y: 0	SP: ff
c7e1	f4fc	JSR	A: 0	X: 0	Y: 0	SP: ff
f4fc	18	LDA	A: 0	X: 0	Y: 0	SP: fd
f4fe	f4ff	AND	A: 0	X: 0	Y: 0	SP: fd
f500	0	STA	A: 0	X: 0	Y: 0	SP: fd
f502	19	LDA	A: 0	X: 0	Y: 0	SP: fd
f504	f505	AND	A: 0	X: 0	Y: 0	SP: fd
f506	0	EOR	A: 0	X: 0	Y: 0	SP: fd
f508	0	CLC	A: 0	X: 0	Y: 0	SP: fd
f509	f50c	BEQ	A: 0	X: 0	Y: 0	SP: fd
f50c	18	ROR	A: 0	X: 0	Y: 0	SP: fd
f50e	19	ROR	A: 0	X: 0	Y: 0	SP: fd
f510	1a	ROR	A: 0	X: 0	Y: 0	SP: fd
f512	1b	ROR	A: 0	X: 0	Y: 0	SP: fd
f514	1c	ROR	A: 0	X: 0	Y: 0	SP: fd
f516	1d	ROR	A: 0	X: 0	Y: 0	SP: fd
f518	1e	ROR	A: 0	X: 0	Y: 0	SP: fd
f51a	1f	ROR	A: 0	X: 0	Y: 0	SP: fd
f51c	0	RTS	A: 0	X: 0	Y: 0	SP: fd
c7e4	c7e1	JMP	A: 0	X: 0	Y: 0	SP: ff
c7e1	f4fc	JSR	A: 0	X: 0	Y: 0	SP: ff
f4fc	18	LDA	A: 0	X: 0	Y: 0	SP: fd
f4fe	f4ff	AND	A: 0	X: 0	Y: 0	SP: fd
f500	0	STA	A: 0	X: 0	Y: 0	SP: fd
f502	19	LDA	A: 0	X: 0	Y: 0	SP: fd
f504	f505	AND	A: 0	X: 0	Y: 0	SP: fd
f506	0	EOR	A: 0	X: 0	Y: 0	SP: fd
f508	0	CLC	A: 0	X: 0	Y: 0	SP: fd
f509	f50c	BEQ	A: 0	X: 0	Y: 0	SP: fd
f50c	18	ROR	A: 0	X: 0	Y: 0	SP: fd
f50e	19	ROR	A: 0	X: 0	Y: 0	SP: fd
f510	1a	ROR	A: 0	X: 0	Y: 0	SP: fd
f512	1b	ROR	A: 0	X: 0	Y: 0	SP: fd
f514	1c	ROR	A: 0	X: 0	Y: 0	SP: fd
f516	1d	ROR	A: 0	X: 0	Y: 0	SP: fd
f518	1e	ROR	A: 0	X: 0	Y: 0	SP: fd
f51a	1f	ROR	A: 0	X: 0	Y: 0	SP: fd
f51c	0	RTS	A: 0	X: 0	Y: 0	SP: fd
c7e4	c7e1	JMP	A: 0	X: 0	Y: 0	SP: ff
c7e1	f4fc	JSR	A: 0	X: 0	Y: 0	SP: ff
f4fc	18	LDA	A: 0	X: 0	Y: 0	SP: fd
f4fe	f4ff	AND	A: 0	X: 0	Y: 0	SP: fd
f500	0	STA	A: 0	X: 0	Y: 0	SP: fd
f502	19	LDA	A: 0	X: 0	Y: 0	SP: fd
f504	f505	AND	A: 0	X: 0	Y: 0	SP: fd
f506	0	EOR	A: 0	X: 0	Y: 0	SP: fd
f508	0	CLC	A: 0	X: 0	Y: 0	SP: fd
f509	f50c	BEQ	A: 0	X: 0	Y: 0	SP: fd
f50c	18	ROR	A: 0	X: 0	Y: 0	SP: fd
f50e	19	ROR	A: 0	X: 0	Y: 0	SP: fd
f510	1a	ROR	A: 0	X: 0	Y: 0	SP: fd
f512	1b	ROR	A: 0	X: 0	Y: 0	SP: fd
f514	1c	ROR	A: 0	X: 0	Y: 0	SP: fd
f516	1d	ROR	A: 0	X: 0	Y: 0	SP: fd
f518	1e	ROR	A: 0	X: 0	Y: 0	SP: fd
f51a	1f	ROR	A: 0	X: 0	Y: 0	SP: fd
f51c	0	RTS	A: 0	X: 0	Y: 0	SP: fd
c7e4	c7e1	JMP	A: 0	X: 0	Y: 0	SP: ff
c7e1	f4fc	JSR	A: 0	X: 0	Y: 0	SP: ff
f4fc	18	LDA	A: 0	X: 0	Y: 0	SP: fd
f4fe	f4ff	AND	A: 0	X: 0	Y: 0	SP: fd
f500	0	STA	A: 0	X: 0	Y: 0	SP: fd
f502	19	LDA	A: 0	X: 0	Y: 0	SP: fd
f504	f505	AND	A: 0	X: 0	Y: 0	SP: fd
f506	0	EOR	A: 0	X: 0	Y: 0	SP: fd
f508	0	CLC	A: 0	X: 0	Y: 0	SP: fd
f509	f50c	BEQ	A: 0	X: 0	Y: 0	SP: fd
f50c	18	ROR	A: 0	X: 0	Y: 0	SP: fd
f50e	19	ROR	A: 0	X: 0	Y: 0	SP: fd
f510	1a	ROR	A: 0	X: 0	Y: 0	SP: fd
f512	1b	ROR	A: 0	X: 0	Y: 0	SP: fd
f514	1c	ROR	A: 0	X: 0	Y: 0	SP: fd
f516	1d	ROR	A: 0	X: 0	Y: 0	SP: fd
f518	1e	ROR	A: 0	X: 0	Y: 0	SP: fd
f51a	1f	ROR	A: 0	X: 0	Y: 0	SP: fd
f51c	0	RTS	A: 0	X: 0	Y: 0	SP: fd
c7e4	c7e1	JMP	A: 0	X: 0	Y: 0	SP: ff
c7e1	f4fc	JSR	A: 0	X: 0	Y: 0	SP: ff
f4fc	18	LDA	A: 0	X: 0	Y: 0	SP: fd
f4fe	f4ff	AND	A: 0	X: 0	Y: 0	SP: fd
f500	0	STA	A: 0	X: 0	Y: 0	SP: fd
f502	19	LDA	A: 0	X: 0	Y: 0	SP: fd
f504	f505	AND	A: 0	X: 0	Y: 0	SP: fd
f506	0	EOR	A: 0	X: 0	Y: 0	SP: fd
f508	0	CLC	A: 0	X: 0	Y: 0	SP: fd
f509	f50c	BEQ	A: 0	X: 0	Y: 0	SP: fd
f50c	18	ROR	A: 0	X: 0	Y: 0	SP: fd
f50e	19	ROR	A: 0	X: 0	Y: 0	SP: fd
f510	1a	ROR	A: 0	X: 0	Y: 0	SP: fd
f512	1b	ROR	A: 0	X: 0	Y: 0	SP: fd
f514	1c	ROR	A: 0	X: 0	Y: 0	SP: fd
f516	1d	ROR	A: 0	X: 0	Y: 0	SP: fd
f518	1e	ROR	A: 0	X: 0	Y: 0	SP: fd
f51a	1f	ROR	A: 0	X: 0	Y: 0	SP: fd
f51c	0	RTS	A: 0	X: 0	Y: 0	SP: fd
c7e4	c7e1	JMP	A: 0	X: 0	Y: 0	SP: ff
c7e1	f4fc	JSR	A: 0	X: 0	Y: 0	SP: ff
f4fc	18	LDA	A: 0	X: 0	Y: 0	SP: fd
f4fe	f4ff	AND	A: 0	X: 0	Y: 0	SP: fd
f500	0	STA	A: 0	X: 0	Y: 0	SP: fd
f502	19	LDA	A: 0	X: 0	Y: 0	SP: fd
f504	f505	AND	A: 0	X: 0	Y: 0	SP: fd
f506	0	EOR	A: 0	X: 0	Y: 0	SP: fd
f508	0	CLC	A: 0	X: 0	Y: 0	SP: fd
f509	f50c	BEQ	A: 0	X: 0	Y: 0	SP: fd
f50c	18	ROR	A: 0	X: 0	Y: 0	SP: fd
f50e	19	ROR	A: 0	X: 0	Y: 0	SP: fd
f510	1a	ROR	A: 0	X: 0	Y: 0	SP: fd
f512	1b	ROR	A: 0	X: 0	Y: 0	SP: fd
f514	1c	ROR	A: 0	X: 0	Y: 0	SP: fd
f516	1d	ROR	A: 0	X: 0	Y: 0	SP: fd
f518	1e	ROR	A: 0	X: 0	Y: 0	SP: fd
f51a	1f	ROR	A: 0	X: 0	Y: 0	SP: fd
f51c	0	RTS	A: 0	X: 0	Y: 0	SP: fd
c7e4	c7e1	JMP	A: 0	X: 0	Y: 0	SP: ff
c7e1	f4fc	JSR	A: 0	X: 0	Y: 0	SP: ff
f4fc	18	LDA	A: 0	X: 0	Y: 0	SP: fd
f4fe	f4ff	AND	A: 0	X: 0	Y: 0	SP: fd
f500	0	STA	A: 0	X: 0	Y: 0	SP: fd
f502	19	LDA	A: 0	X: 0	Y: 0	SP: fd
f504	f505	AND	A: 0	X: 0	Y: 0	SP: fd
f506	0	EOR	A: 0	X: 0	Y: 0	SP: fd
f508	0	CLC	A: 0	X: 0	Y: 0	SP: fd
f509	f50c	BEQ	A: 0	X: 0	Y: 0	SP: fd
f50c	18	ROR	A: 0	X: 0	Y: 0	SP: fd
f50e	19	ROR	A: 0	X: 0	Y: 0	SP: fd
f510	1a	ROR	A: 0	X: 0	Y: 0	SP: fd
f512	1b	ROR	A: 0	X: 0	Y: 0	SP: fd
f514	1c	ROR	A: 0	X: 0	Y: 0	SP: fd
f516	1d	ROR	A: 0	X: 0	Y: 0	SP: fd
f518	1e	ROR	A: 0	X: 0	Y: 0	SP: fd
f51a	1f	ROR	A: 0	X: 0	Y: 0	SP: fd
f51c	0	RTS	A: 0	X: 0	Y: 0	SP: fd
c7e4	c7e1	JMP	A: 0	X: 0	Y: 0	SP: ff
c7e1	f4fc	JSR	A: 0	X: 0	Y: 0	SP: ff
f4fc	18	LDA	A: 0	X: 0	Y: 0	SP: fd
f4fe	f4ff	AND	A: 0	X: 0	Y: 0	SP: fd
f500	0	STA	A: 0	X: 0	Y: 0	SP: fd
f502	19	LDA	A: 0	X: 0	Y: 0	SP: fd
f504	f505	AND	A: 0	X: 0	Y: 0	SP: fd
f506	0	EOR	A: 0	X: 0	Y: 0	SP: fd
f508	0	CLC	A: 0	X: 0	Y: 0	SP: fd
f509	f50c	BEQ	A: 0	X: 0	Y: 0	SP: fd
f50c	18	ROR	A: 0	X: 0	Y: 0	SP: fd
f50e	19	ROR	A: 0	X: 0	Y: 0	SP: fd
f510	1a	ROR	A: 0	X: 0	Y: 0	SP: fd
f512	1b	ROR	A: 0	X: 0	Y: 0	SP: fd
f514	1c	ROR	A: 0	X: 0	Y: 0	SP: fd
f516	1d	ROR	A: 0	X: 0	Y: 0	SP: fd
f518	1e	ROR	A: 0	X: 0	Y: 0	SP: fd
f51a	1f	ROR	A: 0	X: 0	Y: 0	SP: fd
f51c	0	RTS	A: 0	X: 0	Y: 0	SP: fd
c7e4	c7e1	JMP	A: 0	X: 0	Y: 0	SP: ff
c7e1	f4fc	JSR	A: 0	X: 0	Y: 0	SP: ff
f4fc	18	LDA	A: 0	X: 0	Y: 0	SP: fd
f4fe	f4ff	AND	A: 0	X: 0	Y: 0	SP: fd
f500	0	STA	A: 0	X: 0	Y: 0	SP: fd
f502	19	LDA	A: 0	X: 0	Y: 0	SP: fd
f504	f505	AND	A: 0	X: 0	Y: 0	SP: fd
f506	0	EOR	A: 0	X: 0	Y: 0	SP: fd
f508	0	CLC	A: 0	X: 0	Y: 0	SP: fd
f509	f50c	BEQ	A: 0	X: 0	Y: 0	SP: fd
f50c	18	ROR	A: 0	X: 0	Y: 0	SP: fd
f50e	19	ROR	A: 0	X: 0	Y: 0	SP: fd
f510	1a	ROR	A: 0	X: 0	Y: 0	SP: fd
f512	1b	ROR	A: 0	X: 0	Y: 0	SP: fd
f514	1c	ROR	A: 0	X: 0	Y: 0	SP: fd
f516	1d	ROR	A: 0	X: 0	Y: 0	SP: fd
f518	1e	ROR	A: 0	X: 0	Y: 0	SP: fd
f51a	1f	ROR	A: 0	X: 0	Y: 0	SP: fd
f51c	0	RTS	A: 0	X: 0	Y: 0	SP: fd
c7e4	c7e1	JMP	A: 0	X: 0	Y: 0	SP: ff
c7e1	f4fc	JSR	A: 0	X: 0	Y: 0	SP: ff
f4fc	18	LDA	A: 0	X: 0	Y: 0	SP: fd
f4fe	f4ff	AND	A: 0	X: 0	Y: 0	SP: fd
f500	0	STA	A: 0	X: 0	Y: 0	SP: fd
f502	19	LDA	A: 0	X: 0	Y: 0	SP: fd
f504	f505	AND	A: 0	X: 0	Y: 0	SP: fd
f506	0	EOR	A: 0	X: 0	Y: 0	SP: fd
f508	0	CLC	A: 0	X: 0	Y: 0	SP: fd
f509	f50c	BEQ	A: 0	X: 0	Y: 0	SP: fd
f50c	18	ROR	A: 0	X: 0	Y: 0	SP: fd
f50e	19	ROR	A: 0	X: 0	Y: 0	SP: fd
f510	1a	ROR	A: 0	X: 0	Y: 0	SP: fd
f512	1b	ROR	A: 0	X: 0	Y: 0	SP: fd
f514	1c	ROR	A: 0	X: 0	Y: 0	SP: fd
f516	1d	ROR	A: 0	X: 0	Y: 0	SP: fd
f518	1e	ROR	A: 0	X: 0	Y: 0	SP: fd
f51a	1f	ROR	A: 0	X: 0	Y: 0	SP: fd
f51c	0	RTS	A: 0	X: 0	Y: 0	SP: fd
c7e4	c7e1	JMP	A: 0	X: 0	Y: 0	SP: ff
c7e1	f4fc	JSR	A: 0	X: 0	Y: 0	SP: ff
f4fc	18	LDA	A: 0	X: 0	Y: 0	SP: fd
f4fe	f4ff	AND	A: 0	X: 0	Y: 0	SP: fd
f500	0	STA	A: 0	X: 0	Y: 0	SP: fd
f502	19	LDA	A: 0	X: 0	Y: 0	SP: fd
f504	f505	AND	A: 0	X: 0	Y: 0	SP: fd
f506	0	EOR	A: 0	X: 0	Y: 0	SP: fd
f508	0	CLC	A: 0	X: 0	Y: 0	SP: fd
f509	f50c	BEQ	A: 0	X: 0	Y: 0	SP: fd
f50c	18	ROR	A: 0	X: 0	Y: 0	SP: fd
f50e	19	ROR	A: 0	X: 0	Y: 0	SP: fd
f510	1a	ROR	A: 0	X: 0	Y: 0	SP: fd
f512	1b	ROR	A: 0	X: 0	Y: 0	SP: fd
f514	1c	ROR	A: 0	X: 0	Y: 0	SP: fd
f516	1d	ROR	A: 0	X: 0	Y: 0	SP: fd
f518	1e	ROR	A: 0	X: 0	Y: 0	SP: fd
f51a	1f	ROR	A: 0	X: 0	Y: 0	SP: fd
f51c	0	RTS	A: 0	X: 0	Y: 0	SP: fd
c7e4	c7e1	JMP	A: 0	X: 0	Y: 0	SP: ff
c7e1	f4fc	JSR	A: 0	X: 0	Y: 0	SP: ff
f4fc	18	LDA	A: 0	X: 0	Y: 0	SP: fd
f4fe	f4ff	AND	A: 0	X: 0	Y: 0	SP: fd
f500	0	STA	A: 0	X: 0	Y: 0	SP: fd
f502	19	LDA	A: 0	X: 0	Y: 0	SP: fd
f504	f505	AND	A: 0	X: 0	Y: 0	SP: fd
f506	0	EOR	A: 0	X: 0	Y: 0	SP: fd
f508	0	CLC	A: 0	X: 0	Y: 0	SP: fd
f509	f50c	BEQ	A: 0	X: 0	Y: 0	SP: fd
f50c	18	ROR	A: 0	X: 0	Y: 0	SP: fd
f50e	19	ROR	A: 0	X: 0	Y: 0	SP: fd
f510	1a	ROR	A: 0	X: 0	Y: 0	SP: fd
f512	1b	ROR	A: 0	X: 0	Y: 0	SP: fd
f514	1c	ROR	A: 0	X: 0	Y: 0	SP: fd
f516	1d	ROR	A: 0	X: 0	Y: 0	SP: fd
f518	1e	ROR	A: 0	X: 0	Y: 0	SP: fd
f51a	1f	ROR	A: 0	X: 0	Y: 0	SP: fd
f51c	0	RTS	A: 0	X: 0	Y: 0	SP: fd
c7e4	c7e1	JMP	A: 0	X: 0	Y: 0	SP: ff
c7e1	f4fc	JSR	A: 0	X: 0	Y: 0	SP: ff
f4fc	18	LDA	A: 0	X: 0	Y: 0	SP: fd
f4fe	f4ff	AND	A: 0	X: 0	Y: 0	SP: fd
f500	0	STA	A: 0	X: 0	Y: 0	SP: fd
f502	19	LDA	A: 0	X: 0	Y: 0	SP: fd
f504	f505	AND	A: 0	X: 0	Y: 0	SP: fd
f506	0	EOR	A: 0	X: 0	Y: 0	SP: fd
f508	0	CLC	A: 0	X: 0	Y: 0	SP: fd
f509	f50c	BEQ	A: 0	X: 0	Y: 0	SP: fd
f50c	18	ROR	A: 0	X: 0	Y: 0	SP: fd
f50e	19	ROR	A: 0	X: 0	Y: 0	SP: fd
f510	1a	ROR	A: 0	X: 0	Y: 0	SP: fd
f512	1b	ROR	A: 0	X: 0	Y: 0	SP: fd
f514	1c	ROR	A: 0	X: 0	Y: 0	SP: fd
f516	1d	ROR	A: 0	X: 0	Y: 0	SP: fd
f518	1e	ROR	A: 0	X: 0	Y: 0	SP: fd
f51a	1f	ROR	A: 0	X: 0	Y: 0	SP: fd
f51c	0	RTS	A: 0	X: 0	Y: 0	SP: fd
c7e4	c7e1	JMP	A: 0	X: 0	Y: 0	SP: ff
c7e1	f4fc	JSR	A: 0	X: 0	Y: 0	SP: ff
f4fc	18	LDA	A: 0	X: 0	Y: 0	SP: fd
f4fe	f4ff	AND	A: 0	X: 0	Y: 0	SP: fd
f500	0	STA	A: 0	X: 0	Y: 0	SP: fd
f502	19	LDA	A: 0	X: 0	Y: 0	SP: fd
f504	f505	AND	A: 0	X: 0	Y: 0	SP: fd
f506	0	EOR	A: 0	X: 0	Y: 0	SP: fd
f508	0	CLC	A: 0	X: 0	Y: 0	SP: fd
f509	f50c	BEQ	A: 0	X: 0	Y: 0	SP: fd
f50c	18	ROR	A: 0	X: 0	Y: 0	SP: fd
f50e	19	ROR	A: 0	X: 0	Y: 0	SP: fd
f510	1a	ROR	A: 0	X: 0	Y: 0	SP: fd
f512	1b	ROR	A: 0	X: 0	Y: 0	SP: fd
f514	1c	ROR	A: 0	X: 0	Y: 0	SP: fd
f516	1d	ROR	A: 0	X: 0	Y: 0	SP: fd
f518	1e	ROR	A: 0	X: 0	Y: 0	SP: fd
f51a	1f	ROR	A: 0	X: 0	Y: 0	SP: fd
f51c	0	RTS	A: 0	X: 0	Y: 0	SP: fd
c7e4	c7e1	JMP	A: 0	X: 0	Y: 0	SP: ff
c7e1	f4fc	JSR	A: 0	X: 0	Y: 0	SP: ff
f4fc	18	LDA	A: 0	X: 0	Y: 0	SP: fd
f4fe	f4ff	AND	A: 0	X: 0	Y: 0	SP: fd
f500	0	STA	A: 0	X: 0	Y: 0	SP: fd
f502	19	LDA	A: 0	X: 0	Y: 0	SP: fd
f504	f505	AND	A: 0	X: 0	Y: 0	SP: fd
f506	0	EOR	A: 0	X: 0	Y: 0	SP: fd
f508	0	CLC	A: 0	X: 0	Y: 0	SP: fd
f509	f50c	BEQ	A: 0	X: 0	Y: 0	SP: fd
f50c	18	ROR	A: 0	X: 0	Y: 0	SP: fd
f50e	19	ROR	A: 0	X: 0	Y: 0	SP: fd
f510	1a	ROR	A: 0	X: 0	Y: 0	SP: fd
f512	1b	ROR	A: 0	X: 0	Y: 0	SP: fd
f514	1c	ROR	A: 0	X: 0	Y: 0	SP: fd
f516	1d	ROR	A: 0	X: 0	Y: 0	SP: fd
f518	1e	ROR	A: 0	X: 0	Y: 0	SP: fd
f51a	1f	ROR	A: 0	X: 0	Y: 0	SP: fd
f51c	0	RTS	A: 0	X: 0	Y: 0	SP: fd
c7e4	c7e1	JMP	A: 0	X: 0	Y: 0	SP: ff
c7e1	f4fc	JSR	A: 0	X: 0	Y: 0	SP: ff
f4fc	18	LDA	A: 0	X: 0	Y: 0	SP: fd
f4fe	f4ff	AND	A: 0	X: 0	Y: 0	SP: fd
f500	0	STA	A: 0	X: 0	Y: 0	SP: fd
f502	19	LDA	A: 0	X: 0	Y: 0	SP: fd
f504	f505	AND	A: 0	X: 0	Y: 0	SP: fd
f506	0	EOR	A: 0	X: 0	Y: 0	SP: fd
f508	0	CLC	A: 0	X: 0	Y: 0	SP: fd
f509	f50c	BEQ	A: 0	X: 0	Y: 0	SP: fd
f50c	18	ROR	A: 0	X: 0	Y: 0	SP: fd
f50e	19	ROR	A: 0	X: 0	Y: 0	SP: fd
f510	1a	ROR	A: 0	X: 0	Y: 0	SP: fd
f512	1b	ROR	A: 0	X: 0	Y: 0	SP: fd
f514	1c	ROR	A: 0	X: 0	Y: 0	SP: fd
f516	1d	ROR	A: 0	X: 0	Y: 0	SP: fd
f518	1e	ROR	A: 0	X: 0	Y: 0	SP: fd
f51a	1f	ROR	A: 0	X: 0	Y: 0	SP: fd
f51c	0	RTS	A: 0	X: 0	Y: 0	SP: fd
c7e4	c7e1	JMP	A: 0	X: 0	Y: 0	SP: ff
c7e1	f4fc	JSR	A: 0	X: 0	Y: 0	SP: ff
f4fc	18	LDA	A: 0	X: 0	Y: 0	SP: fd
f4fe	f4ff	AND	A: 0	X: 0	Y: 0	SP: fd
f500	0	STA	A: 0	X: 0	Y: 0	SP: fd
f502	19	LDA	A: 0	X: 0	Y: 0	SP: fd
f504	f505	AND	A: 0	X: 0	Y: 0	SP: fd
f506	0	EOR	A: 0	X: 0	Y: 0	SP: fd
f508	0	CLC	A: 0	X: 0	Y: 0	SP: fd
f509	f50c	BEQ	A: 0	X: 0	Y: 0	SP: fd
f50c	18	ROR	A: 0	X: 0	Y: 0	SP: fd
f50e	19	ROR	A: 0	X: 0	Y: 0	SP: fd
f510	1a	ROR	A: 0	X: 0	Y: 0	SP: fd
f512	1b	ROR	A: 0	X: 0	Y: 0	SP: fd
f514	1c	ROR	A: 0	X: 0	Y: 0	SP: fd
f516	1d	ROR	A: 0	X: 0	Y: 0	SP: fd
f518	1e	ROR	A: 0	X: 0	Y: 0	SP: fd
f51a	1f	ROR	A: 0	X: 0	Y: 0	SP: fd
f51c	0	RTS	A: 0	X: 0	Y: 0	SP: fd
c7e4	c7e1	JMP	A: 0	X: 0	Y: 0	SP: ff
c7e1	f4fc	JSR	A: 0	X: 0	Y: 0	SP: ff
f4fc	18	LDA	A: 0	X: 0	Y: 0	SP: fd
f4fe	f4ff	AND	A: 0	X: 0	Y: 0	SP: fd
f500	0	STA	A: 0	X: 0	Y: 0	SP: fd
f502	19	LDA	A: 0	X: 0	Y: 0	SP: fd
f504	f505	AND	A: 0	X: 0	Y: 0	SP: fd
f506	0	EOR	A: 0	X: 0	Y: 0	SP: fd
f508	0	CLC	A: 0	X: 0	Y: 0	SP: fd
f509	f50c	BEQ	A: 0	X: 0	Y: 0	SP: fd
f50c	18	ROR	A: 0	X: 0	Y: 0	SP: fd
f50e	19	ROR	A: 0	X: 0	Y: 0	SP: fd
f510	1a	ROR	A: 0	X: 0	Y: 0	SP: fd
f512	1b	ROR	A: 0	X: 0	Y: 0	SP: fd
f514	1c	ROR	A: 0	X: 0	Y: 0	SP: fd
f516	1d	ROR	A: 0	X: 0	Y: 0	SP: fd
f518	1e	ROR	A: 0	X: 0	Y: 0	SP: fd
f51a	1f	ROR	A: 0	X: 0	Y: 0	SP: fd
f51c	0	RTS	A: 0	X: 0	Y: 0	SP: fd
c7e4	c7e1	JMP	A: 0	X: 0	Y: 0	SP: ff
c7e1	f4fc	JSR	A: 0	X: 0	Y: 0	SP: ff
f4fc	18	LDA	A: 0	X: 0	Y: 0	SP: fd
f4fe	f4ff	AND	A: 0	X: 0	Y: 0	SP: fd
f500	0	STA	A: 0	X: 0	Y: 0	SP: fd
f502	19	LDA	A: 0	X: 0	Y: 0	SP: fd
f504	f505	AND	A: 0	X: 0	Y: 0	SP: fd
f506	0	EOR	A: 0	X: 0	Y: 0	SP: fd
f508	0	CLC	A: 0	X: 0	Y: 0	SP: fd
f509	f50c	BEQ	A: 0	X: 0	Y: 0	SP: fd
f50c	18	ROR	A: 0	X: 0	Y: 0	SP: fd
f50e	19	ROR	A: 0	X: 0	Y: 0	SP: fd
f510	1a	ROR	A: 0	X: 0	Y: 0	SP: fd
f512	1b	ROR	A: 0	X: 0	Y: 0	SP: fd
f514	1c	ROR	A: 0	X: 0	Y: 0	SP: fd
f516	1d	ROR	A: 0	X: 0	Y: 0	SP: fd
f518	1e	ROR	A: 0	X: 0	Y: 0	SP: fd
f51a	1f	ROR	A: 0	X: 0	Y: 0	SP: fd
f51c	0	RTS	A: 0	X: 0	Y: 0	SP: fd
c7e4	c7e1	JMP	A: 0	X: 0	Y: 0	SP: ff
c7e1	f4fc	JSR	A: 0	X: 0	Y: 0	SP: ff
f4fc	18	LDA	A: 0	X: 0	Y: 0	SP: fd
f4fe	f4ff	AND	A: 0	X: 0	Y: 0	SP: fd
f500	0	STA	A: 0	X: 0	Y: 0	SP: fd
f502	19	LDA	A: 0	X: 0	Y: 0	SP: fd
f504	f505	AND	A: 0	X: 0	Y: 0	SP: fd
f506	0	EOR	A: 0	X: 0	Y: 0	SP: fd
f508	0	CLC	A: 0	X: 0	Y: 0	SP: fd
f509	f50c	BEQ	A: 0	X: 0	Y: 0	SP: fd
f50c	18	ROR	A: 0	X: 0	Y: 0	SP: fd
f50e	19	ROR	A: 0	X: 0	Y: 0	SP: fd
f510	1a	ROR	A: 0	X: 0	Y: 0	SP: fd
f512	1b	ROR	A: 0	X: 0	Y: 0	SP: fd
f514	1c	ROR	A: 0	X: 0	Y: 0	SP: fd
f516	1d	ROR	A: 0	X: 0	Y: 0	SP: fd
f518	1e	ROR	A: 0	X: 0	Y: 0	SP: fd
f51a	1f	ROR	A: 0	X: 0	Y: 0	SP: fd
f51c	0	RTS	A: 0	X: 0	Y: 0	SP: fd
c7e4	c7e1	JMP	A: 0	X: 0	Y: 0	SP: ff
c7e1	f4fc	JSR	A: 0	X: 0	Y: 0	SP: ff
f4fc	18	LDA	A: 0	X: 0	Y: 0	SP: fd
f4fe	f4ff	AND	A: 0	X: 0	Y: 0	SP: fd
f500	0	STA	A: 0	X: 0	Y: 0	SP: fd
f502	19	LDA	A: 0	X: 0	Y: 0	SP: fd
f504	f505	AND	A: 0	X: 0	Y: 0	SP: fd
f506	0	EOR	A: 0	X: 0	Y: 0	SP: fd
f508	0	CLC	A: 0	X: 0	Y: 0	SP: fd
f509	f50c	BEQ	A: 0	X: 0	Y: 0	SP: fd
f50c	18	ROR	A: 0	X: 0	Y: 0	SP: fd
f50e	19	ROR	A: 0	X: 0	Y: 0	SP: fd
f510	1a	ROR	A: 0	X: 0	Y: 0	SP: fd
f512	1b	ROR	A: 0	X: 0	Y: 0	SP: fd
f514	1c	ROR	A: 0	X: 0	Y: 0	SP: fd
f516	1d	ROR	A: 0	X: 0	Y: 0	SP: fd
f518	1e	ROR	A: 0	X: 0	Y: 0	SP: fd
f51a	1f	ROR	A: 0	X: 0	Y: 0	SP: fd
f51c	0	RTS	A: 0	X: 0	Y: 0	SP: fd
c7e4	c7e1	JMP	A: 0	X: 0	Y: 0	SP: ff
c7e1	f4fc	JSR	A: 0	X: 0	Y: 0	SP: ff
f4fc	18	LDA	A: 0	X: 0	Y: 0	SP: fd
f4fe	f4ff	AND	A: 0	X: 0	Y: 0	SP: fd
f500	0	STA	A: 0	X: 0	Y: 0	SP: fd
f502	19	LDA	A: 0	X: 0	Y: 0	SP: fd
f504	f505	AND	A: 0	X: 0	Y: 0	SP: fd
f506	0	EOR	A: 0	X: 0	Y: 0	SP: fd
f508	0	CLC	A: 0	X: 0	Y: 0	SP: fd
f509	f50c	BEQ	A: 0	X: 0	Y: 0	SP: fd
f50c	18	ROR	A: 0	X: 0	Y: 0	SP: fd
f50e	19	ROR	A: 0	X: 0	Y: 0	SP: fd
f510	1a	ROR	A: 0	X: 0	Y: 0	SP: fd
f512	1b	ROR	A: 0	X: 0	Y: 0	SP: fd
f514	1c	ROR	A: 0	X: 0	Y: 0	SP: fd
f516	1d	ROR	A: 0	X: 0	Y: 0	SP: fd
f518	1e	ROR	A: 0	X: 0	Y: 0	SP: fd
f51a	1f	ROR	A: 0	X: 0	Y: 0	SP: fd
f51c	0	RTS	A: 0	X: 0	Y: 0	SP: fd
c7e4	c7e1	JMP	A: 0	X: 0	Y: 0	SP: ff
c7e1	f4fc	JSR	A: 0	X: 0	Y: 0	SP: ff
f4fc	18	LDA	A: 0	X: 0	Y: 0	SP: fd
f4fe	f4ff	AND	A: 0	X: 0	Y: 0	SP: fd
f500	0	STA	A: 0	X: 0	Y: 0	SP: fd
f502	19	LDA	A: 0	X: 0	Y: 0	SP: fd
f504	f505	AND	A: 0	X: 0	Y: 0	SP: fd
f506	0	EOR	A: 0	X: 0	Y: 0	SP: fd
f508	0	CLC	A: 0	X: 0	Y: 0	SP: fd
f509	f50c	BEQ	A: 0	X: 0	Y: 0	SP: fd
f50c	18	ROR	A: 0	X: 0	Y: 0	SP: fd
f50e	19	ROR	A: 0	X: 0	Y: 0	SP: fd
f510	1a	ROR	A: 0	X: 0	Y: 0	SP: fd
f512	1b	ROR	A: 0	X: 0	Y: 0	SP: fd
f514	1c	ROR	A: 0	X: 0	Y: 0	SP: fd
f516	1d	ROR	A: 0	X: 0	Y: 0	SP: fd
f518	1e	ROR	A: 0	X: 0	Y: 0	SP: fd
f51a	1f	ROR	A: 0	X: 0	Y: 0	SP: fd
f51c	0	RTS	A: 0	X: 0	Y: 0	SP: fd
c7e4	c7e1	JMP	A: 0	X: 0	Y: 0	SP: ff
c7e1	f4fc	JSR	A: 0	X: 0	Y: 0	SP: ff
f4fc	18	LDA	A: 0	X: 0	Y: 0	SP: fd
f4fe	f4ff	AND	A: 0	X: 0	Y: 0	SP: fd
f500	0	STA	A: 0	X: 0	Y: 0	SP: fd
f502	19	LDA	A: 0	X: 0	Y: 0	SP: fd
f504	f505	AND	A: 0	X: 0	Y: 0	SP: fd
f506	0	EOR	A: 0	X: 0	Y: 0	SP: fd
f508	0	CLC	A: 0	X: 0	Y: 0	SP: fd
f509	f50c	BEQ	A: 0	X: 0	Y: 0	SP: fd
f50c	18	ROR	A: 0	X: 0	Y: 0	SP: fd
f50e	19	ROR	A: 0	X: 0	Y: 0	SP: fd
f510	1a	ROR	A: 0	X: 0	Y: 0	SP: fd
f512	1b	ROR	A: 0	X: 0	Y: 0	SP: fd
f514	1c	ROR	A: 0	X: 0	Y: 0	SP: fd
f516	1d	ROR	A: 0	X: 0	Y: 0	SP: fd
f518	1e	ROR	A: 0	X: 0	Y: 0	SP: fd
f51a	1f	ROR	A: 0	X: 0	Y: 0	SP: fd
f51c	0	RTS	A: 0	X: 0	Y: 0	SP: fd
c7e4	c7e1	JMP	A: 0	X: 0	Y: 0	SP: ff
c7e1	f4fc	JSR	A: 0	X: 0	Y: 0	SP: ff
f4fc	18	LDA	A: 0	X: 0	Y: 0	SP: fd
f4fe	f4ff	AND	A: 0	X: 0	Y: 0	SP: fd
f500	0	STA	A: 0	X: 0	Y: 0	SP: fd
f502	19	LDA	A: 0	X: 0	Y: 0	SP: fd
f504	f505	AND	A: 0	X: 0	Y: 0	SP: fd
f506	0	EOR	A: 0	X: 0	Y: 0	SP: fd
f508	0	CLC	A: 0	X: 0	Y: 0	SP: fd
f509	f50c	BEQ	A: 0	X: 0	Y: 0	SP: fd
f50c	18	ROR	A: 0	X: 0	Y: 0	SP: fd
f50e	19	ROR	A: 0	X: 0	Y: 0	SP: fd
f510	1a	ROR	A: 0	X: 0	Y: 0	SP: fd
f512	1b	ROR	A: 0	X: 0	Y: 0	SP: fd
f514	1c	ROR	A: 0	X: 0	Y: 0	SP: fd
f516	1d	ROR	A: 0	X: 0	Y: 0	SP: fd
f518	1e	ROR	A: 0	X: 0	Y: 0	SP: fd
f51a	1f	ROR	A: 0	X: 0	Y: 0	SP: fd
f51c	0	RTS	A: 0	X: 0	Y: 0	SP: fd
c7e4	c7e1	JMP	A: 0	X: 0	Y: 0	SP: ff
c7e1	f4fc	JSR	A: 0	X: 0	Y: 0	SP: ff
f4fc	18	LDA	A: 0	X: 0	Y: 0	SP: fd
f4fe	f4ff	AND	A: 0	X: 0	Y: 0	SP: fd
f500	0	STA	A: 0	X: 0	Y: 0	SP: fd
f502	19	LDA	A: 0	X: 0	Y: 0	SP: fd
f504	f505	AND	A: 0	X: 0	Y: 0	SP: fd
f506	0	EOR	A: 0	X: 0	Y: 0	SP: fd
f508	0	CLC	A: 0	X: 0	Y: 0	SP: fd
f509	f50c	BEQ	A: 0	X: 0	Y: 0	SP: fd
f50c	18	ROR	A: 0	X: 0	Y: 0	SP: fd
f50e	19	ROR	A: 0	X: 0	Y: 0	SP: fd
f510	1a	ROR	A: 0	X: 0	Y: 0	SP: fd
f512	1b	ROR	A: 0	X: 0	Y: 0	SP: fd
f514	1c	ROR	A: 0	X: 0	Y: 0	SP: fd
f516	1d	ROR	A: 0	X: 0	Y: 0	SP: fd
f518	1e	ROR	A: 0	X: 0	Y: 0	SP: fd
f51a	1f	ROR	A: 0	X: 0	Y: 0	SP: fd
f51c	0	RTS	A: 0	X: 0	Y: 0	SP: fd
c7e4	c7e1	JMP	A: 0	X: 0	Y: 0	SP: ff
c7e1	f4fc	JSR	A: 0	X: 0	Y: 0	SP: ff
f4fc	18	LDA	A: 0	X: 0	Y: 0	SP: fd
f4fe	f4ff	AND	A: 0	X: 0	Y: 0	SP: fd
f500	0	STA	A: 0	X: 0	Y: 0	SP: fd
f502	19	LDA	A: 0	X: 0	Y: 0	SP: fd
f504	f505	AND	A: 0	X: 0	Y: 0	SP: fd
f506	0	EOR	A: 0	X: 0	Y: 0	SP: fd
f508	0	CLC	A: 0	X: 0	Y: 0	SP: fd
f509	f50c	BEQ	A: 0	X: 0	Y: 0	SP: fd
f50c	18	ROR	A: 0	X: 0	Y: 0	SP: fd
f50e	19	ROR	A: 0	X: 0	Y: 0	SP: fd
f510	1a	ROR	A: 0	X: 0	Y: 0	SP: fd
f512	1b	ROR	A: 0	X: 0	Y: 0	SP: fd
f514	1c	ROR	A: 0	X: 0	Y: 0	SP: fd
f516	1d	ROR	A: 0	X: 0	Y: 0	SP: fd
f518	1e	ROR	A: 0	X: 0	Y: 0	SP: fd
f51a	1f	ROR	A: 0	X: 0	Y: 0	SP: fd
f51c	0	RTS	A: 0	X: 0	Y: 0	SP: fd
c7e4	c7e1	JMP	A: 0	X: 0	Y: 0	SP: ff
c7e1	f4fc	JSR	A: 0	X: 0	Y: 0	SP: ff
f4fc	18	LDA	A: 0	X: 0	Y: 0	SP: fd
f4fe	f4ff	AND	A: 0	X: 0	Y: 0	SP: fd
f500	0	STA	A: 0	X: 0	Y: 0	SP: fd
f502	19	LDA	A: 0	X: 0	Y: 0	SP: fd
f504	f505	AND	A: 0	X: 0	Y: 0	SP: fd
f506	0	EOR	A: 0	X: 0	Y: 0	SP: fd
f508	0	CLC	A: 0	X: 0	Y: 0	SP: fd
f509	f50c	BEQ	A: 0	X: 0	Y: 0	SP: fd
f50c	18	ROR	A: 0	X: 0	Y: 0	SP: fd
f50e	19	ROR	A: 0	X: 0	Y: 0	SP: fd
f510	1a	ROR	A: 0	X: 0	Y: 0	SP: fd
f512	1b	ROR	A: 0	X: 0	Y: 0	SP: fd
f514	1c	ROR	A: 0	X: 0	Y: 0	SP: fd
f516	1d	ROR	A: 0	X: 0	Y: 0	SP: fd
f518	1e	ROR	A: 0	X: 0	Y: 0	SP: fd
f51a	1f	ROR	A: 0	X: 0	Y: 0	SP: fd
f51c	0	RTS	A: 0	X: 0	Y: 0	SP: fd
c7e4	c7e1	JMP	A: 0	X: 0	Y: 0	SP: ff
c7e1	f4fc	JSR	A: 0	X: 0	Y: 0	SP: ff
f4fc	18	LDA	A: 0	X: 0	Y: 0	SP: fd
f4fe	f4ff	AND	A: 0	X: 0	Y: 0	SP: fd
f500	0	STA	A: 0	X: 0	Y: 0	SP: fd
f502	19	LDA	A: 0	X: 0	Y: 0	SP: fd
f504	f505	AND	A: 0	X: 0	Y: 0	SP: fd
f506	0	EOR	A: 0	X: 0	Y: 0	SP: fd
f508	0	CLC	A: 0	X: 0	Y: 0	SP: fd
f509	f50c	BEQ	A: 0	X: 0	Y: 0	SP: fd
f50c	18	ROR	A: 0	X: 0	Y: 0	SP: fd
f50e	19	ROR	A: 0	X: 0	Y: 0	SP: fd
f510	1a	ROR	A: 0	X: 0	Y: 0	SP: fd
f512	1b	ROR	A: 0	X: 0	Y: 0	SP: fd
f514	1c	ROR	A: 0	X: 0	Y: 0	SP: fd
f516	1d	ROR	A: 0	X: 0	Y: 0	SP: fd
f518	1e	ROR	A: 0	X: 0	Y: 0	SP: fd
f51a	1f	ROR	A: 0	X: 0	Y: 0	SP: fd
f51c	0	RTS	A: 0	X: 0	Y: 0	SP: fd
c7e4	c7e1	JMP	A: 0	X: 0	Y: 0	SP: ff
c7e1	f4fc	JSR	A: 0	X: 0	Y: 0	SP: ff
f4fc	18	LDA	A: 0	X: 0	Y: 0	SP: fd
f4fe	f4ff	AND	A: 0	X: 0	Y: 0	SP: fd
f500	0	STA	A: 0	X: 0	Y: 0	SP: fd
f502	19	LDA	A: 0	X: 0	Y: 0	SP: fd
f504	f505	AND	A: 0	X: 0	Y: 0	SP: fd
f506	0	EOR	A: 0	X: 0	Y: 0	SP: fd
f508	0	CLC	A: 0	X: 0	Y: 0	SP: fd
f509	f50c	BEQ	A: 0	X: 0	Y: 0	SP: fd
f50c	18	ROR	A: 0	X: 0	Y: 0	SP: fd
f50e	19	ROR	A: 0	X: 0	Y: 0	SP: fd
f510	1a	ROR	A: 0	X: 0	Y: 0	SP: fd
f512	1b	ROR	A: 0	X: 0	Y: 0	SP: fd
f514	1c	ROR	A: 0	X: 0	Y: 0	SP: fd
f516	1d	ROR	A: 0	X: 0	Y: 0	SP: fd
f518	1e	ROR	A: 0	X: 0	Y: 0	SP: fd
f51a	1f	ROR	A: 0	X: 0	Y: 0	SP: fd
f51c	0	RTS	A: 0	X: 0	Y: 0	SP: fd
c7e4	c7e1	JMP	A: 0	X: 0	Y: 0	SP: ff
c7e1	f4fc	JSR	A: 0	X: 0	Y: 0	SP: ff
f4fc	18	LDA	A: 0	X: 0	Y: 0	SP: fd
f4fe	f4ff	AND	A: 0	X: 0	Y: 0	SP: fd
f500	0	STA	A: 0	X: 0	Y: 0	SP: fd
f502	19	LDA	A: 0	X: 0	Y: 0	SP: fd
f504	f505	AND	A: 0	X: 0	Y: 0	SP: fd
f506	0	EOR	A: 0	X: 0	Y: 0	SP: fd
f508	0	CLC	A: 0	X: 0	Y: 0	SP: fd
f509	f50c	BEQ	A: 0	X: 0	Y: 0	SP: fd
f50c	18	ROR	A: 0	X: 0	Y: 0	SP: fd
f50e	19	ROR	A: 0	X: 0	Y: 0	SP: fd
f510	1a	ROR	A: 0	X: 0	Y: 0	SP: fd
f512	1b	ROR	A: 0	X: 0	Y: 0	SP: fd
f514	1c	ROR	A: 0	X: 0	Y: 0	SP: fd
f516	1d	ROR	A: 0	X: 0	Y: 0	SP: fd
f518	1e	ROR	A: 0	X: 0	Y: 0	SP: fd
f51a	1f	ROR	A: 0	X: 0	Y: 0	SP: fd
f51c	0	RTS	A: 0	X: 0	Y: 0	SP: fd
c7e4	c7e1	JMP	A: 0	X: 0	Y: 0	SP: ff
c7e1	f4fc	JSR	A: 0	X: 0	Y: 0	SP: ff
f4fc	18	LDA	A: 0	X: 0	Y: 0	SP: fd
f4fe	f4ff	AND	A: 0	X: 0	Y: 0	SP: fd
f500	0	STA	A: 0	X: 0	Y: 0	SP: fd
f502	19	LDA	A: 0	X: 0	Y: 0	SP: fd
f504	f505	AND	A: 0	X: 0	Y: 0	SP: fd
f506	0	EOR	A: 0	X: 0	Y: 0	SP: fd
f508	0	CLC	A: 0	X: 0	Y: 0	SP: fd
f509	f50c	BEQ	A: 0	X: 0	Y: 0	SP: fd
f50c	18	ROR	A: 0	X: 0	Y: 0	SP: fd
f50e	19	ROR	A: 0	X: 0	Y: 0	SP: fd
f510	1a	ROR	A: 0	X: 0	Y: 0	SP: fd
f512	1b	ROR	A: 0	X: 0	Y: 0	SP: fd
f514	1c	ROR	A: 0	X: 0	Y: 0	SP: fd
f516	1d	ROR	A: 0	X: 0	Y: 0	SP: fd
f518	1e	ROR	A: 0	X: 0	Y: 0	SP: fd
f51a	1f	ROR	A: 0	X: 0	Y: 0	SP: fd
f51c	0	RTS	A: 0	X: 0	Y: 0	SP: fd
c7e4	c7e1	JMP	A: 0	X: 0	Y: 0	SP: ff
c7e1	f4fc	JSR	A: 0	X: 0	Y: 0	SP: ff
f4fc	18	LDA	A: 0	X: 0	Y: 0	SP: fd
f4fe	f4ff	AND	A: 0	X: 0	Y: 0	SP: fd
f500	0	STA	A: 0	X: 0	Y: 0	SP: fd
f502	19	LDA	A: 0	X: 0	Y: 0	SP: fd
f504	f505	AND	A: 0	X: 0	Y: 0	SP: fd
f506	0	EOR	A: 0	X: 0	Y: 0	SP: fd
f508	0	CLC	A: 0	X: 0	Y: 0	SP: fd
f509	f50c	BEQ	A: 0	X: 0	Y: 0	SP: fd
f50c	18	ROR	A: 0	X: 0	Y: 0	SP: fd
f50e	19	ROR	A: 0	X: 0	Y: 0	SP: fd
f510	1a	ROR	A: 0	X: 0	Y: 0	SP: fd
f512	1b	ROR	A: 0	X: 0	Y: 0	SP: fd
f514	1c	ROR	A: 0	X: 0	Y: 0	SP: fd
f516	1d	ROR	A: 0	X: 0	Y: 0	SP: fd
f518	1e	ROR	A: 0	X: 0	Y: 0	SP: fd
f51a	1f	ROR	A: 0	X: 0	Y: 0	SP: fd
f51c	0	RTS	A: 0	X: 0	Y: 0	SP: fd
c7e4	c7e1	JMP	A: 0	X: 0	Y: 0	SP: ff
c7e1	f4fc	JSR	A: 0	X: 0	Y: 0	SP: ff
f4fc	18	LDA	A: 0	X: 0	Y: 0	SP: fd
f4fe	f4ff	AND	A: 0	X: 0	Y: 0	SP: fd
f500	0	STA	A: 0	X: 0	Y: 0	SP: fd
f502	19	LDA	A: 0	X: 0	Y: 0	SP: fd
f504	f505	AND	A: 0	X: 0	Y: 0	SP: fd
f506	0	EOR	A: 0	X: 0	Y: 0	SP: fd
f508	0	CLC	A: 0	X: 0	Y: 0	SP: fd
f509	f50c	BEQ	A: 0	X: 0	Y: 0	SP: fd
f50c	18	ROR	A: 0	X: 0	Y: 0	SP: fd
f50e	19	ROR	A: 0	X: 0	Y: 0	SP: fd
f510	1a	ROR	A: 0	X: 0	Y: 0	SP: fd
f512	1b	ROR	A: 0	X: 0	Y: 0	SP: fd
f514	1c	ROR	A: 0	X: 0	Y: 0	SP: fd
f516	1d	ROR	A: 0	X: 0	Y: 0	SP: fd
f518	1e	ROR	A: 0	X: 0	Y: 0	SP: fd
f51a	1f	ROR	A: 0	X: 0	Y: 0	SP: fd
f51c	0	RTS	A: 0	X: 0	Y: 0	SP: fd
c7e4	c7e1	JMP	A: 0	X: 0	Y: 0	SP: ff
c7e1	f4fc	JSR	A: 0	X: 0	Y: 0	SP: ff
f4fc	18	LDA	A: 0	X: 0	Y: 0	SP: fd
f4fe	f4ff	AND	A: 0	X: 0	Y: 0	SP: fd
f500	0	STA	A: 0	X: 0	Y: 0	SP: fd
f502	19	LDA	A: 0	X: 0	Y: 0	SP: fd
f504	f505	AND	A: 0	X: 0	Y: 0	SP: fd
f506	0	EOR	A: 0	X: 0	Y: 0	SP: fd
f508	0	CLC	A: 0	X: 0	Y: 0	SP: fd
f509	f50c	BEQ	A: 0	X: 0	Y: 0	SP: fd
f50c	18	ROR	A: 0	X: 0	Y: 0	SP: fd
f50e	19	ROR	A: 0	X: 0	Y: 0	SP: fd
f510	1a	ROR	A: 0	X: 0	Y: 0	SP: fd
f512	1b	ROR	A: 0	X: 0	Y: 0	SP: fd
f514	1c	ROR	A: 0	X: 0	Y: 0	SP: fd
f516	1d	ROR	A: 0	X: 0	Y: 0	SP: fd
f518	1e	ROR	A: 0	X: 0	Y: 0	SP: fd
f51a	1f	ROR	A: 0	X: 0	Y: 0	SP: fd
f51c	0	RTS	A: 0	X: 0	Y: 0	SP: fd
c7e4	c7e1	JMP	A: 0	X: 0	Y: 0	SP: ff
c7e1	f4fc	JSR	A: 0	X: 0	Y: 0	SP: ff
f4fc	18	LDA	A: 0	X: 0	Y: 0	SP: fd
f4fe	f4ff	AND	A: 0	X: 0	Y: 0	SP: fd
f500	0	STA	A: 0	X: 0	Y: 0	SP: fd
f502	19	LDA	A: 0	X: 0	Y: 0	SP: fd
f504	f505	AND	A: 0	X: 0	Y: 0	SP: fd
f506	0	EOR	A: 0	X: 0	Y: 0	SP: fd
f508	0	CLC	A: 0	X: 0	Y: 0	SP: fd
f509	f50c	BEQ	A: 0	X: 0	Y: 0	SP: fd
f50c	18	ROR	A: 0	X: 0	Y: 0	SP: fd
f50e	19	ROR	A: 0	X: 0	Y: 0	SP: fd
f510	1a	ROR	A: 0	X: 0	Y: 0	SP: fd
f512	1b	ROR	A: 0	X: 0	Y: 0	SP: fd
f514	1c	ROR	A: 0	X: 0	Y: 0	SP: fd
f516	1d	ROR	A: 0	X: 0	Y: 0	SP: fd
f518	1e	ROR	A: 0	X: 0	Y: 0	SP: fd
f51a	1f	ROR	A: 0	X: 0	Y: 0	SP: fd
f51c	0	RTS	A: 0	X: 0	Y: 0	SP: fd
c7e4	c7e1	JMP	A: 0	X: 0	Y: 0	SP: ff
c7e1	f4fc	JSR	A: 0	X: 0	Y: 0	SP: ff
f4fc	18	LDA	A: 0	X: 0	Y: 0	SP: fd
f4fe	f4ff	AND	A: 0	X: 0	Y: 0	SP: fd
f500	0	STA	A: 0	X: 0	Y: 0	SP: fd
f502	19	LDA	A: 0	X: 0	Y: 0	SP: fd
f504	f505	AND	A: 0	X: 0	Y: 0	SP: fd
f506	0	EOR	A: 0	X: 0	Y: 0	SP: fd
f508	0	CLC	A: 0	X: 0	Y: 0	SP: fd
f509	f50c	BEQ	A: 0	X: 0	Y: 0	SP: fd
f50c	18	ROR	A: 0	X: 0	Y: 0	SP: fd
f50e	19	ROR	A: 0	X: 0	Y: 0	SP: fd
f510	1a	ROR	A: 0	X: 0	Y: 0	SP: fd
f512	1b	ROR	A: 0	X: 0	Y: 0	SP: fd
f514	1c	ROR	A: 0	X: 0	Y: 0	SP: fd
f516	1d	ROR	A: 0	X: 0	Y: 0	SP: fd
f518	1e	ROR	A: 0	X: 0	Y: 0	SP: fd
f51a	1f	ROR	A: 0	X: 0	Y: 0	SP: fd
f51c	0	RTS	A: 0	X: 0	Y: 0	SP: fd
c7e4	c7e1	JMP	A: 0	X: 0	Y: 0	SP: ff
c7e1	f4fc	JSR	A: 0	X: 0	Y: 0	SP: ff
f4fc	18	LDA	A: 0	X: 0	Y: 0	SP: fd
f4fe	f4ff	AND	A: 0	X: 0	Y: 0	SP: fd
f500	0	STA	A: 0	X: 0	Y: 0	SP: fd
f502	19	LDA	A: 0	X: 0	Y: 0	SP: fd
f504	f505	AND	A: 0	X: 0	Y: 0	SP: fd
f506	0	EOR	A: 0	X: 0	Y: 0	SP: fd
f508	0	CLC	A: 0	X: 0	Y: 0	SP: fd
f509	f50c	BEQ	A: 0	X: 0	Y: 0	SP: fd
f50c	18	ROR	A: 0	X: 0	Y: 0	SP: fd
f50e	19	ROR	A: 0	X: 0	Y: 0	SP: fd
f510	1a	ROR	A: 0	X: 0	Y: 0	SP: fd
f512	1b	ROR	A: 0	X: 0	Y: 0	SP: fd
f514	1c	ROR	A: 0	X: 0	Y: 0	SP: fd
f516	1d	ROR	A: 0	X: 0	Y: 0	SP: fd
f518	1e	ROR	A: 0	X: 0	Y: 0	SP: fd
f51a	1f	ROR	A: 0	X: 0	Y: 0	SP: fd
f51c	0	RTS	A: 0	X: 0	Y: 0	SP: fd
c7e4	c7e1	JMP	A: 0	X: 0	Y: 0	SP: ff
c7e1	f4fc	JSR	A: 0	X: 0	Y: 0	SP: ff
f4fc	18	LDA	A: 0	X: 0	Y: 0	SP: fd
f4fe	f4ff	AND	A: 0	X: 0	Y: 0	SP: fd
f500	0	STA	A: 0	X: 0	Y: 0	SP: fd
f502	19	LDA	A: 0	X: 0	Y: 0	SP: fd
f504	f505	AND	A: 0	X: 0	Y: 0	SP: fd
f506	0	EOR	A: 0	X: 0	Y: 0	SP: fd
f508	0	CLC	A: 0	X: 0	Y: 0	SP: fd
f509	f50c	BEQ	A: 0	X: 0	Y: 0	SP: fd
f50c	18	ROR	A: 0	X: 0	Y: 0	SP: fd
f50e	19	ROR	A: 0	X: 0	Y: 0	SP: fd
f510	1a	ROR	A: 0	X: 0	Y: 0	SP: fd
f512	1b	ROR	A: 0	X: 0	Y: 0	SP: fd
f514	1c	ROR	A: 0	X: 0	Y: 0	SP: fd
f516	1d	ROR	A: 0	X: 0	Y: 0	SP: fd
f518	1e	ROR	A: 0	X: 0	Y: 0	SP: fd
f51a	1f	ROR	A: 0	X: 0	Y: 0	SP: fd
f51c	0	RTS	A: 0	X: 0	Y: 0	SP: fd
c7e4	c7e1	JMP	A: 0	X: 0	Y: 0	SP: ff
c7e1	f4fc	JSR	A: 0	X: 0	Y: 0	SP: ff
f4fc	18	LDA	A: 0	X: 0	Y: 0	SP: fd
f4fe	f4ff	AND	A: 0	X: 0	Y: 0	SP: fd
f500	0	STA	A: 0	X: 0	Y: 0	SP: fd
f502	19	LDA	A: 0	X: 0	Y: 0	SP: fd
f504	f505	AND	A: 0	X: 0	Y: 0	SP: fd
f506	0	EOR	A: 0	X: 0	Y: 0	SP: fd
f508	0	CLC	A: 0	X: 0	Y: 0	SP: fd
f509	f50c	BEQ	A: 0	X: 0	Y: 0	SP: fd
f50c	18	ROR	A: 0	X: 0	Y: 0	SP: fd
f50e	19	ROR	A: 0	X: 0	Y: 0	SP: fd
f510	1a	ROR	A: 0	X: 0	Y: 0	SP: fd
f512	1b	ROR	A: 0	X: 0	Y: 0	SP: fd
f514	1c	ROR	A: 0	X: 0	Y: 0	SP: fd
f516	1d	ROR	A: 0	X: 0	Y: 0	SP: fd
f518	1e	ROR	A: 0	X: 0	Y: 0	SP: fd
f51a	1f	ROR	A: 0	X: 0	Y: 0	SP: fd
f51c	0	RTS	A: 0	X: 0	Y: 0	SP: fd
c7e4	c7e1	JMP	A: 0	X: 0	Y: 0	SP: ff
c7e1	f4fc	JSR	A: 0	X: 0	Y: 0	SP: ff
f4fc	18	LDA	A: 0	X: 0	Y: 0	SP: fd
f4fe	f4ff	AND	A: 0	X: 0	Y: 0	SP: fd
f500	0	STA	A: 0	X: 0	Y: 0	SP: fd
f502	19	LDA	A: 0	X: 0	Y: 0	SP: fd
f504	f505	AND	A: 0	X: 0	Y: 0	SP: fd
f506	0	EOR	A: 0	X: 0	Y: 0	SP: fd
f508	0	CLC	A: 0	X: 0	Y: 0	SP: fd
f509	f50c	BEQ	A: 0	X: 0	Y: 0	SP: fd
f50c	18	ROR	A: 0	X: 0	Y: 0	SP: fd
f50e	19	ROR	A: 0	X: 0	Y: 0	SP: fd
f510	1a	ROR	A: 0	X: 0	Y: 0	SP: fd
f512	1b	ROR	A: 0	X: 0	Y: 0	SP: fd
f514	1c	ROR	A: 0	X: 0	Y: 0	SP: fd
f516	1d	ROR	A: 0	X: 0	Y: 0	SP: fd
f518	1e	ROR	A: 0	X: 0	Y: 0	SP: fd
f51a	1f	ROR	A: 0	X: 0	Y: 0	SP: fd
f51c	0	RTS	A: 0	X: 0	Y: 0	SP: fd
c7e4	c7e1	JMP	A: 0	X: 0	Y: 0	SP: ff
c7e1	f4fc	JSR	A: 0	X: 0	Y: 0	SP: ff
f4fc	18	LDA	A: 0	X: 0	Y: 0	SP: fd
f4fe	f4ff	AND	A: 0	X: 0	Y: 0	SP: fd
f500	0	STA	A: 0	X: 0	Y: 0	SP: fd
f502	19	LDA	A: 0	X: 0	Y: 0	SP: fd
f504	f505	AND	A: 0	X: 0	Y: 0	SP: fd
f506	0	EOR	A: 0	X: 0	Y: 0	SP: fd
f508	0	CLC	A: 0	X: 0	Y: 0	SP: fd
f509	f50c	BEQ	A: 0	X: 0	Y: 0	SP: fd
f50c	18	ROR	A: 0	X: 0	Y: 0	SP: fd
f50e	19	ROR	A: 0	X: 0	Y: 0	SP: fd
f510	1a	ROR	A: 0	X: 0	Y: 0	SP: fd
f512	1b	ROR	A: 0	X: 0	Y: 0	SP: fd
f514	1c	ROR	A: 0	X: 0	Y: 0	SP: fd
f516	1d	ROR	A: 0	X: 0	Y: 0	SP: fd
f518	1e	ROR	A: 0	X: 0	Y: 0	SP: fd
f51a	1f	ROR	A: 0	X: 0	Y: 0	SP: fd
f51c	0	RTS	A: 0	X: 0	Y: 0	SP: fd
c7e4	c7e1	JMP	A: 0	X: 0	Y: 0	SP: ff
c7e1	f4fc	JSR	A: 0	X: 0	Y: 0	SP: ff
f4fc	18	LDA	A: 0	X: 0	Y: 0	SP: fd
f4fe	f4ff	AND	A: 0	X: 0	Y: 0	SP: fd
f500	0	STA	A: 0	X: 0	Y: 0	SP: fd
f502	19	LDA	A: 0	X: 0	Y: 0	SP: fd
f504	f505	AND	A: 0	X: 0	Y: 0	SP: fd
f506	0	EOR	A: 0	X: 0	Y: 0	SP: fd
f508	0	CLC	A: 0	X: 0	Y: 0	SP: fd
f509	f50c	BEQ	A: 0	X: 0	Y: 0	SP: fd
f50c	18	ROR	A: 0	X: 0	Y: 0	SP: fd
f50e	19	ROR	A: 0	X: 0	Y: 0	SP: fd
f510	1a	ROR	A: 0	X: 0	Y: 0	SP: fd
f512	1b	ROR	A: 0	X: 0	Y: 0	SP: fd
f514	1c	ROR	A: 0	X: 0	Y: 0	SP: fd
f516	1d	ROR	A: 0	X: 0	Y: 0	SP: fd
f518	1e	ROR	A: 0	X: 0	Y: 0	SP: fd
f51a	1f	ROR	A: 0	X: 0	Y: 0	SP: fd
f51c	0	RTS	A: 0	X: 0	Y: 0	SP: fd
c7e4	c7e1	JMP	A: 0	X: 0	Y: 0	SP: ff
c7e1	f4fc	JSR	A: 0	X: 0	Y: 0	SP: ff
f4fc	18	LDA	A: 0	X: 0	Y: 0	SP: fd
f4fe	f4ff	AND	A: 0	X: 0	Y: 0	SP: fd
f500	0	STA	A: 0	X: 0	Y: 0	SP: fd
f502	19	LDA	A: 0	X: 0	Y: 0	SP: fd
f504	f505	AND	A: 0	X: 0	Y: 0	SP: fd
f506	0	EOR	A: 0	X: 0	Y: 0	SP: fd
f508	0	CLC	A: 0	X: 0	Y: 0	SP: fd
f509	f50c	BEQ	A: 0	X: 0	Y: 0	SP: fd
f50c	18	ROR	A: 0	X: 0	Y: 0	SP: fd
f50e	19	ROR	A: 0	X: 0	Y: 0	SP: fd
f510	1a	ROR	A: 0	X: 0	Y: 0	SP: fd
f512	1b	ROR	A: 0	X: 0	Y: 0	SP: fd
f514	1c	ROR	A: 0	X: 0	Y: 0	SP: fd
f516	1d	ROR	A: 0	X: 0	Y: 0	SP: fd
f518	1e	ROR	A: 0	X: 0	Y: 0	SP: fd
f51a	1f	ROR	A: 0	X: 0	Y: 0	SP: fd
f51c	0	RTS	A: 0	X: 0	Y: 0	SP: fd
c7e4	c7e1	JMP	A: 0	X: 0	Y: 0	SP: ff
c7e1	f4fc	JSR	A: 0	X: 0	Y: 0	SP: ff
f4fc	18	LDA	A: 0	X: 0	Y: 0	SP: fd
f4fe	f4ff	AND	A: 0	X: 0	Y: 0	SP: fd
f500	0	STA	A: 0	X: 0	Y: 0	SP: fd
f502	19	LDA	A: 0	X: 0	Y: 0	SP: fd
f504	f505	AND	A: 0	X: 0	Y: 0	SP: fd
f506	0	EOR	A: 0	X: 0	Y: 0	SP: fd
f508	0	CLC	A: 0	X: 0	Y: 0	SP: fd
f509	f50c	BEQ	A: 0	X: 0	Y: 0	SP: fd
f50c	18	ROR	A: 0	X: 0	Y: 0	SP: fd
f50e	19	ROR	A: 0	X: 0	Y: 0	SP: fd
f510	1a	ROR	A: 0	X: 0	Y: 0	SP: fd
f512	1b	ROR	A: 0	X: 0	Y: 0	SP: fd
f514	1c	ROR	A: 0	X: 0	Y: 0	SP: fd
f516	1d	ROR	A: 0	X: 0	Y: 0	SP: fd
f518	1e	ROR	A: 0	X: 0	Y: 0	SP: fd
f51a	1f	ROR	A: 0	X: 0	Y: 0	SP: fd
f51c	0	RTS	A: 0	X: 0	Y: 0	SP: fd
c7e4	c7e1	JMP	A: 0	X: 0	Y: 0	SP: ff
c7e1	f4fc	JSR	A: 0	X: 0	Y: 0	SP: ff
f4fc	18	LDA	A: 0	X: 0	Y: 0	SP: fd
f4fe	f4ff	AND	A: 0	X: 0	Y: 0	SP: fd
f500	0	STA	A: 0	X: 0	Y: 0	SP: fd
f502	19	LDA	A: 0	X: 0	Y: 0	SP: fd
f504	f505	AND	A: 0	X: 0	Y: 0	SP: fd
f506	0	EOR	A: 0	X: 0	Y: 0	SP: fd
f508	0	CLC	A: 0	X: 0	Y: 0	SP: fd
f509	f50c	BEQ	A: 0	X: 0	Y: 0	SP: fd
f50c	18	ROR	A: 0	X: 0	Y: 0	SP: fd
f50e	19	ROR	A: 0	X: 0	Y: 0	SP: fd
f510	1a	ROR	A: 0	X: 0	Y: 0	SP: fd
f512	1b	ROR	A: 0	X: 0	Y: 0	SP: fd
f514	1c	ROR	A: 0	X: 0	Y: 0	SP: fd
f516	1d	ROR	A: 0	X: 0	Y: 0	SP: fd
f518	1e	ROR	A: 0	X: 0	Y: 0	SP: fd
f51a	1f	ROR	A: 0	X: 0	Y: 0	SP: fd
f51c	0	RTS	A: 0	X: 0	Y: 0	SP: fd
c7e4	c7e1	JMP	A: 0	X: 0	Y: 0	SP: ff
c7e1	f4fc	JSR	A: 0	X: 0	Y: 0	SP: ff
f4fc	18	LDA	A: 0	X: 0	Y: 0	SP: fd
f4fe	f4ff	AND	A: 0	X: 0	Y: 0	SP: fd
f500	0	STA	A: 0	X: 0	Y: 0	SP: fd
f502	19	LDA	A: 0	X: 0	Y: 0	SP: fd
f504	f505	AND	A: 0	X: 0	Y: 0	SP: fd
f506	0	EOR	A: 0	X: 0	Y: 0	SP: fd
f508	0	CLC	A: 0	X: 0	Y: 0	SP: fd
f509	f50c	BEQ	A: 0	X: 0	Y: 0	SP: fd
f50c	18	ROR	A: 0	X: 0	Y: 0	SP: fd
f50e	19	ROR	A: 0	X: 0	Y: 0	SP: fd
f510	1a	ROR	A: 0	X: 0	Y: 0	SP: fd
f512	1b	ROR	A: 0	X: 0	Y: 0	SP: fd
f514	1c	ROR	A: 0	X: 0	Y: 0	SP: fd
f516	1d	ROR	A: 0	X: 0	Y: 0	SP: fd
f518	1e	ROR	A: 0	X: 0	Y: 0	SP: fd
f51a	1f	ROR	A: 0	X: 0	Y: 0	SP: fd
f51c	0	RTS	A: 0	X: 0	Y: 0	SP: fd
c7e4	c7e1	JMP	A: 0	X: 0	Y: 0	SP: ff
c7e1	f4fc	JSR	A: 0	X: 0	Y: 0	SP: ff
f4fc	18	LDA	A: 0	X: 0	Y: 0	SP: fd
f4fe	f4ff	AND	A: 0	X: 0	Y: 0	SP: fd
f500	0	STA	A: 0	X: 0	Y: 0	SP: fd
f502	19	LDA	A: 0	X: 0	Y: 0	SP: fd
f504	f505	AND	A: 0	X: 0	Y: 0	SP: fd
f506	0	EOR	A: 0	X: 0	Y: 0	SP: fd
f508	0	CLC	A: 0	X: 0	Y: 0	SP: fd
f509	f50c	BEQ	A: 0	X: 0	Y: 0	SP: fd
f50c	18	ROR	A: 0	X: 0	Y: 0	SP: fd
f50e	19	ROR	A: 0	X: 0	Y: 0	SP: fd
f510	1a	ROR	A: 0	X: 0	Y: 0	SP: fd
f512	1b	ROR	A: 0	X: 0	Y: 0	SP: fd
f514	1c	ROR	A: 0	X: 0	Y: 0	SP: fd
f516	1d	ROR	A: 0	X: 0	Y: 0	SP: fd
f518	1e	ROR	A: 0	X: 0	Y: 0	SP: fd
f51a	1f	ROR	A: 0	X: 0	Y: 0	SP: fd
f51c	0	RTS	A: 0	X: 0	Y: 0	SP: fd
c7e4	c7e1	JMP	A: 0	X: 0	Y: 0	SP: ff
c7e1	f4fc	JSR	A: 0	X: 0	Y: 0	SP: ff
f4fc	18	LDA	A: 0	X: 0	Y: 0	SP: fd
f4fe	f4ff	AND	A: 0	X: 0	Y: 0	SP: fd
f500	0	STA	A: 0	X: 0	Y: 0	SP: fd
f502	19	LDA	A: 0	X: 0	Y: 0	SP: fd
f504	f505	AND	A: 0	X: 0	Y: 0	SP: fd
f506	0	EOR	A: 0	X: 0	Y: 0	SP: fd
f508	0	CLC	A: 0	X: 0	Y: 0	SP: fd
f509	f50c	BEQ	A: 0	X: 0	Y: 0	SP: fd
f50c	18	ROR	A: 0	X: 0	Y: 0	SP: fd
f50e	19	ROR	A: 0	X: 0	Y: 0	SP: fd
f510	1a	ROR	A: 0	X: 0	Y: 0	SP: fd
f512	1b	ROR	A: 0	X: 0	Y: 0	SP: fd
f514	1c	ROR	A: 0	X: 0	Y: 0	SP: fd
f516	1d	ROR	A: 0	X: 0	Y: 0	SP: fd
f518	1e	ROR	A: 0	X: 0	Y: 0	SP: fd
f51a	1f	ROR	A: 0	X: 0	Y: 0	SP: fd
f51c	0	RTS	A: 0	X: 0	Y: 0	SP: fd
c7e4	c7e1	JMP	A: 0	X: 0	Y: 0	SP: ff
c7e1	f4fc	JSR	A: 0	X: 0	Y: 0	SP: ff
f4fc	18	LDA	A: 0	X: 0	Y: 0	SP: fd
f4fe	f4ff	AND	A: 0	X: 0	Y: 0	SP: fd
f500	0	STA	A: 0	X: 0	Y: 0	SP: fd
f502	19	LDA	A: 0	X: 0	Y: 0	SP: fd
f504	f505	AND	A: 0	X: 0	Y: 0	SP: fd
f506	0	EOR	A: 0	X: 0	Y: 0	SP: fd
f508	0	CLC	A: 0	X: 0	Y: 0	SP: fd
f509	f50c	BEQ	A: 0	X: 0	Y: 0	SP: fd
f50c	18	ROR	A: 0	X: 0	Y: 0	SP: fd
f50e	19	ROR	A: 0	X: 0	Y: 0	SP: fd
f510	1a	ROR	A: 0	X: 0	Y: 0	SP: fd
f512	1b	ROR	A: 0	X: 0	Y: 0	SP: fd
f514	1c	ROR	A: 0	X: 0	Y: 0	SP: fd
f516	1d	ROR	A: 0	X: 0	Y: 0	SP: fd
f518	1e	ROR	A: 0	X: 0	Y: 0	SP: fd
f51a	1f	ROR	A: 0	X: 0	Y: 0	SP: fd
f51c	0	RTS	A: 0	X: 0	Y: 0	SP: fd
c7e4	c7e1	JMP	A: 0	X: 0	Y: 0	SP: ff
c7e1	f4fc	JSR	A: 0	X: 0	Y: 0	SP: ff
f4fc	18	LDA	A: 0	X: 0	Y: 0	SP: fd
f4fe	f4ff	AND	A: 0	X: 0	Y: 0	SP: fd
f500	0	STA	A: 0	X: 0	Y: 0	SP: fd
f502	19	LDA	A: 0	X: 0	Y: 0	SP: fd
f504	f505	AND	A: 0	X: 0	Y: 0	SP: fd
f506	0	EOR	A: 0	X: 0	Y: 0	SP: fd
f508	0	CLC	A: 0	X: 0	Y: 0	SP: fd
f509	f50c	BEQ	A: 0	X: 0	Y: 0	SP: fd
f50c	18	ROR	A: 0	X: 0	Y: 0	SP: fd
f50e	19	ROR	A: 0	X: 0	Y: 0	SP: fd
f510	1a	ROR	A: 0	X: 0	Y: 0	SP: fd
f512	1b	ROR	A: 0	X: 0	Y: 0	SP: fd
f514	1c	ROR	A: 0	X: 0	Y: 0	SP: fd
f516	1d	ROR	A: 0	X: 0	Y: 0	SP: fd
f518	1e	ROR	A: 0	X: 0	Y: 0	SP: fd
f51a	1f	ROR	A: 0	X: 0	Y: 0	SP: fd
f51c	0	RTS	A: 0	X: 0	Y: 0	SP: fd
c7e4	c7e1	JMP	A: 0	X: 0	Y: 0	SP: ff
c7e1	f4fc	JSR	A: 0	X: 0	Y: 0	SP: ff
f4fc	18	LDA	A: 0	X: 0	Y: 0	SP: fd
f4fe	f4ff	AND	A: 0	X: 0	Y: 0	SP: fd
f500	0	STA	A: 0	X: 0	Y: 0	SP: fd
f502	19	LDA	A: 0	X: 0	Y: 0	SP: fd
f504	f505	AND	A: 0	X: 0	Y: 0	SP: fd
f506	0	EOR	A: 0	X: 0	Y: 0	SP: fd
f508	0	CLC	A: 0	X: 0	Y: 0	SP: fd
f509	f50c	BEQ	A: 0	X: 0	Y: 0	SP: fd
f50c	18	ROR	A: 0	X: 0	Y: 0	SP: fd
f50e	19	ROR	A: 0	X: 0	Y: 0	SP: fd
f510	1a	ROR	A: 0	X: 0	Y: 0	SP: fd
f512	1b	ROR	A: 0	X: 0	Y: 0	SP: fd
f514	1c	ROR	A: 0	X: 0	Y: 0	SP: fd
f516	1d	ROR	A: 0	X: 0	Y: 0	SP: fd
f518	1e	ROR	A: 0	X: 0	Y: 0	SP: fd
f51a	1f	ROR	A: 0	X: 0	Y: 0	SP: fd
f51c	0	RTS	A: 0	X: 0	Y: 0	SP: fd
c7e4	c7e1	JMP	A: 0	X: 0	Y: 0	SP: ff
c7e1	f4fc	JSR	A: 0	X: 0	Y: 0	SP: ff
f4fc	18	LDA	A: 0	X: 0	Y: 0	SP: fd
f4fe	f4ff	AND	A: 0	X: 0	Y: 0	SP: fd
f500	0	STA	A: 0	X: 0	Y: 0	SP: fd
f502	19	LDA	A: 0	X: 0	Y: 0	SP: fd
f504	f505	AND	A: 0	X: 0	Y: 0	SP: fd
f506	0	EOR	A: 0	X: 0	Y: 0	SP: fd
f508	0	CLC	A: 0	X: 0	Y: 0	SP: fd
f509	f50c	BEQ	A: 0	X: 0	Y: 0	SP: fd
f50c	18	ROR	A: 0	X: 0	Y: 0	SP: fd
f50e	19	ROR	A: 0	X: 0	Y: 0	SP: fd
f510	1a	ROR	A: 0	X: 0	Y: 0	SP: fd
f512	1b	ROR	A: 0	X: 0	Y: 0	SP: fd
f514	1c	ROR	A: 0	X: 0	Y: 0	SP: fd
f516	1d	ROR	A: 0	X: 0	Y: 0	SP: fd
f518	1e	ROR	A: 0	X: 0	Y: 0	SP: fd
f51a	1f	ROR	A: 0	X: 0	Y: 0	SP: fd
f51c	0	RTS	A: 0	X: 0	Y: 0	SP: fd
c7e4	c7e1	JMP	A: 0	X: 0	Y: 0	SP: ff
c7e1	f4fc	JSR	A: 0	X: 0	Y: 0	SP: ff
f4fc	18	LDA	A: 0	X: 0	Y: 0	SP: fd
f4fe	f4ff	AND	A: 0	X: 0	Y: 0	SP: fd
f500	0	STA	A: 0	X: 0	Y: 0	SP: fd
f502	19	LDA	A: 0	X: 0	Y: 0	SP: fd
f504	f505	AND	A: 0	X: 0	Y: 0	SP: fd
f506	0	EOR	A: 0	X: 0	Y: 0	SP: fd
f508	0	CLC	A: 0	X: 0	Y: 0	SP: fd
f509	f50c	BEQ	A: 0	X: 0	Y: 0	SP: fd
f50c	18	ROR	A: 0	X: 0	Y: 0	SP: fd
f50e	19	ROR	A: 0	X: 0	Y: 0	SP: fd
f510	1a	ROR	A: 0	X: 0	Y: 0	SP: fd
f512	1b	ROR	A: 0	X: 0	Y: 0	SP: fd
f514	1c	ROR	A: 0	X: 0	Y: 0	SP: fd
f516	1d	ROR	A: 0	X: 0	Y: 0	SP: fd
f518	1e	ROR	A: 0	X: 0	Y: 0	SP: fd
f51a	1f	ROR	A: 0	X: 0	Y: 0	SP: fd
f51c	0	RTS	A: 0	X: 0	Y: 0	SP: fd
c7e4	c7e1	JMP	A: 0	X: 0	Y: 0	SP: ff
c7e1	f4fc	JSR	A: 0	X: 0	Y: 0	SP: ff
f4fc	18	LDA	A: 0	X: 0	Y: 0	SP: fd
f4fe	f4ff	AND	A: 0	X: 0	Y: 0	SP: fd
f500	0	STA	A: 0	X: 0	Y: 0	SP: fd
f502	19	LDA	A: 0	X: 0	Y: 0	SP: fd
f504	f505	AND	A: 0	X: 0	Y: 0	SP: fd
f506	0	EOR	A: 0	X: 0	Y: 0	SP: fd
f508	0	CLC	A: 0	X: 0	Y: 0	SP: fd
f509	f50c	BEQ	A: 0	X: 0	Y: 0	SP: fd
f50c	18	ROR	A: 0	X: 0	Y: 0	SP: fd
f50e	19	ROR	A: 0	X: 0	Y: 0	SP: fd
f510	1a	ROR	A: 0	X: 0	Y: 0	SP: fd
f512	1b	ROR	A: 0	X: 0	Y: 0	SP: fd
f514	1c	ROR	A: 0	X: 0	Y: 0	SP: fd
f516	1d	ROR	A: 0	X: 0	Y: 0	SP: fd
f518	1e	ROR	A: 0	X: 0	Y: 0	SP: fd
f51a	1f	ROR	A: 0	X: 0	Y: 0	SP: fd
f51c	0	RTS	A: 0	X: 0	Y: 0	SP: fd
c7e4	c7e1	JMP	A: 0	X: 0	Y: 0	SP: ff
c7e1	f4fc	JSR	A: 0	X: 0	Y: 0	SP: ff
f4fc	18	LDA	A: 0	X: 0	Y: 0	SP: fd
f4fe	f4ff	AND	A: 0	X: 0	Y: 0	SP: fd
f500	0	STA	A: 0	X: 0	Y: 0	SP: fd
f502	19	LDA	A: 0	X: 0	Y: 0	SP: fd
f504	f505	AND	A: 0	X: 0	Y: 0	SP: fd
f506	0	EOR	A: 0	X: 0	Y: 0	SP: fd
f508	0	CLC	A: 0	X: 0	Y: 0	SP: fd
f509	f50c	BEQ	A: 0	X: 0	Y: 0	SP: fd
f50c	18	ROR	A: 0	X: 0	Y: 0	SP: fd
f50e	19	ROR	A: 0	X: 0	Y: 0	SP: fd
f510	1a	ROR	A: 0	X: 0	Y: 0	SP: fd
f512	1b	ROR	A: 0	X: 0	Y: 0	SP: fd
f514	1c	ROR	A: 0	X: 0	Y: 0	SP: fd
f516	1d	ROR	A: 0	X: 0	Y: 0	SP: fd
f518	1e	ROR	A: 0	X: 0	Y: 0	SP: fd
f51a	1f	ROR	A: 0	X: 0	Y: 0	SP: fd
f51c	0	RTS	A: 0	X: 0	Y: 0	SP: fd
c7e4	c7e1	JMP	A: 0	X: 0	Y: 0	SP: ff
c7e1	f4fc	JSR	A: 0	X: 0	Y: 0	SP: ff
f4fc	18	LDA	A: 0	X: 0	Y: 0	SP: fd
f4fe	f4ff	AND	A: 0	X: 0	Y: 0	SP: fd
f500	0	STA	A: 0	X: 0	Y: 0	SP: fd
f502	19	LDA	A: 0	X: 0	Y: 0	SP: fd
f504	f505	AND	A: 0	X: 0	Y: 0	SP: fd
f506	0	EOR	A: 0	X: 0	Y: 0	SP: fd
f508	0	CLC	A: 0	X: 0	Y: 0	SP: fd
f509	f50c	BEQ	A: 0	X: 0	Y: 0	SP: fd
f50c	18	ROR	A: 0	X: 0	Y: 0	SP: fd
f50e	19	ROR	A: 0	X: 0	Y: 0	SP: fd
f510	1a	ROR	A: 0	X: 0	Y: 0	SP: fd
f512	1b	ROR	A: 0	X: 0	Y: 0	SP: fd
f514	1c	ROR	A: 0	X: 0	Y: 0	SP: fd
f516	1d	ROR	A: 0	X: 0	Y: 0	SP: fd
f518	1e	ROR	A: 0	X: 0	Y: 0	SP: fd
f51a	1f	ROR	A: 0	X: 0	Y: 0	SP: fd
f51c	0	RTS	A: 0	X: 0	Y: 0	SP: fd
c7e4	c7e1	JMP	A: 0	X: 0	Y: 0	SP: ff
c7e1	f4fc	JSR	A: 0	X: 0	Y: 0	SP: ff
f4fc	18	LDA	A: 0	X: 0	Y: 0	SP: fd
f4fe	f4ff	AND	A: 0	X: 0	Y: 0	SP: fd
f500	0	STA	A: 0	X: 0	Y: 0	SP: fd
f502	19	LDA	A: 0	X: 0	Y: 0	SP: fd
f504	f505	AND	A: 0	X: 0	Y: 0	SP: fd
f506	0	EOR	A: 0	X: 0	Y: 0	SP: fd
f508	0	CLC	A: 0	X: 0	Y: 0	SP: fd
f509	f50c	BEQ	A: 0	X: 0	Y: 0	SP: fd
f50c	18	ROR	A: 0	X: 0	Y: 0	SP: fd
f50e	19	ROR	A: 0	X: 0	Y: 0	SP: fd
f510	1a	ROR	A: 0	X: 0	Y: 0	SP: fd
f512	1b	ROR	A: 0	X: 0	Y: 0	SP: fd
f514	1c	ROR	A: 0	X: 0	Y: 0	SP: fd
f516	1d	ROR	A: 0	X: 0	Y: 0	SP: fd
f518	1e	ROR	A: 0	X: 0	Y: 0	SP: fd
f51a	1f	ROR	A: 0	X: 0	Y: 0	SP: fd
f51c	0	RTS	A: 0	X: 0	Y: 0	SP: fd
c7e4	c7e1	JMP	A: 0	X: 0	Y: 0	SP: ff
c7e1	f4fc	JSR	A: 0	X: 0	Y: 0	SP: ff
f4fc	18	LDA	A: 0	X: 0	Y: 0	SP: fd
f4fe	f4ff	AND	A: 0	X: 0	Y: 0	SP: fd
f500	0	STA	A: 0	X: 0	Y: 0	SP: fd
f502	19	LDA	A: 0	X: 0	Y: 0	SP: fd
f504	f505	AND	A: 0	X: 0	Y: 0	SP: fd
f506	0	EOR	A: 0	X: 0	Y: 0	SP: fd
f508	0	CLC	A: 0	X: 0	Y: 0	SP: fd
f509	f50c	BEQ	A: 0	X: 0	Y: 0	SP: fd
f50c	18	ROR	A: 0	X: 0	Y: 0	SP: fd
f50e	19	ROR	A: 0	X: 0	Y: 0	SP: fd
f510	1a	ROR	A: 0	X: 0	Y: 0	SP: fd
f512	1b	ROR	A: 0	X: 0	Y: 0	SP: fd
f514	1c	ROR	A: 0	X: 0	Y: 0	SP: fd
f516	1d	ROR	A: 0	X: 0	Y: 0	SP: fd
f518	1e	ROR	A: 0	X: 0	Y: 0	SP: fd
f51a	1f	ROR	A: 0	X: 0	Y: 0	SP: fd
f51c	0	RTS	A: 0	X: 0	Y: 0	SP: fd
c7e4	c7e1	JMP	A: 0	X: 0	Y: 0	SP: ff
c7e1	f4fc	JSR	A: 0	X: 0	Y: 0	SP: ff
f4fc	18	LDA	A: 0	X: 0	Y: 0	SP: fd
f4fe	f4ff	AND	A: 0	X: 0	Y: 0	SP: fd
f500	0	STA	A: 0	X: 0	Y: 0	SP: fd
f502	19	LDA	A: 0	X: 0	Y: 0	SP: fd
f504	f505	AND	A: 0	X: 0	Y: 0	SP: fd
f506	0	EOR	A: 0	X: 0	Y: 0	SP: fd
f508	0	CLC	A: 0	X: 0	Y: 0	SP: fd
f509	f50c	BEQ	A: 0	X: 0	Y: 0	SP: fd
f50c	18	ROR	A: 0	X: 0	Y: 0	SP: fd
f50e	19	ROR	A: 0	X: 0	Y: 0	SP: fd
f510	1a	ROR	A: 0	X: 0	Y: 0	SP: fd
f512	1b	ROR	A: 0	X: 0	Y: 0	SP: fd
f514	1c	ROR	A: 0	X: 0	Y: 0	SP: fd
f516	1d	ROR	A: 0	X: 0	Y: 0	SP: fd
f518	1e	ROR	A: 0	X: 0	Y: 0	SP: fd
f51a	1f	ROR	A: 0	X: 0	Y: 0	SP: fd
f51c	0	RTS	A: 0	X: 0	Y: 0	SP: fd
c7e4	c7e1	JMP	A: 0	X: 0	Y: 0	SP: ff
c7e1	f4fc	JSR	A: 0	X: 0	Y: 0	SP: ff
f4fc	18	LDA	A: 0	X: 0	Y: 0	SP: fd
f4fe	f4ff	AND	A: 0	X: 0	Y: 0	SP: fd
f500	0	STA	A: 0	X: 0	Y: 0	SP: fd
f502	19	LDA	A: 0	X: 0	Y: 0	SP: fd
f504	f505	AND	A: 0	X: 0	Y: 0	SP: fd
f506	0	EOR	A: 0	X: 0	Y: 0	SP: fd
f508	0	CLC	A: 0	X: 0	Y: 0	SP: fd
f509	f50c	BEQ	A: 0	X: 0	Y: 0	SP: fd
f50c	18	ROR	A: 0	X: 0	Y: 0	SP: fd
f50e	19	ROR	A: 0	X: 0	Y: 0	SP: fd
f510	1a	ROR	A: 0	X: 0	Y: 0	SP: fd
f512	1b	ROR	A: 0	X: 0	Y: 0	SP: fd
f514	1c	ROR	A: 0	X: 0	Y: 0	SP: fd
f516	1d	ROR	A: 0	X: 0	Y: 0	SP: fd
f518	1e	ROR	A: 0	X: 0	Y: 0	SP: fd
f51a	1f	ROR	A: 0	X: 0	Y: 0	SP: fd
f51c	0	RTS	A: 0	X: 0	Y: 0	SP: fd
c7e4	c7e1	JMP	A: 0	X: 0	Y: 0	SP: ff
c7e1	f4fc	JSR	A: 0	X: 0	Y: 0	SP: ff
f4fc	18	LDA	A: 0	X: 0	Y: 0	SP: fd
f4fe	f4ff	AND	A: 0	X: 0	Y: 0	SP: fd
f500	0	STA	A: 0	X: 0	Y: 0	SP: fd
f502	19	LDA	A: 0	X: 0	Y: 0	SP: fd
f504	f505	AND	A: 0	X: 0	Y: 0	SP: fd
f506	0	EOR	A: 0	X: 0	Y: 0	SP: fd
f508	0	CLC	A: 0	X: 0	Y: 0	SP: fd
f509	f50c	BEQ	A: 0	X: 0	Y: 0	SP: fd
f50c	18	ROR	A: 0	X: 0	Y: 0	SP: fd
f50e	19	ROR	A: 0	X: 0	Y: 0	SP: fd
f510	1a	ROR	A: 0	X: 0	Y: 0	SP: fd
f512	1b	ROR	A: 0	X: 0	Y: 0	SP: fd
f514	1c	ROR	A: 0	X: 0	Y: 0	SP: fd
f516	1d	ROR	A: 0	X: 0	Y: 0	SP: fd
f518	1e	ROR	A: 0	X: 0	Y: 0	SP: fd
f51a	1f	ROR	A: 0	X: 0	Y: 0	SP: fd
f51c	0	RTS	A: 0	X: 0	Y: 0	SP: fd
c7e4	c7e1	JMP	A: 0	X: 0	Y: 0	SP: ff
c7e1	f4fc	JSR	A: 0	X: 0	Y: 0	SP: ff
f4fc	18	LDA	A: 0	X: 0	Y: 0	SP: fd
f4fe	f4ff	AND	A: 0	X: 0	Y: 0	SP: fd
f500	0	STA	A: 0	X: 0	Y: 0	SP: fd
f502	19	LDA	A: 0	X: 0	Y: 0	SP: fd
f504	f505	AND	A: 0	X: 0	Y: 0	SP: fd
f506	0	EOR	A: 0	X: 0	Y: 0	SP: fd
f508	0	CLC	A: 0	X: 0	Y: 0	SP: fd
f509	f50c	BEQ	A: 0	X: 0	Y: 0	SP: fd
f50c	18	ROR	A: 0	X: 0	Y: 0	SP: fd
f50e	19	ROR	A: 0	X: 0	Y: 0	SP: fd
f510	1a	ROR	A: 0	X: 0	Y: 0	SP: fd
f512	1b	ROR	A: 0	X: 0	Y: 0	SP: fd
f514	1c	ROR	A: 0	X: 0	Y: 0	SP: fd
f516	1d	ROR	A: 0	X: 0	Y: 0	SP: fd
f518	1e	ROR	A: 0	X: 0	Y: 0	SP: fd
f51a	1f	ROR	A: 0	X: 0	Y: 0	SP: fd
f51c	0	RTS	A: 0	X: 0	Y: 0	SP: fd
c7e4	c7e1	JMP	A: 0	X: 0	Y: 0	SP: ff
c7e1	f4fc	JSR	A: 0	X: 0	Y: 0	SP: ff
f4fc	18	LDA	A: 0	X: 0	Y: 0	SP: fd
f4fe	f4ff	AND	A: 0	X: 0	Y: 0	SP: fd
f500	0	STA	A: 0	X: 0	Y: 0	SP: fd
f502	19	LDA	A: 0	X: 0	Y: 0	SP: fd
f504	f505	AND	A: 0	X: 0	Y: 0	SP: fd
f506	0	EOR	A: 0	X: 0	Y: 0	SP: fd
f508	0	CLC	A: 0	X: 0	Y: 0	SP: fd
f509	f50c	BEQ	A: 0	X: 0	Y: 0	SP: fd
f50c	18	ROR	A: 0	X: 0	Y: 0	SP: fd
f50e	19	ROR	A: 0	X: 0	Y: 0	SP: fd
f510	1a	ROR	A: 0	X: 0	Y: 0	SP: fd
f512	1b	ROR	A: 0	X: 0	Y: 0	SP: fd
f514	1c	ROR	A: 0	X: 0	Y: 0	SP: fd
f516	1d	ROR	A: 0	X: 0	Y: 0	SP: fd
f518	1e	ROR	A: 0	X: 0	Y: 0	SP: fd
f51a	1f	ROR	A: 0	X: 0	Y: 0	SP: fd
f51c	0	RTS	A: 0	X: 0	Y: 0	SP: fd
c7e4	c7e1	JMP	A: 0	X: 0	Y: 0	SP: ff
c7e1	f4fc	JSR	A: 0	X: 0	Y: 0	SP: ff
f4fc	18	LDA	A: 0	X: 0	Y: 0	SP: fd
f4fe	f4ff	AND	A: 0	X: 0	Y: 0	SP: fd
f500	0	STA	A: 0	X: 0	Y: 0	SP: fd
f502	19	LDA	A: 0	X: 0	Y: 0	SP: fd
f504	f505	AND	A: 0	X: 0	Y: 0	SP: fd
f506	0	EOR	A: 0	X: 0	Y: 0	SP: fd
f508	0	CLC	A: 0	X: 0	Y: 0	SP: fd
f509	f50c	BEQ	A: 0	X: 0	Y: 0	SP: fd
f50c	18	ROR	A: 0	X: 0	Y: 0	SP: fd
f50e	19	ROR	A: 0	X: 0	Y: 0	SP: fd
f510	1a	ROR	A: 0	X: 0	Y: 0	SP: fd
f512	1b	ROR	A: 0	X: 0	Y: 0	SP: fd
f514	1c	ROR	A: 0	X: 0	Y: 0	SP: fd
f516	1d	ROR	A: 0	X: 0	Y: 0	SP: fd
f518	1e	ROR	A: 0	X: 0	Y: 0	SP: fd
f51a	1f	ROR	A: 0	X: 0	Y: 0	SP: fd
f51c	0	RTS	A: 0	X: 0	Y: 0	SP: fd
c7e4	c7e1	JMP	A: 0	X: 0	Y: 0	SP: ff
c7e1	f4fc	JSR	A: 0	X: 0	Y: 0	SP: ff
f4fc	18	LDA	A: 0	X: 0	Y: 0	SP: fd
f4fe	f4ff	AND	A: 0	X: 0	Y: 0	SP: fd
f500	0	STA	A: 0	X: 0	Y: 0	SP: fd
f502	19	LDA	A: 0	X: 0	Y: 0	SP: fd
f504	f505	AND	A: 0	X: 0	Y: 0	SP: fd
f506	0	EOR	A: 0	X: 0	Y: 0	SP: fd
f508	0	CLC	A: 0	X: 0	Y: 0	SP: fd
f509	f50c	BEQ	A: 0	X: 0	Y: 0	SP: fd
f50c	18	ROR	A: 0	X: 0	Y: 0	SP: fd
f50e	19	ROR	A: 0	X: 0	Y: 0	SP: fd
f510	1a	ROR	A: 0	X: 0	Y: 0	SP: fd
f512	1b	ROR	A: 0	X: 0	Y: 0	SP: fd
f514	1c	ROR	A: 0	X: 0	Y: 0	SP: fd
f516	1d	ROR	A: 0	X: 0	Y: 0	SP: fd
f518	1e	ROR	A: 0	X: 0	Y: 0	SP: fd
f51a	1f	ROR	A: 0	X: 0	Y: 0	SP: fd
f51c	0	RTS	A: 0	X: 0	Y: 0	SP: fd
c7e4	c7e1	JMP	A: 0	X: 0	Y: 0	SP: ff
c7e1	f4fc	JSR	A: 0	X: 0	Y: 0	SP: ff
f4fc	18	LDA	A: 0	X: 0	Y: 0	SP: fd
f4fe	f4ff	AND	A: 0	X: 0	Y: 0	SP: fd
f500	0	STA	A: 0	X: 0	Y: 0	SP: fd
f502	19	LDA	A: 0	X: 0	Y: 0	SP: fd
f504	f505	AND	A: 0	X: 0	Y: 0	SP: fd
f506	0	EOR	A: 0	X: 0	Y: 0	SP: fd
f508	0	CLC	A: 0	X: 0	Y: 0	SP: fd
f509	f50c	BEQ	A: 0	X: 0	Y: 0	SP: fd
f50c	18	ROR	A: 0	X: 0	Y: 0	SP: fd
f50e	19	ROR	A: 0	X: 0	Y: 0	SP: fd
f510	1a	ROR	A: 0	X: 0	Y: 0	SP: fd
f512	1b	ROR	A: 0	X: 0	Y: 0	SP: fd
f514	1c	ROR	A: 0	X: 0	Y: 0	SP: fd
f516	1d	ROR	A: 0	X: 0	Y: 0	SP: fd
f518	1e	ROR	A: 0	X: 0	Y: 0	SP: fd
f51a	1f	ROR	A: 0	X: 0	Y: 0	SP: fd
f51c	0	RTS	A: 0	X: 0	Y: 0	SP: fd
c7e4	c7e1	JMP	A: 0	X: 0	Y: 0	SP: ff
c7e1	f4fc	JSR	A: 0	X: 0	Y: 0	SP: ff
f4fc	18	LDA	A: 0	X: 0	Y: 0	SP: fd
f4fe	f4ff	AND	A: 0	X: 0	Y: 0	SP: fd
f500	0	STA	A: 0	X: 0	Y: 0	SP: fd
f502	19	LDA	A: 0	X: 0	Y: 0	SP: fd
f504	f505	AND	A: 0	X: 0	Y: 0	SP: fd
f506	0	EOR	A: 0	X: 0	Y: 0	SP: fd
f508	0	CLC	A: 0	X: 0	Y: 0	SP: fd
f509	f50c	BEQ	A: 0	X: 0	Y: 0	SP: fd
f50c	18	ROR	A: 0	X: 0	Y: 0	SP: fd
f50e	19	ROR	A: 0	X: 0	Y: 0	SP: fd
f510	1a	ROR	A: 0	X: 0	Y: 0	SP: fd
f512	1b	ROR	A: 0	X: 0	Y: 0	SP: fd
f514	1c	ROR	A: 0	X: 0	Y: 0	SP: fd
f516	1d	ROR	A: 0	X: 0	Y: 0	SP: fd
f518	1e	ROR	A: 0	X: 0	Y: 0	SP: fd
f51a	1f	ROR	A: 0	X: 0	Y: 0	SP: fd
f51c	0	RTS	A: 0	X: 0	Y: 0	SP: fd
c7e4	c7e1	JMP	A: 0	X: 0	Y: 0	SP: ff
c7e1	f4fc	JSR	A: 0	X: 0	Y: 0	SP: ff
f4fc	18	LDA	A: 0	X: 0	Y: 0	SP: fd
f4fe	f4ff	AND	A: 0	X: 0	Y: 0	SP: fd
f500	0	STA	A: 0	X: 0	Y: 0	SP: fd
f502	19	LDA	A: 0	X: 0	Y: 0	SP: fd
f504	f505	AND	A: 0	X: 0	Y: 0	SP: fd
f506	0	EOR	A: 0	X: 0	Y: 0	SP: fd
f508	0	CLC	A: 0	X: 0	Y: 0	SP: fd
f509	f50c	BEQ	A: 0	X: 0	Y: 0	SP: fd
f50c	18	ROR	A: 0	X: 0	Y: 0	SP: fd
f50e	19	ROR	A: 0	X: 0	Y: 0	SP: fd
f510	1a	ROR	A: 0	X: 0	Y: 0	SP: fd
f512	1b	ROR	A: 0	X: 0	Y: 0	SP: fd
f514	1c	ROR	A: 0	X: 0	Y: 0	SP: fd
f516	1d	ROR	A: 0	X: 0	Y: 0	SP: fd
f518	1e	ROR	A: 0	X: 0	Y: 0	SP: fd
f51a	1f	ROR	A: 0	X: 0	Y: 0	SP: fd
f51c	0	RTS	A: 0	X: 0	Y: 0	SP: fd
c7e4	c7e1	JMP	A: 0	X: 0	Y: 0	SP: ff
c7e1	f4fc	JSR	A: 0	X: 0	Y: 0	SP: ff
f4fc	18	LDA	A: 0	X: 0	Y: 0	SP: fd
f4fe	f4ff	AND	A: 0	X: 0	Y: 0	SP: fd
f500	0	STA	A: 0	X: 0	Y: 0	SP: fd
f502	19	LDA	A: 0	X: 0	Y: 0	SP: fd
f504	f505	AND	A: 0	X: 0	Y: 0	SP: fd
f506	0	EOR	A: 0	X: 0	Y: 0	SP: fd
f508	0	CLC	A: 0	X: 0	Y: 0	SP: fd
f509	f50c	BEQ	A: 0	X: 0	Y: 0	SP: fd
f50c	18	ROR	A: 0	X: 0	Y: 0	SP: fd
f50e	19	ROR	A: 0	X: 0	Y: 0	SP: fd
f510	1a	ROR	A: 0	X: 0	Y: 0	SP: fd
f512	1b	ROR	A: 0	X: 0	Y: 0	SP: fd
f514	1c	ROR	A: 0	X: 0	Y: 0	SP: fd
f516	1d	ROR	A: 0	X: 0	Y: 0	SP: fd
f518	1e	ROR	A: 0	X: 0	Y: 0	SP: fd
f51a	1f	ROR	A: 0	X: 0	Y: 0	SP: fd
f51c	0	RTS	A: 0	X: 0	Y: 0	SP: fd
c7e4	c7e1	JMP	A: 0	X: 0	Y: 0	SP: ff
c7e1	f4fc	JSR	A: 0	X: 0	Y: 0	SP: ff
f4fc	18	LDA	A: 0	X: 0	Y: 0	SP: fd
f4fe	f4ff	AND	A: 0	X: 0	Y: 0	SP: fd
f500	0	STA	A: 0	X: 0	Y: 0	SP: fd
f502	19	LDA	A: 0	X: 0	Y: 0	SP: fd
f504	f505	AND	A: 0	X: 0	Y: 0	SP: fd
f506	0	EOR	A: 0	X: 0	Y: 0	SP: fd
f508	0	CLC	A: 0	X: 0	Y: 0	SP: fd
f509	f50c	BEQ	A: 0	X: 0	Y: 0	SP: fd
f50c	18	ROR	A: 0	X: 0	Y: 0	SP: fd
f50e	19	ROR	A: 0	X: 0	Y: 0	SP: fd
f510	1a	ROR	A: 0	X: 0	Y: 0	SP: fd
f512	1b	ROR	A: 0	X: 0	Y: 0	SP: fd
f514	1c	ROR	A: 0	X: 0	Y: 0	SP: fd
f516	1d	ROR	A: 0	X: 0	Y: 0	SP: fd
f518	1e	ROR	A: 0	X: 0	Y: 0	SP: fd
f51a	1f	ROR	A: 0	X: 0	Y: 0	SP: fd
f51c	0	RTS	A: 0	X: 0	Y: 0	SP: fd
c7e4	c7e1	JMP	A: 0	X: 0	Y: 0	SP: ff
c7e1	f4fc	JSR	A: 0	X: 0	Y: 0	SP: ff
f4fc	18	LDA	A: 0	X: 0	Y: 0	SP: fd
f4fe	f4ff	AND	A: 0	X: 0	Y: 0	SP: fd
f500	0	STA	A: 0	X: 0	Y: 0	SP: fd
f502	19	LDA	A: 0	X: 0	Y: 0	SP: fd
f504	f505	AND	A: 0	X: 0	Y: 0	SP: fd
f506	0	EOR	A: 0	X: 0	Y: 0	SP: fd
f508	0	CLC	A: 0	X: 0	Y: 0	SP: fd
f509	f50c	BEQ	A: 0	X: 0	Y: 0	SP: fd
f50c	18	ROR	A: 0	X: 0	Y: 0	SP: fd
f50e	19	ROR	A: 0	X: 0	Y: 0	SP: fd
f510	1a	ROR	A: 0	X: 0	Y: 0	SP: fd
f512	1b	ROR	A: 0	X: 0	Y: 0	SP: fd
f514	1c	ROR	A: 0	X: 0	Y: 0	SP: fd
f516	1d	ROR	A: 0	X: 0	Y: 0	SP: fd
f518	1e	ROR	A: 0	X: 0	Y: 0	SP: fd
f51a	1f	ROR	A: 0	X: 0	Y: 0	SP: fd
f51c	0	RTS	A: 0	X: 0	Y: 0	SP: fd
c7e4	c7e1	JMP	A: 0	X: 0	Y: 0	SP: ff
c7e1	f4fc	JSR	A: 0	X: 0	Y: 0	SP: ff
f4fc	18	LDA	A: 0	X: 0	Y: 0	SP: fd
f4fe	f4ff	AND	A: 0	X: 0	Y: 0	SP: fd
f500	0	STA	A: 0	X: 0	Y: 0	SP: fd
f502	19	LDA	A: 0	X: 0	Y: 0	SP: fd
f504	f505	AND	A: 0	X: 0	Y: 0	SP: fd
f506	0	EOR	A: 0	X: 0	Y: 0	SP: fd
f508	0	CLC	A: 0	X: 0	Y: 0	SP: fd
f509	f50c	BEQ	A: 0	X: 0	Y: 0	SP: fd
f50c	18	ROR	A: 0	X: 0	Y: 0	SP: fd
f50e	19	ROR	A: 0	X: 0	Y: 0	SP: fd
f510	1a	ROR	A: 0	X: 0	Y: 0	SP: fd
f512	1b	ROR	A: 0	X: 0	Y: 0	SP: fd
f514	1c	ROR	A: 0	X: 0	Y: 0	SP: fd
f516	1d	ROR	A: 0	X: 0	Y: 0	SP: fd
f518	1e	ROR	A: 0	X: 0	Y: 0	SP: fd
f51a	1f	ROR	A: 0	X: 0	Y: 0	SP: fd
f51c	0	RTS	A: 0	X: 0	Y: 0	SP: fd
c7e4	c7e1	JMP	A: 0	X: 0	Y: 0	SP: ff
c7e1	f4fc	JSR	A: 0	X: 0	Y: 0	SP: ff
f4fc	18	LDA	A: 0	X: 0	Y: 0	SP: fd
f4fe	f4ff	AND	A: 0	X: 0	Y: 0	SP: fd
f500	0	STA	A: 0	X: 0	Y: 0	SP: fd
f502	19	LDA	A: 0	X: 0	Y: 0	SP: fd
f504	f505	AND	A: 0	X: 0	Y: 0	SP: fd
f506	0	EOR	A: 0	X: 0	Y: 0	SP: fd
f508	0	CLC	A: 0	X: 0	Y: 0	SP: fd
f509	f50c	BEQ	A: 0	X: 0	Y: 0	SP: fd
f50c	18	ROR	A: 0	X: 0	Y: 0	SP: fd
f50e	19	ROR	A: 0	X: 0	Y: 0	SP: fd
f510	1a	ROR	A: 0	X: 0	Y: 0	SP: fd
f512	1b	ROR	A: 0	X: 0	Y: 0	SP: fd
f514	1c	ROR	A: 0	X: 0	Y: 0	SP: fd
f516	1d	ROR	A: 0	X: 0	Y: 0	SP: fd
f518	1e	ROR	A: 0	X: 0	Y: 0	SP: fd
f51a	1f	ROR	A: 0	X: 0	Y: 0	SP: fd
f51c	0	RTS	A: 0	X: 0	Y: 0	SP: fd
c7e4	c7e1	JMP	A: 0	X: 0	Y: 0	SP: ff
